

Microchip MPLAB XC8 Assembler V2.32 build 20210201212658 
                                                                                               Thu Aug 26 08:57:53 2021

Microchip MPLAB XC8 C Compiler v2.32 (Free license) build 20210201212658 Og1 
     1                           	processor	18F47K42
     2                           	fnconf	rparam,??,?,0
     3                           	pagewidth 120
     4                           	opt	flic
     5                           	psect	idataBANK0,global,class=CODE,delta=1,noexec
     6                           	psect	nvBANK0,global,class=BANK0,space=1,delta=1,lowdata,noexec
     7                           	psect	smallconst,global,reloc=2,class=SMALLCONST,delta=1,noexec
     8                           	psect	cinit,global,reloc=2,class=CODE,delta=1
     9                           	psect	bssCOMRAM,global,class=COMRAM,space=1,delta=1,lowdata,noexec
    10                           	psect	bssBANK0,global,class=BANK0,space=1,delta=1,lowdata,noexec
    11                           	psect	dataBANK0,global,class=BANK0,space=1,delta=1,lowdata,noexec
    12                           	psect	cstackBANK0,global,class=BANK0,space=1,delta=1,lowdata,noexec
    13                           	psect	cstackCOMRAM,global,class=COMRAM,space=1,delta=1,lowdata,noexec
    14                           	psect	text0,global,reloc=2,class=CODE,delta=1
    15                           	psect	text1,global,reloc=2,class=CODE,delta=1,group=3
    16                           	psect	text2,global,reloc=2,class=CODE,delta=1,group=1
    17                           	psect	text3,global,reloc=2,class=CODE,delta=1,group=1
    18                           	psect	text4,global,reloc=2,class=CODE,delta=1,group=1
    19                           	psect	text5,global,reloc=2,class=CODE,delta=1,group=1
    20                           	psect	text6,global,reloc=2,class=CODE,delta=1,group=3
    21                           	psect	text7,global,reloc=2,class=CODE,delta=1,group=3
    22                           	psect	text8,global,reloc=2,class=CODE,delta=1,group=3
    23                           	psect	text9,global,reloc=2,class=CODE,delta=1
    24                           	psect	text10,global,reloc=2,class=CODE,delta=1
    25                           	psect	text11,global,reloc=2,class=CODE,delta=1,group=3
    26                           	psect	text12,global,reloc=2,class=CODE,delta=1,group=2
    27                           	psect	text13,global,reloc=2,class=CODE,delta=1,group=2
    28                           	psect	text14,global,reloc=2,class=CODE,delta=1,group=2
    29                           	psect	text15,global,reloc=2,class=CODE,delta=1,group=2
    30                           	psect	text16,global,reloc=2,class=CODE,delta=1,group=2
    31                           	psect	text17,global,reloc=2,class=CODE,delta=1,group=2
    32                           	psect	text18,global,reloc=2,class=CODE,delta=1
    33                           	psect	text19,global,reloc=2,class=CODE,delta=1
    34                           	psect	text20,global,reloc=2,class=CODE,delta=1
    35                           	psect	text21,global,reloc=2,class=CODE,delta=1
    36                           	psect	text22,global,reloc=2,class=CODE,delta=1
    37                           	psect	text23,global,reloc=2,class=CODE,delta=1
    38                           	psect	text24,global,reloc=2,class=CODE,delta=1
    39                           	psect	text25,global,reloc=2,class=CODE,delta=1
    40                           	psect	text26,global,reloc=2,class=CODE,delta=1
    41                           	psect	text27,global,reloc=2,class=CODE,delta=1
    42                           	psect	text28,global,reloc=2,class=CODE,delta=1
    43                           	psect	text29,global,reloc=2,class=CODE,delta=1
    44                           	psect	text30,global,reloc=2,class=CODE,delta=1
    45                           	psect	text31,global,reloc=2,class=CODE,delta=1
    46                           	psect	text32,global,reloc=2,class=CODE,delta=1
    47                           	psect	text33,global,reloc=2,class=CODE,delta=1
    48                           	psect	text34,global,reloc=2,class=CODE,delta=1
    49                           	psect	text35,global,reloc=2,class=CODE,delta=1
    50                           	psect	text36,global,reloc=2,class=CODE,delta=1
    51                           	psect	text37,global,reloc=2,class=CODE,delta=1
    52                           	psect	text38,global,reloc=2,class=CODE,delta=1
    53                           	psect	ivt0x8,global,reloc=2,class=CODE,delta=1,noexec,keep,optim=
    54                           	psect	intsave_regs,global,class=BIGRAM,space=1,delta=1,noexec
    55                           	psect	text39,global,reloc=2,class=CODE,delta=1
    56                           	psect	rparam,global,class=COMRAM,space=1,delta=1,noexec
    57                           	psect	idloc,global,abs,ovrld,class=IDLOC,space=5,delta=1,noexec
    58                           	psect	config,global,abs,ovrld,class=CONFIG,space=4,delta=1,noexec
    59  0000                     
    60                           ; Version 2.20
    61                           ; Generated 05/05/2020 GMT
    62                           ; 
    63                           ; Copyright © 2020, Microchip Technology Inc. and its subsidiaries ("Microchip")
    64                           ; All rights reserved.
    65                           ; 
    66                           ; This software is developed by Microchip Technology Inc. and its subsidiaries ("Microch
      +                          ip").
    67                           ; 
    68                           ; Redistribution and use in source and binary forms, with or without modification, are
    69                           ; permitted provided that the following conditions are met:
    70                           ; 
    71                           ;     1. Redistributions of source code must retain the above copyright notice, this lis
      +                          t of
    72                           ;        conditions and the following disclaimer.
    73                           ; 
    74                           ;     2. Redistributions in binary form must reproduce the above copyright notice, this 
      +                          list
    75                           ;        of conditions and the following disclaimer in the documentation and/or other
    76                           ;        materials provided with the distribution.
    77                           ; 
    78                           ;     3. Microchip's name may not be used to endorse or promote products derived from th
      +                          is
    79                           ;        software without specific prior written permission.
    80                           ; 
    81                           ; THIS SOFTWARE IS PROVIDED BY MICROCHIP "AS IS" AND ANY EXPRESS OR IMPLIED WARRANTIES,
    82                           ; INCLUDING, BUT NOT LIMITED TO, THE IMPLIED WARRANTIES OF MERCHANTABILITY AND FITNESS F
      +                          OR
    83                           ; PURPOSE ARE DISCLAIMED.  IN NO EVENT SHALL MICROCHIP BE LIABLE FOR ANY DIRECT, INDIREC
      +                          T,
    84                           ; INCIDENTAL, SPECIAL, EXEMPLARY, OR CONSEQUENTIAL DAMAGES (INCLUDING BUT NOT LIMITED TO
    85                           ; PROCUREMENT OF SUBSTITUTE GOODS OR SERVICES; LOSS OF USE, DATA OR PROFITS; OR BUSINESS
    86                           ; INTERRUPTION) HOWSOEVER CAUSED AND ON ANY THEORY OF LIABILITY, WHETHER IN CONTRACT, ST
      +                          RICT
    87                           ; LIABILITY, OR TORT (INCLUDING NEGLIGENCE OR OTHERWISE) ARISING IN ANY WAY OUT OF THE U
      +                          SE OF
    88                           ; THIS SOFTWARE, EVEN IF ADVISED OF THE POSSIBILITY OF SUCH DAMAGE.
    89                           ; 
    90                           ; 
    91                           ; Code-generator required, PIC18F47K42 Definitions
    92                           ; 
    93                           ; SFR Addresses
    94  0000                     
    95 ;; Function _UART1_DefaultFramingErrorHandler is unused but had its address taken
    96  0000                     
    97 ;; Function _UART1_DefaultOverrunErrorHandler is unused but had its address taken
    98  0000                     
    99 ;; Function _UART1_DefaultErrorHandler is unused but had its address taken
   100  0000                     
   101                           	psect	idataBANK0
   102  003E4A                     __pidataBANK0:
   103                           	callstack 0
   104                           
   105                           ;initializer for _Width
   106  003E4A  0003               	dw	3
   107  003E4C  0000               	dw	0
   108                           
   109                           ;initializer for _failsafe_count
   110  003E4E  0001               	dw	1
   111                           
   112                           ;initializer for _reverse
   113  003E50  000F               	dw	15
   114                           
   115                           	psect	nvBANK0
   116  0000AC                     __pnvBANK0:
   117                           	callstack 0
   118  0000AC                     _INT0_InterruptHandler:
   119                           	callstack 0
   120  0000AC                     	ds	3
   121  0000AF                     _UART1_ErrorHandler:
   122                           	callstack 0
   123  0000AF                     	ds	3
   124  0000B2                     _UART1_OverrunErrorHandler:
   125                           	callstack 0
   126  0000B2                     	ds	3
   127  0000B5                     _UART1_FramingErrorHandler:
   128                           	callstack 0
   129  0000B5                     	ds	3
   130  0000                     _PIR7bits	set	14759
   131  0000                     _PIR4bits	set	14756
   132  0000                     _PIR3bits	set	14755
   133  0000                     _PMD7	set	14791
   134  0000                     _PMD6	set	14790
   135  0000                     _PMD5	set	14789
   136  0000                     _PMD4	set	14788
   137  0000                     _PMD3	set	14787
   138  0000                     _PMD2	set	14786
   139  0000                     _PMD1	set	14785
   140  0000                     _PMD0	set	14784
   141  0000                     _OSCTUNE	set	14814
   142  0000                     _OSCFRQ	set	14815
   143  0000                     _OSCEN	set	14813
   144  0000                     _OSCCON3	set	14811
   145  0000                     _OSCCON1	set	14809
   146  0000                     _PIR1bits	set	14753
   147  0000                     _PIE1bits	set	14737
   148  0000                     _U1RXPPS	set	15077
   149  0000                     _SMT1SIGPPS	set	15058
   150  0000                     _RB2PPS	set	14858
   151  0000                     _SMT1WINPPS	set	15057
   152  0000                     _INT0PPS	set	15040
   153  0000                     _INLVLE	set	14980
   154  0000                     _INLVLD	set	14964
   155  0000                     _INLVLC	set	14948
   156  0000                     _INLVLB	set	14932
   157  0000                     _INLVLA	set	14916
   158  0000                     _SLRCONE	set	14979
   159  0000                     _SLRCOND	set	14963
   160  0000                     _SLRCONC	set	14947
   161  0000                     _SLRCONB	set	14931
   162  0000                     _SLRCONA	set	14915
   163  0000                     _ODCOND	set	14962
   164  0000                     _ODCONC	set	14946
   165  0000                     _ODCONB	set	14930
   166  0000                     _ODCONA	set	14914
   167  0000                     _ODCONE	set	14978
   168  0000                     _RD1I2C	set	14971
   169  0000                     _RD0I2C	set	14970
   170  0000                     _RC4I2C	set	14955
   171  0000                     _RC3I2C	set	14954
   172  0000                     _RB2I2C	set	14939
   173  0000                     _RB1I2C	set	14938
   174  0000                     _WPUC	set	14945
   175  0000                     _WPUA	set	14913
   176  0000                     _WPUB	set	14929
   177  0000                     _WPUE	set	14977
   178  0000                     _WPUD	set	14961
   179  0000                     _ANSELA	set	14912
   180  0000                     _ANSELE	set	14976
   181  0000                     _ANSELB	set	14928
   182  0000                     _ANSELC	set	14944
   183  0000                     _ANSELD	set	14960
   184  0000                     _U1TXB	set	15850
   185  0000                     _U1RXB	set	15848
   186  0000                     _U1ERRIRbits	set	15865
   187  0000                     _U1CON0bits	set	15858
   188  0000                     _U1ERRIE	set	15866
   189  0000                     _U1ERRIR	set	15865
   190  0000                     _U1UIR	set	15864
   191  0000                     _U1FIFO	set	15863
   192  0000                     _U1BRGH	set	15862
   193  0000                     _U1BRGL	set	15861
   194  0000                     _U1CON2	set	15860
   195  0000                     _U1CON1	set	15859
   196  0000                     _U1CON0	set	15858
   197  0000                     _U1P3H	set	15857
   198  0000                     _U1P3L	set	15856
   199  0000                     _U1P2H	set	15855
   200  0000                     _U1P2L	set	15854
   201  0000                     _U1P1H	set	15853
   202  0000                     _U1P1L	set	15852
   203  0000                     _SMT1TMR	set	16146
   204  0000                     _SMT1CPR	set	16149
   205  0000                     _SMT1CPW	set	16152
   206  0000                     _SMT1PR	set	16155
   207  0000                     _SMT1STATbits	set	16160
   208  0000                     _SMT1CON0bits	set	16158
   209  0000                     _SMT1CON1bits	set	16159
   210  0000                     _SMT1PRL	set	16155
   211  0000                     _SMT1PRH	set	16156
   212  0000                     _SMT1PRU	set	16157
   213  0000                     _SMT1SIG	set	16162
   214  0000                     _SMT1WIN	set	16163
   215  0000                     _SMT1CLK	set	16161
   216  0000                     _SMT1STAT	set	16160
   217  0000                     _SMT1CON1	set	16159
   218  0000                     _SMT1CON0	set	16158
   219  0000                     _LATEbits	set	16318
   220  0000                     _LATAbits	set	16314
   221  0000                     _PR4	set	16287
   222  0000                     _TMR4	set	16286
   223  0000                     _T4CONbits	set	16288
   224  0000                     _T4RSTbits	set	16291
   225  0000                     _T4HLTbits	set	16289
   226  0000                     _T4CON	set	16288
   227  0000                     _T4TMR	set	16286
   228  0000                     _T4PR	set	16287
   229  0000                     _T4RST	set	16291
   230  0000                     _T4HLT	set	16289
   231  0000                     _T4CLKCON	set	16290
   232  0000                     _PR2	set	16299
   233  0000                     _TMR2	set	16298
   234  0000                     _T2CONbits	set	16300
   235  0000                     _T2RSTbits	set	16303
   236  0000                     _T2HLTbits	set	16301
   237  0000                     _T2CON	set	16300
   238  0000                     _T2TMR	set	16298
   239  0000                     _T2PR	set	16299
   240  0000                     _T2RST	set	16303
   241  0000                     _T2HLT	set	16301
   242  0000                     _T2CLKCON	set	16302
   243  0000                     _INTCON0bits	set	16338
   244  0000                     _TRISD	set	16325
   245  0000                     _TRISC	set	16324
   246  0000                     _TRISB	set	16323
   247  0000                     _TRISA	set	16322
   248  0000                     _TRISE	set	16326
   249  0000                     _LATC	set	16316
   250  0000                     _LATB	set	16315
   251  0000                     _LATA	set	16314
   252  0000                     _LATD	set	16317
   253  0000                     _LATE	set	16318
   254                           
   255                           	psect	smallconst
   256  002000                     __psmallconst:
   257                           	callstack 0
   258  002000  00                 	db	0
   259  002001                     STR_2:
   260  002001  53                 	db	83	;'S'
   261  002002  74                 	db	116	;'t'
   262  002003  61                 	db	97	;'a'
   263  002004  72                 	db	114	;'r'
   264  002005  74                 	db	116	;'t'
   265  002006  20                 	db	32
   266  002007  75                 	db	117	;'u'
   267  002008  70                 	db	112	;'p'
   268  002009  20                 	db	32
   269  00200A  64                 	db	100	;'d'
   270  00200B  65                 	db	101	;'e'
   271  00200C  6C                 	db	108	;'l'
   272  00200D  61                 	db	97	;'a'
   273  00200E  79                 	db	121	;'y'
   274  00200F  2E                 	db	46
   275  002010  20                 	db	32
   276  002011  42                 	db	66	;'B'
   277  002012  65                 	db	101	;'e'
   278  002013  67                 	db	103	;'g'
   279  002014  69                 	db	105	;'i'
   280  002015  6E                 	db	110	;'n'
   281  002016  20                 	db	32
   282  002017  77                 	db	119	;'w'
   283  002018  61                 	db	97	;'a'
   284  002019  69                 	db	105	;'i'
   285  00201A  74                 	db	116	;'t'
   286  00201B  69                 	db	105	;'i'
   287  00201C  6E                 	db	110	;'n'
   288  00201D  67                 	db	103	;'g'
   289  00201E  20                 	db	32
   290  00201F  66                 	db	102	;'f'
   291  002020  6F                 	db	111	;'o'
   292  002021  72                 	db	114	;'r'
   293  002022  20                 	db	32
   294  002023  72                 	db	114	;'r'
   295  002024  2F                 	db	47
   296  002025  63                 	db	99	;'c'
   297  002026  20                 	db	32
   298  002027  70                 	db	112	;'p'
   299  002028  75                 	db	117	;'u'
   300  002029  6C                 	db	108	;'l'
   301  00202A  73                 	db	115	;'s'
   302  00202B  65                 	db	101	;'e'
   303  00202C  73                 	db	115	;'s'
   304  00202D  20                 	db	32
   305  00202E  6F                 	db	111	;'o'
   306  00202F  6E                 	db	110	;'n'
   307  002030  20                 	db	32
   308  002031  69                 	db	105	;'i'
   309  002032  6E                 	db	110	;'n'
   310  002033  70                 	db	112	;'p'
   311  002034  75                 	db	117	;'u'
   312  002035  74                 	db	116	;'t'
   313  002036  20                 	db	32
   314  002037  70                 	db	112	;'p'
   315  002038  69                 	db	105	;'i'
   316  002039  6E                 	db	110	;'n'
   317  00203A  2E                 	db	46
   318  00203B  20                 	db	32
   319  00203C  0D                 	db	13
   320  00203D  0A                 	db	10
   321  00203E  00                 	db	0
   322  00203F                     STR_4:
   323  00203F  49                 	db	73	;'I'
   324  002040  6E                 	db	110	;'n'
   325  002041  70                 	db	112	;'p'
   326  002042  75                 	db	117	;'u'
   327  002043  74                 	db	116	;'t'
   328  002044  20                 	db	32
   329  002045  70                 	db	112	;'p'
   330  002046  75                 	db	117	;'u'
   331  002047  6C                 	db	108	;'l'
   332  002048  73                 	db	115	;'s'
   333  002049  65                 	db	101	;'e'
   334  00204A  20                 	db	32
   335  00204B  3D                 	db	61	;'='
   336  00204C  20                 	db	32
   337  00204D  25                 	db	37
   338  00204E  64                 	db	100	;'d'
   339  00204F  20                 	db	32
   340  002050  48                 	db	72	;'H'
   341  002051  61                 	db	97	;'a'
   342  002052  6C                 	db	108	;'l'
   343  002053  6C                 	db	108	;'l'
   344  002054  20                 	db	32
   345  002055  63                 	db	99	;'c'
   346  002056  6F                 	db	111	;'o'
   347  002057  75                 	db	117	;'u'
   348  002058  6E                 	db	110	;'n'
   349  002059  74                 	db	116	;'t'
   350  00205A  65                 	db	101	;'e'
   351  00205B  72                 	db	114	;'r'
   352  00205C  20                 	db	32
   353  00205D  3D                 	db	61	;'='
   354  00205E  20                 	db	32
   355  00205F  25                 	db	37
   356  002060  64                 	db	100	;'d'
   357  002061  20                 	db	32
   358  002062  45                 	db	69	;'E'
   359  002063  72                 	db	114	;'r'
   360  002064  72                 	db	114	;'r'
   361  002065  6F                 	db	111	;'o'
   362  002066  72                 	db	114	;'r'
   363  002067  20                 	db	32
   364  002068  73                 	db	115	;'s'
   365  002069  69                 	db	105	;'i'
   366  00206A  67                 	db	103	;'g'
   367  00206B  6E                 	db	110	;'n'
   368  00206C  61                 	db	97	;'a'
   369  00206D  6C                 	db	108	;'l'
   370  00206E  3D                 	db	61	;'='
   371  00206F  20                 	db	32
   372  002070  25                 	db	37
   373  002071  64                 	db	100	;'d'
   374  002072  20                 	db	32
   375  002073  0D                 	db	13
   376  002074  0A                 	db	10
   377  002075  00                 	db	0
   378  002076                     STR_3:
   379  002076  44                 	db	68	;'D'
   380  002077  61                 	db	97	;'a'
   381  002078  74                 	db	116	;'t'
   382  002079  61                 	db	97	;'a'
   383  00207A  20                 	db	32
   384  00207B  77                 	db	119	;'w'
   385  00207C  69                 	db	105	;'i'
   386  00207D  6C                 	db	108	;'l'
   387  00207E  6C                 	db	108	;'l'
   388  00207F  20                 	db	32
   389  002080  62                 	db	98	;'b'
   390  002081  65                 	db	101	;'e'
   391  002082  20                 	db	32
   392  002083  70                 	db	112	;'p'
   393  002084  72                 	db	114	;'r'
   394  002085  69                 	db	105	;'i'
   395  002086  6E                 	db	110	;'n'
   396  002087  74                 	db	116	;'t'
   397  002088  65                 	db	101	;'e'
   398  002089  64                 	db	100	;'d'
   399  00208A  20                 	db	32
   400  00208B  61                 	db	97	;'a'
   401  00208C  66                 	db	102	;'f'
   402  00208D  74                 	db	116	;'t'
   403  00208E  65                 	db	101	;'e'
   404  00208F  72                 	db	114	;'r'
   405  002090  20                 	db	32
   406  002091  70                 	db	112	;'p'
   407  002092  75                 	db	117	;'u'
   408  002093  6C                 	db	108	;'l'
   409  002094  73                 	db	115	;'s'
   410  002095  65                 	db	101	;'e'
   411  002096  73                 	db	115	;'s'
   412  002097  20                 	db	32
   413  002098  61                 	db	97	;'a'
   414  002099  72                 	db	114	;'r'
   415  00209A  65                 	db	101	;'e'
   416  00209B  20                 	db	32
   417  00209C  72                 	db	114	;'r'
   418  00209D  65                 	db	101	;'e'
   419  00209E  63                 	db	99	;'c'
   420  00209F  65                 	db	101	;'e'
   421  0020A0  69                 	db	105	;'i'
   422  0020A1  76                 	db	118	;'v'
   423  0020A2  65                 	db	101	;'e'
   424  0020A3  64                 	db	100	;'d'
   425  0020A4  2E                 	db	46
   426  0020A5  20                 	db	32
   427  0020A6  0D                 	db	13
   428  0020A7  0A                 	db	10
   429  0020A8  00                 	db	0
   430  0020A9  00                 	db	0	; dummy byte at the end
   431  0000                     
   432                           ; #config settings
   433                           
   434                           	psect	cinit
   435  003BD6                     __pcinit:
   436                           	callstack 0
   437  003BD6                     start_initialization:
   438                           	callstack 0
   439  003BD6                     __initialization:
   440                           	callstack 0
   441                           
   442                           ; Initialize objects allocated to BANK0 (8 bytes)
   443                           ; load TBLPTR registers with __pidataBANK0
   444  003BD6  0E4A               	movlw	low __pidataBANK0
   445  003BD8  6EF6               	movwf	tblptrl,c
   446  003BDA  0E3E               	movlw	high __pidataBANK0
   447  003BDC  6EF7               	movwf	tblptrh,c
   448  003BDE  0E00               	movlw	low (__pidataBANK0 shr (0+16))
   449  003BE0  6EF8               	movwf	tblptru,c
   450  003BE2  EE00  F0B8         	lfsr	0,__pdataBANK0
   451  003BE6  EE10 F008          	lfsr	1,8
   452  003BEA                     copy_data0:
   453  003BEA  0009               	tblrd		*+
   454  003BEC  006F FFD7 FFEE     	movff	tablat,postinc0
   455  003BF2  50E5               	movf	postdec1,w,c
   456  003BF4  50E1               	movf	fsr1l,w,c
   457  003BF6  E1F9               	bnz	copy_data0
   458                           
   459                           ; Clear objects allocated to BANK0 (76 bytes)
   460  003BF8  EE00  F060         	lfsr	0,__pbssBANK0
   461  003BFC  0E4C               	movlw	76
   462  003BFE                     clear_0:
   463  003BFE  6AEE               	clrf	postinc0,c
   464  003C00  06E8               	decf	wreg,f,c
   465  003C02  E1FD               	bnz	clear_0
   466                           
   467                           ; Clear objects allocated to COMRAM (1 bytes)
   468  003C04  6A5F               	clrf	__pbssCOMRAM& (0+255),c
   469                           
   470                           ;
   471                           ; Setup IVTBASE
   472                           ;
   473  003C06  0E08               	movlw	(ivt0x8_base shr 0)& (0+255)
   474  003C08  6ED5               	movwf	213,c
   475  003C0A  0E00               	movlw	(ivt0x8_base shr (0+8))& (0+255)
   476  003C0C  6ED6               	movwf	214,c
   477  003C0E  0E00               	movlw	(ivt0x8_base shr (0+16))& (0+255)
   478  003C10  6ED7               	movwf	215,c
   479  003C12                     end_of_initialization:
   480                           	callstack 0
   481  003C12                     __end_of__initialization:
   482                           	callstack 0
   483  003C12  0100               	movlb	0
   484  003C14  EFB5  F012         	goto	_main	;jump to C main() function
   485                           
   486                           	psect	bssCOMRAM
   487  00005F                     __pbssCOMRAM:
   488                           	callstack 0
   489  00005F                     _uart1RxLastError:
   490                           	callstack 0
   491  00005F                     	ds	1
   492                           
   493                           	psect	bssBANK0
   494  000060                     __pbssBANK0:
   495                           	callstack 0
   496  000060                     _Timer:
   497                           	callstack 0
   498  000060                     	ds	4
   499  000064                     _Period:
   500                           	callstack 0
   501  000064                     	ds	4
   502  000068                     _analog:
   503                           	callstack 0
   504  000068                     	ds	4
   505  00006C                     _duration:
   506                           	callstack 0
   507  00006C                     	ds	4
   508  000070                     _duration1:
   509                           	callstack 0
   510  000070                     	ds	4
   511  000074                     _nout:
   512                           	callstack 0
   513  000074                     	ds	2
   514  000076                     _width:
   515                           	callstack 0
   516  000076                     	ds	2
   517  000078                     _prec:
   518                           	callstack 0
   519  000078                     	ds	2
   520  00007A                     _flags:
   521                           	callstack 0
   522  00007A                     	ds	2
   523  00007C                     _Counter:
   524                           	callstack 0
   525  00007C                     	ds	2
   526  00007E                     _count:
   527                           	callstack 0
   528  00007E                     	ds	2
   529  000080                     _lastState:
   530                           	callstack 0
   531  000080                     	ds	2
   532  000082                     _state:
   533                           	callstack 0
   534  000082                     	ds	2
   535  000084                     _errsig:
   536                           	callstack 0
   537  000084                     	ds	2
   538  000086                     _ip_pulse:
   539                           	callstack 0
   540  000086                     	ds	2
   541  000088                     _band:
   542                           	callstack 0
   543  000088                     	ds	2
   544  00008A                     _mody:
   545                           	callstack 0
   546  00008A                     	ds	2
   547  00008C                     _dbuf:
   548                           	callstack 0
   549  00008C                     	ds	32
   550                           
   551                           	psect	dataBANK0
   552  0000B8                     __pdataBANK0:
   553                           	callstack 0
   554  0000B8                     _Width:
   555                           	callstack 0
   556  0000B8                     	ds	4
   557  0000BC                     _failsafe_count:
   558                           	callstack 0
   559  0000BC                     	ds	2
   560  0000BE                     _reverse:
   561                           	callstack 0
   562  0000BE                     	ds	2
   563                           
   564                           	psect	cstackBANK0
   565  0000C0                     __pcstackBANK0:
   566                           	callstack 0
   567  0000C0                     ?_printf:
   568                           	callstack 0
   569  0000C0                     printf@fmt:
   570                           	callstack 0
   571                           
   572                           ; 2 bytes @ 0x0
   573  0000C0                     	ds	8
   574                           
   575                           	psect	cstackCOMRAM
   576  000001                     __pcstackCOMRAM:
   577                           	callstack 0
   578  000001                     ?_strlen:
   579                           	callstack 0
   580  000001                     ?___xxtofl:
   581                           	callstack 0
   582  000001                     ?___aodiv:
   583                           	callstack 0
   584  000001                     ?___aomod:
   585                           	callstack 0
   586  000001                     UART1_Write@txData:
   587                           	callstack 0
   588  000001                     strlen@s:
   589                           	callstack 0
   590  000001                     UART1_SetFramingErrorHandler@interruptHandler:
   591                           	callstack 0
   592  000001                     UART1_SetOverrunErrorHandler@interruptHandler:
   593                           	callstack 0
   594  000001                     UART1_SetErrorHandler@interruptHandler:
   595                           	callstack 0
   596  000001                     INT0_SetInterruptHandler@InterruptHandler:
   597                           	callstack 0
   598  000001                     ___xxtofl@val:
   599                           	callstack 0
   600  000001                     ___aodiv@dividend:
   601                           	callstack 0
   602  000001                     ___aomod@dividend:
   603                           	callstack 0
   604                           
   605                           ; 8 bytes @ 0x0
   606  000001                     	ds	1
   607  000002                     putch@txData:
   608                           	callstack 0
   609                           
   610                           ; 1 bytes @ 0x1
   611  000002                     	ds	1
   612  000003                     fputc@c:
   613                           	callstack 0
   614  000003                     strlen@a:
   615                           	callstack 0
   616                           
   617                           ; 2 bytes @ 0x2
   618  000003                     	ds	1
   619  000004                     
   620                           ; 1 bytes @ 0x3
   621  000004                     	ds	1
   622  000005                     ??___xxtofl:
   623  000005                     fputc@fp:
   624                           	callstack 0
   625                           
   626                           ; 2 bytes @ 0x4
   627  000005                     	ds	2
   628  000007                     ??_fputc:
   629                           
   630                           ; 1 bytes @ 0x6
   631  000007                     	ds	2
   632  000009                     ___xxtofl@sign:
   633                           	callstack 0
   634  000009                     ___aodiv@divisor:
   635                           	callstack 0
   636  000009                     ___aomod@divisor:
   637                           	callstack 0
   638                           
   639                           ; 8 bytes @ 0x8
   640  000009                     	ds	1
   641  00000A                     ___xxtofl@exp:
   642                           	callstack 0
   643                           
   644                           ; 1 bytes @ 0x9
   645  00000A                     	ds	1
   646  00000B                     ___xxtofl@arg:
   647                           	callstack 0
   648                           
   649                           ; 4 bytes @ 0xA
   650  00000B                     	ds	1
   651  00000C                     fputs@s:
   652                           	callstack 0
   653                           
   654                           ; 2 bytes @ 0xB
   655  00000C                     	ds	2
   656  00000E                     fputs@fp:
   657                           	callstack 0
   658                           
   659                           ; 2 bytes @ 0xD
   660  00000E                     	ds	1
   661  00000F                     ?___fldiv:
   662                           	callstack 0
   663  00000F                     ___fldiv@b:
   664                           	callstack 0
   665                           
   666                           ; 4 bytes @ 0xE
   667  00000F                     	ds	1
   668  000010                     fputs@c:
   669                           	callstack 0
   670                           
   671                           ; 1 bytes @ 0xF
   672  000010                     	ds	1
   673  000011                     ___aodiv@counter:
   674                           	callstack 0
   675  000011                     ___aomod@counter:
   676                           	callstack 0
   677  000011                     fputs@i:
   678                           	callstack 0
   679                           
   680                           ; 2 bytes @ 0x10
   681  000011                     	ds	1
   682  000012                     ___aodiv@sign:
   683                           	callstack 0
   684  000012                     ___aomod@sign:
   685                           	callstack 0
   686                           
   687                           ; 1 bytes @ 0x11
   688  000012                     	ds	1
   689  000013                     ?_abs:
   690                           	callstack 0
   691  000013                     ?_pad:
   692                           	callstack 0
   693  000013                     pad@fp:
   694                           	callstack 0
   695  000013                     abs@a:
   696                           	callstack 0
   697  000013                     ___fldiv@a:
   698                           	callstack 0
   699  000013                     ___aodiv@quotient:
   700                           	callstack 0
   701                           
   702                           ; 8 bytes @ 0x12
   703  000013                     	ds	2
   704  000015                     ??_abs:
   705  000015                     pad@buf:
   706                           	callstack 0
   707                           
   708                           ; 2 bytes @ 0x14
   709  000015                     	ds	2
   710  000017                     ??___fldiv:
   711  000017                     pad@p:
   712                           	callstack 0
   713                           
   714                           ; 2 bytes @ 0x16
   715  000017                     	ds	2
   716  000019                     ??_pad:
   717                           
   718                           ; 1 bytes @ 0x18
   719  000019                     	ds	1
   720  00001A                     pad@i:
   721                           	callstack 0
   722                           
   723                           ; 2 bytes @ 0x19
   724  00001A                     	ds	1
   725  00001B                     ___fldiv@rem:
   726                           	callstack 0
   727                           
   728                           ; 4 bytes @ 0x1A
   729  00001B                     	ds	1
   730  00001C                     pad@w:
   731                           	callstack 0
   732                           
   733                           ; 2 bytes @ 0x1B
   734  00001C                     	ds	2
   735  00001E                     ?_dtoa:
   736                           	callstack 0
   737  00001E                     dtoa@fp:
   738                           	callstack 0
   739                           
   740                           ; 2 bytes @ 0x1D
   741  00001E                     	ds	1
   742  00001F                     ___fldiv@sign:
   743                           	callstack 0
   744                           
   745                           ; 1 bytes @ 0x1E
   746  00001F                     	ds	1
   747  000020                     ___fldiv@new_exp:
   748                           	callstack 0
   749  000020                     dtoa@d:
   750                           	callstack 0
   751                           
   752                           ; 8 bytes @ 0x1F
   753  000020                     	ds	2
   754  000022                     ___fldiv@grs:
   755                           	callstack 0
   756                           
   757                           ; 4 bytes @ 0x21
   758  000022                     	ds	4
   759  000026                     ___fldiv@bexp:
   760                           	callstack 0
   761                           
   762                           ; 1 bytes @ 0x25
   763  000026                     	ds	1
   764  000027                     ___fldiv@aexp:
   765                           	callstack 0
   766                           
   767                           ; 1 bytes @ 0x26
   768  000027                     	ds	1
   769  000028                     ??_dtoa:
   770  000028                     ?___fladd:
   771                           	callstack 0
   772  000028                     ___fladd@b:
   773                           	callstack 0
   774                           
   775                           ; 4 bytes @ 0x27
   776  000028                     	ds	4
   777  00002C                     ___fladd@a:
   778                           	callstack 0
   779                           
   780                           ; 4 bytes @ 0x2B
   781  00002C                     	ds	4
   782  000030                     ??___fladd:
   783  000030                     _dtoa$1987:
   784                           	callstack 0
   785                           
   786                           ; 2 bytes @ 0x2F
   787  000030                     	ds	2
   788  000032                     dtoa@p:
   789                           	callstack 0
   790                           
   791                           ; 2 bytes @ 0x31
   792  000032                     	ds	2
   793  000034                     ___fladd@signs:
   794                           	callstack 0
   795  000034                     dtoa@w:
   796                           	callstack 0
   797                           
   798                           ; 2 bytes @ 0x33
   799  000034                     	ds	1
   800  000035                     ___fladd@aexp:
   801                           	callstack 0
   802                           
   803                           ; 1 bytes @ 0x34
   804  000035                     	ds	1
   805  000036                     ___fladd@bexp:
   806                           	callstack 0
   807  000036                     dtoa@s:
   808                           	callstack 0
   809                           
   810                           ; 2 bytes @ 0x35
   811  000036                     	ds	1
   812  000037                     ___fladd@grs:
   813                           	callstack 0
   814                           
   815                           ; 1 bytes @ 0x36
   816  000037                     	ds	1
   817  000038                     ?___fltol:
   818                           	callstack 0
   819  000038                     ___fltol@f1:
   820                           	callstack 0
   821  000038                     dtoa@n:
   822                           	callstack 0
   823                           
   824                           ; 8 bytes @ 0x37
   825  000038                     	ds	4
   826  00003C                     ??___fltol:
   827                           
   828                           ; 1 bytes @ 0x3B
   829  00003C                     	ds	4
   830  000040                     ___fltol@sign1:
   831                           	callstack 0
   832  000040                     dtoa@i:
   833                           	callstack 0
   834                           
   835                           ; 2 bytes @ 0x3F
   836  000040                     	ds	1
   837  000041                     ___fltol@exp1:
   838                           	callstack 0
   839                           
   840                           ; 1 bytes @ 0x40
   841  000041                     	ds	1
   842  000042                     ?_vfpfcnvrt:
   843                           	callstack 0
   844  000042                     vfpfcnvrt@fp:
   845                           	callstack 0
   846                           
   847                           ; 2 bytes @ 0x41
   848  000042                     	ds	2
   849  000044                     vfpfcnvrt@fmt:
   850                           	callstack 0
   851                           
   852                           ; 2 bytes @ 0x43
   853  000044                     	ds	2
   854  000046                     vfpfcnvrt@ap:
   855                           	callstack 0
   856                           
   857                           ; 2 bytes @ 0x45
   858  000046                     	ds	2
   859  000048                     ??_vfpfcnvrt:
   860                           
   861                           ; 1 bytes @ 0x47
   862  000048                     	ds	2
   863  00004A                     vfpfcnvrt@ll:
   864                           	callstack 0
   865                           
   866                           ; 8 bytes @ 0x49
   867  00004A                     	ds	8
   868  000052                     ?_vfprintf:
   869                           	callstack 0
   870  000052                     vfprintf@fp:
   871                           	callstack 0
   872                           
   873                           ; 2 bytes @ 0x51
   874  000052                     	ds	2
   875  000054                     vfprintf@fmt:
   876                           	callstack 0
   877                           
   878                           ; 2 bytes @ 0x53
   879  000054                     	ds	2
   880  000056                     vfprintf@ap:
   881                           	callstack 0
   882                           
   883                           ; 2 bytes @ 0x55
   884  000056                     	ds	2
   885  000058                     vfprintf@cfmt:
   886                           	callstack 0
   887                           
   888                           ; 2 bytes @ 0x57
   889  000058                     	ds	2
   890  00005A                     printf@ap:
   891                           	callstack 0
   892                           
   893                           ; 2 bytes @ 0x59
   894  00005A                     	ds	2
   895  00005C                     ??_main:
   896                           
   897                           ; 1 bytes @ 0x5B
   898  00005C                     	ds	3
   899                           
   900 ;;
   901 ;;Main: autosize = 0, tempsize = 3, incstack = 0, save=0
   902 ;;
   903 ;; *************** function _main *****************
   904 ;; Defined at:
   905 ;;		line 154 in file "main.c"
   906 ;; Parameters:    Size  Location     Type
   907 ;;		None
   908 ;; Auto vars:     Size  Location     Type
   909 ;;		None
   910 ;; Return value:  Size  Location     Type
   911 ;;                  1    wreg      void 
   912 ;; Registers used:
   913 ;;		wreg, fsr1l, fsr1h, fsr2l, fsr2h, status,2, status,0, tblptrl, tblptrh, tblptru, cstack
   914 ;; Tracked objects:
   915 ;;		On entry : 0/0
   916 ;;		On exit  : 0/0
   917 ;;		Unchanged: 0/0
   918 ;; Data sizes:     COMRAM   BANK0   BANK1   BANK2   BANK3   BANK4   BANK5   BANK6   BANK7   BANK8   BANK9  BANK10  BANK1
      +1  BANK12  BANK13  BANK14  BANK15  BANK16  BANK17  BANK18  BANK19  BANK20  BANK21  BANK22  BANK23  BANK24  BANK25  BANK2
      +6  BANK27  BANK28  BANK29  BANK30  BANK31
   919 ;;      Params:         0       0       0       0       0       0       0       0       0       0       0       0       
      +0       0       0       0       0       0       0       0       0       0       0       0       0       0       0       
      +0       0       0       0       0       0
   920 ;;      Locals:         0       0       0       0       0       0       0       0       0       0       0       0       
      +0       0       0       0       0       0       0       0       0       0       0       0       0       0       0       
      +0       0       0       0       0       0
   921 ;;      Temps:          3       0       0       0       0       0       0       0       0       0       0       0       
      +0       0       0       0       0       0       0       0       0       0       0       0       0       0       0       
      +0       0       0       0       0       0
   922 ;;      Totals:         3       0       0       0       0       0       0       0       0       0       0       0       
      +0       0       0       0       0       0       0       0       0       0       0       0       0       0       0       
      +0       0       0       0       0       0
   923 ;;Total ram usage:        3 bytes
   924 ;; Hardware stack levels required when called: 13
   925 ;; This function calls:
   926 ;;		_INT0_SetInterruptHandler
   927 ;;		_SYSTEM_Initialize
   928 ;;		___fladd
   929 ;;		___fldiv
   930 ;;		___fltol
   931 ;;		___xxtofl
   932 ;;		_printf
   933 ;; This function is called by:
   934 ;;		Startup code after reset
   935 ;; This function uses a non-reentrant model
   936 ;;
   937                           
   938                           	psect	text0
   939  00256A                     __ptext0:
   940                           	callstack 0
   941  00256A                     _main:
   942                           	callstack 18
   943  00256A                     
   944                           ;main.c: 156:     SYSTEM_Initialize();
   945  00256A  EC8E  F01E         	call	_SYSTEM_Initialize	;wreg free
   946                           
   947                           ;main.c: 157:     INT0_SetInterruptHandler(counterHall_callback);
   948  00256E  0EEE               	movlw	low _counterHall_callback
   949  002570  6E01               	movwf	INT0_SetInterruptHandler@InterruptHandler^0,c
   950  002572  0E3D               	movlw	high _counterHall_callback
   951  002574  6E02               	movwf	(INT0_SetInterruptHandler@InterruptHandler+1)^0,c
   952  002576  0E00               	movlw	low (_counterHall_callback shr (0+16))
   953  002578  6E03               	movwf	(INT0_SetInterruptHandler@InterruptHandler+2)^0,c
   954  00257A  EC14  F01F         	call	_INT0_SetInterruptHandler	;wreg free
   955  00257E                     
   956                           ;main.c: 163:     (INTCON0bits.GIE = 1);
   957  00257E  8ED2               	bsf	210,7,c	;volatile
   958  002580                     
   959                           ;main.c: 170:     _delay((unsigned long)((500)*(500000/4000.0)));
   960  002580  0E52               	movlw	82
   961  002582  6E5C               	movwf	??_main^0,c
   962  002584  0E2A               	movlw	42
   963  002586                     u2937:
   964  002586  2EE8               	decfsz	wreg,f,c
   965  002588  D7FE               	bra	u2937
   966  00258A  2E5C               	decfsz	??_main^0,f,c
   967  00258C  D7FC               	bra	u2937
   968  00258E                     
   969                           ;main.c: 172:     LATAbits.LATA0 = 1;
   970  00258E  80BA               	bsf	186,0,c	;volatile
   971  002590                     
   972                           ;main.c: 173:     LATAbits.LATA1 = 0;
   973  002590  92BA               	bcf	186,1,c	;volatile
   974  002592                     
   975                           ;main.c: 174:     LATAbits.LATA2 = 1;
   976  002592  84BA               	bsf	186,2,c	;volatile
   977  002594                     
   978                           ;main.c: 175:     LATEbits.LATE2 = 0;
   979  002594  94BE               	bcf	190,2,c	;volatile
   980  002596                     
   981                           ;main.c: 177:     printf(" \r\n");
   982  002596  0EA5               	movlw	low (STR_3+47)
   983  002598  0100               	movlb	0	; () banked
   984  00259A  6FC0               	movwf	printf@fmt& (0+255),b
   985  00259C  0E20               	movlw	high (STR_3+47)
   986  00259E  6FC1               	movwf	(printf@fmt+1)& (0+255),b
   987  0025A0  EC7B  F01E         	call	_printf	;wreg free
   988  0025A4                     
   989                           ;main.c: 178:     printf("Start up delay. Begin waiting for r/c pulses on input pin. \r\
      +                          n");
   990  0025A4  0E01               	movlw	low STR_2
   991  0025A6  0100               	movlb	0	; () banked
   992  0025A8  6FC0               	movwf	printf@fmt& (0+255),b
   993  0025AA  0E20               	movlw	high STR_2
   994  0025AC  6FC1               	movwf	(printf@fmt+1)& (0+255),b
   995  0025AE  EC7B  F01E         	call	_printf	;wreg free
   996  0025B2                     
   997                           ;main.c: 179:     printf("Data will be printed after pulses are received. \r\n");
   998  0025B2  0E76               	movlw	low STR_3
   999  0025B4  0100               	movlb	0	; () banked
  1000  0025B6  6FC0               	movwf	printf@fmt& (0+255),b
  1001  0025B8  0E20               	movlw	high STR_3
  1002  0025BA  6FC1               	movwf	(printf@fmt+1)& (0+255),b
  1003  0025BC  EC7B  F01E         	call	_printf	;wreg free
  1004                           
  1005                           ;main.c: 182:     switch (mody) {
  1006  0025C0  EFF9  F012         	goto	l3646
  1007  0025C4                     l3638:
  1008  0025C4  0E17               	movlw	23
  1009  0025C6  6E5D               	movwf	(??_main+1)^0,c
  1010  0025C8  0E32               	movlw	50
  1011  0025CA  6E5C               	movwf	??_main^0,c
  1012  0025CC  0EC0               	movlw	192
  1013  0025CE                     u2947:
  1014  0025CE  2EE8               	decfsz	wreg,f,c
  1015  0025D0  D7FE               	bra	u2947
  1016  0025D2  2E5C               	decfsz	??_main^0,f,c
  1017  0025D4  D7FC               	bra	u2947
  1018  0025D6  2E5D               	decfsz	(??_main+1)^0,f,c
  1019  0025D8  D7FA               	bra	u2947
  1020  0025DA  D000               	nop2	
  1021                           
  1022                           ;main.c: 184:             break;
  1023  0025DC  EF28  F013         	goto	l3656
  1024  0025E0                     l3640:
  1025  0025E0  0E52               	movlw	82
  1026  0025E2  6E5C               	movwf	??_main^0,c
  1027  0025E4  0E2A               	movlw	42
  1028  0025E6                     u2957:
  1029  0025E6  2EE8               	decfsz	wreg,f,c
  1030  0025E8  D7FE               	bra	u2957
  1031  0025EA  2E5C               	decfsz	??_main^0,f,c
  1032  0025EC  D7FC               	bra	u2957
  1033                           
  1034                           ;main.c: 186:             break;
  1035  0025EE  EF28  F013         	goto	l3656
  1036  0025F2                     l3646:
  1037  0025F2  C08A  F05C         	movff	_mody,??_main
  1038  0025F6  C08B  F05D         	movff	_mody+1,??_main+1
  1039                           
  1040                           ; Switch on 2 bytes has been partitioned into a top level switch of size 1, and 1 sub-sw
      +                          itches
  1041                           ; Switch size 1, requested type "simple"
  1042                           ; Number of cases is 1, Range of values is 0 to 0
  1043                           ; switch strategies available:
  1044                           ; Name         Instructions Cycles
  1045                           ; simple_byte            4     3 (average)
  1046                           ;	Chosen strategy is simple_byte
  1047  0025FA  505D               	movf	(??_main+1)^0,w,c
  1048  0025FC  0A00               	xorlw	0	; case 0
  1049  0025FE  B4D8               	btfsc	status,2,c
  1050  002600  EF04  F013         	goto	l3834
  1051  002604  EF28  F013         	goto	l3656
  1052  002608                     l3834:
  1053                           
  1054                           ; Switch size 1, requested type "simple"
  1055                           ; Number of cases is 3, Range of values is 0 to 2
  1056                           ; switch strategies available:
  1057                           ; Name         Instructions Cycles
  1058                           ; simple_byte           10     6 (average)
  1059                           ;	Chosen strategy is simple_byte
  1060  002608  505C               	movf	??_main^0,w,c
  1061  00260A  0A00               	xorlw	0	; case 0
  1062  00260C  B4D8               	btfsc	status,2,c
  1063  00260E  EFE2  F012         	goto	l3638
  1064  002612  0A01               	xorlw	1	; case 1
  1065  002614  B4D8               	btfsc	status,2,c
  1066  002616  EFF0  F012         	goto	l3640
  1067  00261A  0A03               	xorlw	3	; case 2
  1068  00261C  B4D8               	btfsc	status,2,c
  1069  00261E  EFF0  F012         	goto	l3640
  1070  002622  EF28  F013         	goto	l3656
  1071  002626                     l3648:
  1072  002626  0E00               	movlw	0
  1073  002628  0100               	movlb	0	; () banked
  1074  00262A  6F7F               	movwf	(_count+1)& (0+255),b
  1075  00262C  0E00               	movlw	0
  1076  00262E  6F7E               	movwf	_count& (0+255),b
  1077                           
  1078                           ;main.c: 195:             break;
  1079  002630  EF42  F013         	goto	l3658
  1080  002634                     l3650:
  1081  002634  0E00               	movlw	0
  1082  002636  0100               	movlb	0	; () banked
  1083  002638  6F7F               	movwf	(_count+1)& (0+255),b
  1084  00263A  0E32               	movlw	50
  1085  00263C  6F7E               	movwf	_count& (0+255),b
  1086                           
  1087                           ;main.c: 197:             break;
  1088  00263E  EF42  F013         	goto	l3658
  1089  002642                     l3652:
  1090  002642  0E00               	movlw	0
  1091  002644  0100               	movlb	0	; () banked
  1092  002646  6F7F               	movwf	(_count+1)& (0+255),b
  1093  002648  0E05               	movlw	5
  1094  00264A  6F7E               	movwf	_count& (0+255),b
  1095                           
  1096                           ;main.c: 199:             break;
  1097  00264C  EF42  F013         	goto	l3658
  1098  002650                     l3656:
  1099  002650  C08A  F05C         	movff	_mody,??_main
  1100  002654  C08B  F05D         	movff	_mody+1,??_main+1
  1101                           
  1102                           ; Switch on 2 bytes has been partitioned into a top level switch of size 1, and 1 sub-sw
      +                          itches
  1103                           ; Switch size 1, requested type "simple"
  1104                           ; Number of cases is 1, Range of values is 0 to 0
  1105                           ; switch strategies available:
  1106                           ; Name         Instructions Cycles
  1107                           ; simple_byte            4     3 (average)
  1108                           ;	Chosen strategy is simple_byte
  1109  002658  505D               	movf	(??_main+1)^0,w,c
  1110  00265A  0A00               	xorlw	0	; case 0
  1111  00265C  B4D8               	btfsc	status,2,c
  1112  00265E  EF33  F013         	goto	l3836
  1113  002662  EF42  F013         	goto	l3658
  1114  002666                     l3836:
  1115                           
  1116                           ; Switch size 1, requested type "simple"
  1117                           ; Number of cases is 3, Range of values is 0 to 2
  1118                           ; switch strategies available:
  1119                           ; Name         Instructions Cycles
  1120                           ; simple_byte           10     6 (average)
  1121                           ;	Chosen strategy is simple_byte
  1122  002666  505C               	movf	??_main^0,w,c
  1123  002668  0A00               	xorlw	0	; case 0
  1124  00266A  B4D8               	btfsc	status,2,c
  1125  00266C  EF13  F013         	goto	l3648
  1126  002670  0A01               	xorlw	1	; case 1
  1127  002672  B4D8               	btfsc	status,2,c
  1128  002674  EF1A  F013         	goto	l3650
  1129  002678  0A03               	xorlw	3	; case 2
  1130  00267A  B4D8               	btfsc	status,2,c
  1131  00267C  EF21  F013         	goto	l3652
  1132  002680  EF42  F013         	goto	l3658
  1133  002684                     l3658:
  1134                           
  1135                           ;main.c: 207:         Width = SMT1CPW;
  1136  002684  013F               	movlb	63	; () banked
  1137  002686  5118               	movf	24,w,b	;volatile
  1138  002688  0100               	movlb	0	; () banked
  1139  00268A  6FB8               	movwf	_Width& (0+255),b
  1140  00268C  013F               	movlb	63	; () banked
  1141  00268E  5119               	movf	25,w,b	;volatile
  1142  002690  0100               	movlb	0	; () banked
  1143  002692  6FB9               	movwf	(_Width+1)& (0+255),b
  1144  002694  013F               	movlb	63	; () banked
  1145  002696  511A               	movf	26,w,b	;volatile
  1146  002698  0100               	movlb	0	; () banked
  1147  00269A  6FBA               	movwf	(_Width+2)& (0+255),b
  1148  00269C  6BBB               	clrf	(_Width+3)& (0+255),b
  1149                           
  1150                           ;main.c: 208:         Period = SMT1CPR;
  1151  00269E  013F               	movlb	63	; () banked
  1152  0026A0  5115               	movf	21,w,b	;volatile
  1153  0026A2  0100               	movlb	0	; () banked
  1154  0026A4  6F64               	movwf	_Period& (0+255),b
  1155  0026A6  013F               	movlb	63	; () banked
  1156  0026A8  5116               	movf	22,w,b	;volatile
  1157  0026AA  0100               	movlb	0	; () banked
  1158  0026AC  6F65               	movwf	(_Period+1)& (0+255),b
  1159  0026AE  013F               	movlb	63	; () banked
  1160  0026B0  5117               	movf	23,w,b	;volatile
  1161  0026B2  0100               	movlb	0	; () banked
  1162  0026B4  6F66               	movwf	(_Period+2)& (0+255),b
  1163  0026B6  6B67               	clrf	(_Period+3)& (0+255),b
  1164                           
  1165                           ;main.c: 209:         Timer = SMT1TMR;
  1166  0026B8  013F               	movlb	63	; () banked
  1167  0026BA  5112               	movf	18,w,b	;volatile
  1168  0026BC  0100               	movlb	0	; () banked
  1169  0026BE  6F60               	movwf	_Timer& (0+255),b
  1170  0026C0  013F               	movlb	63	; () banked
  1171  0026C2  5113               	movf	19,w,b	;volatile
  1172  0026C4  0100               	movlb	0	; () banked
  1173  0026C6  6F61               	movwf	(_Timer+1)& (0+255),b
  1174  0026C8  013F               	movlb	63	; () banked
  1175  0026CA  5114               	movf	20,w,b	;volatile
  1176  0026CC  0100               	movlb	0	; () banked
  1177  0026CE  6F62               	movwf	(_Timer+2)& (0+255),b
  1178  0026D0  6B63               	clrf	(_Timer+3)& (0+255),b
  1179  0026D2                     
  1180                           ; BSR set to: 0
  1181                           ;main.c: 212:         count = Counter;
  1182  0026D2  C07C  F07E         	movff	_Counter,_count
  1183  0026D6  C07D  F07F         	movff	_Counter+1,_count+1
  1184  0026DA                     
  1185                           ; BSR set to: 0
  1186                           ;main.c: 226:         lastState = state;
  1187  0026DA  0E00               	movlw	0
  1188  0026DC  6F81               	movwf	(_lastState+1)& (0+255),b
  1189  0026DE  0E00               	movlw	0
  1190  0026E0  6F80               	movwf	_lastState& (0+255),b
  1191                           
  1192                           ;main.c: 234:         switch (mody) {
  1193  0026E2  EF30  F014         	goto	l3678
  1194  0026E6                     l3670:
  1195                           
  1196                           ; BSR set to: 0
  1197  0026E6  0E00               	movlw	0
  1198  0026E8  6E2C               	movwf	___fladd@a^0,c
  1199  0026EA  0E00               	movlw	0
  1200  0026EC  6E2D               	movwf	(___fladd@a+1)^0,c
  1201  0026EE  0E70               	movlw	112
  1202  0026F0  6E2E               	movwf	(___fladd@a+2)^0,c
  1203  0026F2  0EC3               	movlw	195
  1204  0026F4  6E2F               	movwf	(___fladd@a+3)^0,c
  1205  0026F6  0E00               	movlw	0
  1206  0026F8  6E13               	movwf	___fldiv@a^0,c
  1207  0026FA  0E00               	movlw	0
  1208  0026FC  6E14               	movwf	(___fldiv@a+1)^0,c
  1209  0026FE  0E00               	movlw	0
  1210  002700  6E15               	movwf	(___fldiv@a+2)^0,c
  1211  002702  0E3F               	movlw	63
  1212  002704  6E16               	movwf	(___fldiv@a+3)^0,c
  1213  002706  C0B8  F001         	movff	_Width,___xxtofl@val
  1214  00270A  C0B9  F002         	movff	_Width+1,___xxtofl@val+1
  1215  00270E  C0BA  F003         	movff	_Width+2,___xxtofl@val+2
  1216  002712  C0BB  F004         	movff	_Width+3,___xxtofl@val+3
  1217  002716  0E00               	movlw	0
  1218  002718  EC4E  F019         	call	___xxtofl
  1219  00271C  C001  F00F         	movff	?___xxtofl,___fldiv@b
  1220  002720  C002  F010         	movff	?___xxtofl+1,___fldiv@b+1
  1221  002724  C003  F011         	movff	?___xxtofl+2,___fldiv@b+2
  1222  002728  C004  F012         	movff	?___xxtofl+3,___fldiv@b+3
  1223  00272C  EC05  F015         	call	___fldiv	;wreg free
  1224  002730  C00F  F028         	movff	?___fldiv,___fladd@b
  1225  002734  C010  F029         	movff	?___fldiv+1,___fladd@b+1
  1226  002738  C011  F02A         	movff	?___fldiv+2,___fladd@b+2
  1227  00273C  C012  F02B         	movff	?___fldiv+3,___fladd@b+3
  1228  002740  EC55  F010         	call	___fladd	;wreg free
  1229  002744  C028  F038         	movff	?___fladd,___fltol@f1
  1230  002748  C029  F039         	movff	?___fladd+1,___fltol@f1+1
  1231  00274C  C02A  F03A         	movff	?___fladd+2,___fltol@f1+2
  1232  002750  C02B  F03B         	movff	?___fladd+3,___fltol@f1+3
  1233  002754  EC9E  F01B         	call	___fltol	;wreg free
  1234  002758  C038  F086         	movff	?___fltol,_ip_pulse
  1235  00275C  C039  F087         	movff	?___fltol+1,_ip_pulse+1
  1236                           
  1237                           ;main.c: 236:                 break;
  1238  002760  EF51  F014         	goto	l3684
  1239  002764                     l3672:
  1240                           
  1241                           ; BSR set to: 0
  1242  002764  0E00               	movlw	0
  1243  002766  6E2C               	movwf	___fladd@a^0,c
  1244  002768  0E00               	movlw	0
  1245  00276A  6E2D               	movwf	(___fladd@a+1)^0,c
  1246  00276C  0E70               	movlw	112
  1247  00276E  6E2E               	movwf	(___fladd@a+2)^0,c
  1248  002770  0EC3               	movlw	195
  1249  002772  6E2F               	movwf	(___fladd@a+3)^0,c
  1250  002774  0E00               	movlw	0
  1251  002776  6E13               	movwf	___fldiv@a^0,c
  1252  002778  0E00               	movlw	0
  1253  00277A  6E14               	movwf	(___fldiv@a+1)^0,c
  1254  00277C  0E00               	movlw	0
  1255  00277E  6E15               	movwf	(___fldiv@a+2)^0,c
  1256  002780  0E3F               	movlw	63
  1257  002782  6E16               	movwf	(___fldiv@a+3)^0,c
  1258  002784  C0B8  F001         	movff	_Width,___xxtofl@val
  1259  002788  C0B9  F002         	movff	_Width+1,___xxtofl@val+1
  1260  00278C  C0BA  F003         	movff	_Width+2,___xxtofl@val+2
  1261  002790  C0BB  F004         	movff	_Width+3,___xxtofl@val+3
  1262  002794  0E00               	movlw	0
  1263  002796  EC4E  F019         	call	___xxtofl
  1264  00279A  C001  F00F         	movff	?___xxtofl,___fldiv@b
  1265  00279E  C002  F010         	movff	?___xxtofl+1,___fldiv@b+1
  1266  0027A2  C003  F011         	movff	?___xxtofl+2,___fldiv@b+2
  1267  0027A6  C004  F012         	movff	?___xxtofl+3,___fldiv@b+3
  1268  0027AA  EC05  F015         	call	___fldiv	;wreg free
  1269  0027AE  C00F  F028         	movff	?___fldiv,___fladd@b
  1270  0027B2  C010  F029         	movff	?___fldiv+1,___fladd@b+1
  1271  0027B6  C011  F02A         	movff	?___fldiv+2,___fladd@b+2
  1272  0027BA  C012  F02B         	movff	?___fldiv+3,___fladd@b+3
  1273  0027BE  EC55  F010         	call	___fladd	;wreg free
  1274  0027C2  C028  F038         	movff	?___fladd,___fltol@f1
  1275  0027C6  C029  F039         	movff	?___fladd+1,___fltol@f1+1
  1276  0027CA  C02A  F03A         	movff	?___fladd+2,___fltol@f1+2
  1277  0027CE  C02B  F03B         	movff	?___fladd+3,___fltol@f1+3
  1278  0027D2  EC9E  F01B         	call	___fltol	;wreg free
  1279  0027D6  C038  F086         	movff	?___fltol,_ip_pulse
  1280  0027DA  C039  F087         	movff	?___fltol+1,_ip_pulse+1
  1281                           
  1282                           ;main.c: 238:                 break;
  1283  0027DE  EF51  F014         	goto	l3684
  1284  0027E2                     l3674:
  1285                           
  1286                           ; BSR set to: 0
  1287  0027E2  0E00               	movlw	0
  1288  0027E4  6E2C               	movwf	___fladd@a^0,c
  1289  0027E6  0E00               	movlw	0
  1290  0027E8  6E2D               	movwf	(___fladd@a+1)^0,c
  1291  0027EA  0E70               	movlw	112
  1292  0027EC  6E2E               	movwf	(___fladd@a+2)^0,c
  1293  0027EE  0EC3               	movlw	195
  1294  0027F0  6E2F               	movwf	(___fladd@a+3)^0,c
  1295  0027F2  0E00               	movlw	0
  1296  0027F4  6E13               	movwf	___fldiv@a^0,c
  1297  0027F6  0E00               	movlw	0
  1298  0027F8  6E14               	movwf	(___fldiv@a+1)^0,c
  1299  0027FA  0E00               	movlw	0
  1300  0027FC  6E15               	movwf	(___fldiv@a+2)^0,c
  1301  0027FE  0E3F               	movlw	63
  1302  002800  6E16               	movwf	(___fldiv@a+3)^0,c
  1303  002802  C0B8  F001         	movff	_Width,___xxtofl@val
  1304  002806  C0B9  F002         	movff	_Width+1,___xxtofl@val+1
  1305  00280A  C0BA  F003         	movff	_Width+2,___xxtofl@val+2
  1306  00280E  C0BB  F004         	movff	_Width+3,___xxtofl@val+3
  1307  002812  0E00               	movlw	0
  1308  002814  EC4E  F019         	call	___xxtofl
  1309  002818  C001  F00F         	movff	?___xxtofl,___fldiv@b
  1310  00281C  C002  F010         	movff	?___xxtofl+1,___fldiv@b+1
  1311  002820  C003  F011         	movff	?___xxtofl+2,___fldiv@b+2
  1312  002824  C004  F012         	movff	?___xxtofl+3,___fldiv@b+3
  1313  002828  EC05  F015         	call	___fldiv	;wreg free
  1314  00282C  C00F  F028         	movff	?___fldiv,___fladd@b
  1315  002830  C010  F029         	movff	?___fldiv+1,___fladd@b+1
  1316  002834  C011  F02A         	movff	?___fldiv+2,___fladd@b+2
  1317  002838  C012  F02B         	movff	?___fldiv+3,___fladd@b+3
  1318  00283C  EC55  F010         	call	___fladd	;wreg free
  1319  002840  C028  F038         	movff	?___fladd,___fltol@f1
  1320  002844  C029  F039         	movff	?___fladd+1,___fltol@f1+1
  1321  002848  C02A  F03A         	movff	?___fladd+2,___fltol@f1+2
  1322  00284C  C02B  F03B         	movff	?___fladd+3,___fltol@f1+3
  1323  002850  EC9E  F01B         	call	___fltol	;wreg free
  1324  002854  C038  F086         	movff	?___fltol,_ip_pulse
  1325  002858  C039  F087         	movff	?___fltol+1,_ip_pulse+1
  1326                           
  1327                           ;main.c: 241:                 break;
  1328  00285C  EF51  F014         	goto	l3684
  1329  002860                     l3678:
  1330                           
  1331                           ; BSR set to: 0
  1332  002860  C08A  F05C         	movff	_mody,??_main
  1333  002864  C08B  F05D         	movff	_mody+1,??_main+1
  1334                           
  1335                           ; Switch on 2 bytes has been partitioned into a top level switch of size 1, and 1 sub-sw
      +                          itches
  1336                           ; Switch size 1, requested type "simple"
  1337                           ; Number of cases is 1, Range of values is 0 to 0
  1338                           ; switch strategies available:
  1339                           ; Name         Instructions Cycles
  1340                           ; simple_byte            4     3 (average)
  1341                           ;	Chosen strategy is simple_byte
  1342  002868  505D               	movf	(??_main+1)^0,w,c
  1343  00286A  0A00               	xorlw	0	; case 0
  1344  00286C  B4D8               	btfsc	status,2,c
  1345  00286E  EF3B  F014         	goto	l3838
  1346  002872  EF51  F014         	goto	l3684
  1347  002876                     l3838:
  1348                           
  1349                           ; BSR set to: 0
  1350                           ; Switch size 1, requested type "simple"
  1351                           ; Number of cases is 3, Range of values is 0 to 2
  1352                           ; switch strategies available:
  1353                           ; Name         Instructions Cycles
  1354                           ; simple_byte           10     6 (average)
  1355                           ;	Chosen strategy is simple_byte
  1356  002876  505C               	movf	??_main^0,w,c
  1357  002878  0A00               	xorlw	0	; case 0
  1358  00287A  B4D8               	btfsc	status,2,c
  1359  00287C  EF73  F013         	goto	l3670
  1360  002880  0A01               	xorlw	1	; case 1
  1361  002882  B4D8               	btfsc	status,2,c
  1362  002884  EFB2  F013         	goto	l3672
  1363  002888  0A03               	xorlw	3	; case 2
  1364  00288A  B4D8               	btfsc	status,2,c
  1365  00288C  EFF1  F013         	goto	l3674
  1366  002890  EF51  F014         	goto	l3684
  1367  002894                     l3680:
  1368  002894  0E00               	movlw	0
  1369  002896  0100               	movlb	0	; () banked
  1370  002898  6F7F               	movwf	(_count+1)& (0+255),b
  1371  00289A  0E32               	movlw	50
  1372  00289C  6F7E               	movwf	_count& (0+255),b
  1373                           
  1374                           ;main.c: 249:                 break;
  1375  00289E  EF80  F014         	goto	l3694
  1376  0028A2                     l3684:
  1377  0028A2  C08A  F05C         	movff	_mody,??_main
  1378  0028A6  C08B  F05D         	movff	_mody+1,??_main+1
  1379                           
  1380                           ; Switch on 2 bytes has been partitioned into a top level switch of size 1, and 1 sub-sw
      +                          itches
  1381                           ; Switch size 1, requested type "simple"
  1382                           ; Number of cases is 1, Range of values is 0 to 0
  1383                           ; switch strategies available:
  1384                           ; Name         Instructions Cycles
  1385                           ; simple_byte            4     3 (average)
  1386                           ;	Chosen strategy is simple_byte
  1387  0028AA  505D               	movf	(??_main+1)^0,w,c
  1388  0028AC  0A00               	xorlw	0	; case 0
  1389  0028AE  B4D8               	btfsc	status,2,c
  1390  0028B0  EF5C  F014         	goto	l3840
  1391  0028B4  EF80  F014         	goto	l3694
  1392  0028B8                     l3840:
  1393                           
  1394                           ; Switch size 1, requested type "simple"
  1395                           ; Number of cases is 3, Range of values is 0 to 2
  1396                           ; switch strategies available:
  1397                           ; Name         Instructions Cycles
  1398                           ; simple_byte           10     6 (average)
  1399                           ;	Chosen strategy is simple_byte
  1400  0028B8  505C               	movf	??_main^0,w,c
  1401  0028BA  0A00               	xorlw	0	; case 0
  1402  0028BC  B4D8               	btfsc	status,2,c
  1403  0028BE  EF80  F014         	goto	l3694
  1404  0028C2  0A01               	xorlw	1	; case 1
  1405  0028C4  B4D8               	btfsc	status,2,c
  1406  0028C6  EF4A  F014         	goto	l3680
  1407  0028CA  0A03               	xorlw	3	; case 2
  1408  0028CC  B4D8               	btfsc	status,2,c
  1409  0028CE  EF80  F014         	goto	l3694
  1410  0028D2  EF80  F014         	goto	l3694
  1411  0028D6                     l3686:
  1412  0028D6  0E00               	movlw	0
  1413  0028D8  0100               	movlb	0	; () banked
  1414  0028DA  6F89               	movwf	(_band+1)& (0+255),b
  1415  0028DC  0E05               	movlw	5
  1416  0028DE  6F88               	movwf	_band& (0+255),b
  1417                           
  1418                           ;main.c: 257:                 break;
  1419  0028E0  EF9A  F014         	goto	l3696
  1420  0028E4                     l3688:
  1421  0028E4  0E00               	movlw	0
  1422  0028E6  0100               	movlb	0	; () banked
  1423  0028E8  6F89               	movwf	(_band+1)& (0+255),b
  1424  0028EA  0E14               	movlw	20
  1425  0028EC  6F88               	movwf	_band& (0+255),b
  1426                           
  1427                           ;main.c: 259:                 break;
  1428  0028EE  EF9A  F014         	goto	l3696
  1429  0028F2                     l3690:
  1430  0028F2  0E00               	movlw	0
  1431  0028F4  0100               	movlb	0	; () banked
  1432  0028F6  6F89               	movwf	(_band+1)& (0+255),b
  1433  0028F8  0E02               	movlw	2
  1434  0028FA  6F88               	movwf	_band& (0+255),b
  1435                           
  1436                           ;main.c: 261:                 break;
  1437  0028FC  EF9A  F014         	goto	l3696
  1438  002900                     l3694:
  1439  002900  C08A  F05C         	movff	_mody,??_main
  1440  002904  C08B  F05D         	movff	_mody+1,??_main+1
  1441                           
  1442                           ; Switch on 2 bytes has been partitioned into a top level switch of size 1, and 1 sub-sw
      +                          itches
  1443                           ; Switch size 1, requested type "simple"
  1444                           ; Number of cases is 1, Range of values is 0 to 0
  1445                           ; switch strategies available:
  1446                           ; Name         Instructions Cycles
  1447                           ; simple_byte            4     3 (average)
  1448                           ;	Chosen strategy is simple_byte
  1449  002908  505D               	movf	(??_main+1)^0,w,c
  1450  00290A  0A00               	xorlw	0	; case 0
  1451  00290C  B4D8               	btfsc	status,2,c
  1452  00290E  EF8B  F014         	goto	l3842
  1453  002912  EF9A  F014         	goto	l3696
  1454  002916                     l3842:
  1455                           
  1456                           ; Switch size 1, requested type "simple"
  1457                           ; Number of cases is 3, Range of values is 0 to 2
  1458                           ; switch strategies available:
  1459                           ; Name         Instructions Cycles
  1460                           ; simple_byte           10     6 (average)
  1461                           ;	Chosen strategy is simple_byte
  1462  002916  505C               	movf	??_main^0,w,c
  1463  002918  0A00               	xorlw	0	; case 0
  1464  00291A  B4D8               	btfsc	status,2,c
  1465  00291C  EF6B  F014         	goto	l3686
  1466  002920  0A01               	xorlw	1	; case 1
  1467  002922  B4D8               	btfsc	status,2,c
  1468  002924  EF72  F014         	goto	l3688
  1469  002928  0A03               	xorlw	3	; case 2
  1470  00292A  B4D8               	btfsc	status,2,c
  1471  00292C  EF79  F014         	goto	l3690
  1472  002930  EF9A  F014         	goto	l3696
  1473  002934                     l3696:
  1474                           
  1475                           ;main.c: 264:         errsig = count - ip_pulse;
  1476  002934  0100               	movlb	0	; () banked
  1477  002936  5186               	movf	_ip_pulse& (0+255),w,b
  1478  002938  5D7E               	subwf	_count& (0+255),w,b
  1479  00293A  6F84               	movwf	_errsig& (0+255),b
  1480  00293C  5187               	movf	(_ip_pulse+1)& (0+255),w,b
  1481  00293E  597F               	subwfb	(_count+1)& (0+255),w,b
  1482  002940  6F85               	movwf	(_errsig+1)& (0+255),b
  1483                           
  1484                           ;main.c: 268:         if (errsig < 0) {
  1485  002942  BF85               	btfsc	(_errsig+1)& (0+255),7,b
  1486  002944  EFA8  F014         	goto	u2890
  1487  002948  EFA6  F014         	goto	u2891
  1488  00294C                     u2891:
  1489  00294C  EFAC  F014         	goto	l3700
  1490  002950                     u2890:
  1491  002950                     
  1492                           ; BSR set to: 0
  1493                           ;main.c: 269:             LATAbits.LATA0 = 0;
  1494  002950  90BA               	bcf	186,0,c	;volatile
  1495                           
  1496                           ;main.c: 270:             LATAbits.LATA1 = 1;
  1497  002952  82BA               	bsf	186,1,c	;volatile
  1498                           
  1499                           ;main.c: 271:             LATAbits.LATA2 = 1;
  1500  002954  84BA               	bsf	186,2,c	;volatile
  1501                           
  1502                           ;main.c: 272:             LATEbits.LATE2 = 1;
  1503  002956  84BE               	bsf	190,2,c	;volatile
  1504  002958                     l3700:
  1505                           
  1506                           ; BSR set to: 0
  1507                           ;main.c: 276:         if ((errsig < band) && (errsig > -band))
  1508  002958  5188               	movf	_band& (0+255),w,b
  1509  00295A  5D84               	subwf	_errsig& (0+255),w,b
  1510  00295C  5185               	movf	(_errsig+1)& (0+255),w,b
  1511  00295E  0A80               	xorlw	128
  1512  002960  6E5C               	movwf	??_main^0,c
  1513  002962  5189               	movf	(_band+1)& (0+255),w,b
  1514  002964  0A80               	xorlw	128
  1515  002966  585C               	subwfb	??_main^0,w,c
  1516  002968  B0D8               	btfsc	status,0,c
  1517  00296A  EFB9  F014         	goto	u2901
  1518  00296E  EFBB  F014         	goto	u2900
  1519  002972                     u2901:
  1520  002972  EFD6  F014         	goto	l3706
  1521  002976                     u2900:
  1522  002976                     
  1523                           ; BSR set to: 0
  1524  002976  C088  F05C         	movff	_band,??_main
  1525  00297A  C089  F05D         	movff	_band+1,??_main+1
  1526  00297E  1E5C               	comf	??_main^0,f,c
  1527  002980  1E5D               	comf	(??_main+1)^0,f,c
  1528  002982  4A5C               	infsnz	??_main^0,f,c
  1529  002984  2A5D               	incf	(??_main+1)^0,f,c
  1530  002986  5184               	movf	_errsig& (0+255),w,b
  1531  002988  5C5C               	subwf	??_main^0,w,c
  1532  00298A  505D               	movf	(??_main+1)^0,w,c
  1533  00298C  0A80               	xorlw	128
  1534  00298E  6E5E               	movwf	(??_main+2)^0,c
  1535  002990  5185               	movf	(_errsig+1)& (0+255),w,b
  1536  002992  0A80               	xorlw	128
  1537  002994  585E               	subwfb	(??_main+2)^0,w,c
  1538  002996  B0D8               	btfsc	status,0,c
  1539  002998  EFD0  F014         	goto	u2911
  1540  00299C  EFD2  F014         	goto	u2910
  1541  0029A0                     u2911:
  1542  0029A0  EFD6  F014         	goto	l3706
  1543  0029A4                     u2910:
  1544  0029A4                     
  1545                           ; BSR set to: 0
  1546                           ;main.c: 277:         {;main.c: 278:             LATAbits.LATA0 = 1;
  1547  0029A4  80BA               	bsf	186,0,c	;volatile
  1548                           
  1549                           ;main.c: 279:             LATAbits.LATA1 = 0;
  1550  0029A6  92BA               	bcf	186,1,c	;volatile
  1551                           
  1552                           ;main.c: 280:             LATAbits.LATA2 = 0;
  1553  0029A8  94BA               	bcf	186,2,c	;volatile
  1554                           
  1555                           ;main.c: 281:             LATEbits.LATE2 = 0;
  1556  0029AA  94BE               	bcf	190,2,c	;volatile
  1557  0029AC                     l3706:
  1558                           
  1559                           ; BSR set to: 0
  1560                           ;main.c: 284:         if (errsig > 0) {
  1561  0029AC  BF85               	btfsc	(_errsig+1)& (0+255),7,b
  1562  0029AE  EFE1  F014         	goto	u2921
  1563  0029B2  5185               	movf	(_errsig+1)& (0+255),w,b
  1564  0029B4  E108               	bnz	u2920
  1565  0029B6  0584               	decf	_errsig& (0+255),w,b
  1566  0029B8  A0D8               	btfss	status,0,c
  1567  0029BA  EFE1  F014         	goto	u2921
  1568  0029BE  EFE3  F014         	goto	u2920
  1569  0029C2                     u2921:
  1570  0029C2  EFE7  F014         	goto	l3710
  1571  0029C6                     u2920:
  1572  0029C6                     
  1573                           ; BSR set to: 0
  1574                           ;main.c: 285:             LATAbits.LATA0 = 1;
  1575  0029C6  80BA               	bsf	186,0,c	;volatile
  1576                           
  1577                           ;main.c: 286:             LATAbits.LATA1 = 0;
  1578  0029C8  92BA               	bcf	186,1,c	;volatile
  1579                           
  1580                           ;main.c: 287:             LATAbits.LATA2 = 1;
  1581  0029CA  84BA               	bsf	186,2,c	;volatile
  1582                           
  1583                           ;main.c: 288:             LATEbits.LATE2 = 0;
  1584  0029CC  94BE               	bcf	190,2,c	;volatile
  1585  0029CE                     l3710:
  1586                           
  1587                           ; BSR set to: 0
  1588                           ;main.c: 363:         printf("Input pulse = %d Hall counter = %d Error signal= %d \r\n",
      +                           ip_pulse, count, errsig);
  1589  0029CE  0E3F               	movlw	low STR_4
  1590  0029D0  6FC0               	movwf	printf@fmt& (0+255),b
  1591  0029D2  0E20               	movlw	high STR_4
  1592  0029D4  6FC1               	movwf	(printf@fmt+1)& (0+255),b
  1593  0029D6  C086  F0C2         	movff	_ip_pulse,?_printf+2
  1594  0029DA  C087  F0C3         	movff	_ip_pulse+1,?_printf+3
  1595  0029DE  C07E  F0C4         	movff	_count,?_printf+4
  1596  0029E2  C07F  F0C5         	movff	_count+1,?_printf+5
  1597  0029E6  C084  F0C6         	movff	_errsig,?_printf+6
  1598  0029EA  C085  F0C7         	movff	_errsig+1,?_printf+7
  1599  0029EE  EC7B  F01E         	call	_printf	;wreg free
  1600  0029F2                     
  1601                           ;main.c: 364:         _delay((unsigned long)((200)*(500000/4000.0)));
  1602  0029F2  0E21               	movlw	33
  1603  0029F4  6E5C               	movwf	??_main^0,c
  1604  0029F6  0E76               	movlw	118
  1605  0029F8                     u2967:
  1606  0029F8  2EE8               	decfsz	wreg,f,c
  1607  0029FA  D7FE               	bra	u2967
  1608  0029FC  2E5C               	decfsz	??_main^0,f,c
  1609  0029FE  D7FC               	bra	u2967
  1610  002A00  D000               	nop2	
  1611  002A02  EF42  F013         	goto	l3658
  1612  002A06  EF0D  F000         	goto	start
  1613  002A0A                     __end_of_main:
  1614                           	callstack 0
  1615                           
  1616 ;; *************** function _printf *****************
  1617 ;; Defined at:
  1618 ;;		line 5 in file "C:\Program Files\Microchip\xc8\v2.32\pic\sources\c99\common\printf.c"
  1619 ;; Parameters:    Size  Location     Type
  1620 ;;  fmt             2    0[BANK0 ] PTR const unsigned char 
  1621 ;;		 -> STR_4(55), STR_3(51), STR_2(62), STR_1(4), 
  1622 ;; Auto vars:     Size  Location     Type
  1623 ;;  ap              2   89[COMRAM] PTR void [1]
  1624 ;;		 -> ?_printf(2), 
  1625 ;;  ret             2    0        int 
  1626 ;; Return value:  Size  Location     Type
  1627 ;;                  2    0[BANK0 ] int 
  1628 ;; Registers used:
  1629 ;;		wreg, fsr1l, fsr1h, fsr2l, fsr2h, status,2, status,0, tblptrl, tblptrh, tblptru, cstack
  1630 ;; Tracked objects:
  1631 ;;		On entry : 0/0
  1632 ;;		On exit  : 0/0
  1633 ;;		Unchanged: 0/0
  1634 ;; Data sizes:     COMRAM   BANK0   BANK1   BANK2   BANK3   BANK4   BANK5   BANK6   BANK7   BANK8   BANK9  BANK10  BANK1
      +1  BANK12  BANK13  BANK14  BANK15  BANK16  BANK17  BANK18  BANK19  BANK20  BANK21  BANK22  BANK23  BANK24  BANK25  BANK2
      +6  BANK27  BANK28  BANK29  BANK30  BANK31
  1635 ;;      Params:         0       8       0       0       0       0       0       0       0       0       0       0       
      +0       0       0       0       0       0       0       0       0       0       0       0       0       0       0       
      +0       0       0       0       0       0
  1636 ;;      Locals:         2       0       0       0       0       0       0       0       0       0       0       0       
      +0       0       0       0       0       0       0       0       0       0       0       0       0       0       0       
      +0       0       0       0       0       0
  1637 ;;      Temps:          0       0       0       0       0       0       0       0       0       0       0       0       
      +0       0       0       0       0       0       0       0       0       0       0       0       0       0       0       
      +0       0       0       0       0       0
  1638 ;;      Totals:         2       8       0       0       0       0       0       0       0       0       0       0       
      +0       0       0       0       0       0       0       0       0       0       0       0       0       0       0       
      +0       0       0       0       0       0
  1639 ;;Total ram usage:       10 bytes
  1640 ;; Hardware stack levels used: 1
  1641 ;; Hardware stack levels required when called: 12
  1642 ;; This function calls:
  1643 ;;		_vfprintf
  1644 ;; This function is called by:
  1645 ;;		_main
  1646 ;; This function uses a non-reentrant model
  1647 ;;
  1648                           
  1649                           	psect	text1
  1650  003CF6                     __ptext1:
  1651                           	callstack 0
  1652  003CF6                     _printf:
  1653                           	callstack 18
  1654  003CF6  0EC2               	movlw	low (?_printf+2)
  1655  003CF8  6E5A               	movwf	printf@ap^0,c
  1656  003CFA  0E00               	movlw	high (?_printf+2)
  1657  003CFC  6E5B               	movwf	(printf@ap+1)^0,c
  1658  003CFE  0E00               	movlw	0
  1659  003D00  6E52               	movwf	vfprintf@fp^0,c
  1660  003D02  0E00               	movlw	0
  1661  003D04  6E53               	movwf	(vfprintf@fp+1)^0,c
  1662  003D06  C0C0  F054         	movff	printf@fmt,vfprintf@fmt
  1663  003D0A  C0C1  F055         	movff	printf@fmt+1,vfprintf@fmt+1
  1664  003D0E  0E5A               	movlw	low printf@ap
  1665  003D10  6E56               	movwf	vfprintf@ap^0,c
  1666  003D12  0E00               	movlw	high printf@ap
  1667  003D14  6E57               	movwf	(vfprintf@ap+1)^0,c
  1668  003D16  EC94  F01D         	call	_vfprintf	;wreg free
  1669  003D1A  0012               	return		;funcret
  1670  003D1C                     __end_of_printf:
  1671                           	callstack 0
  1672                           
  1673 ;; *************** function _vfprintf *****************
  1674 ;; Defined at:
  1675 ;;		line 1390 in file "C:\Program Files\Microchip\xc8\v2.32\pic\sources\c99\common\doprnt.c"
  1676 ;; Parameters:    Size  Location     Type
  1677 ;;  fp              2   81[COMRAM] PTR struct _IO_FILE
  1678 ;;		 -> NULL(0), 
  1679 ;;  fmt             2   83[COMRAM] PTR const unsigned char 
  1680 ;;		 -> STR_4(55), STR_3(51), STR_2(62), STR_1(4), 
  1681 ;;  ap              2   85[COMRAM] PTR PTR void 
  1682 ;;		 -> printf@ap(2), 
  1683 ;; Auto vars:     Size  Location     Type
  1684 ;;  cfmt            2   87[COMRAM] PTR unsigned char 
  1685 ;;		 -> STR_4(55), STR_3(51), STR_2(62), STR_1(4), 
  1686 ;; Return value:  Size  Location     Type
  1687 ;;                  2   81[COMRAM] int 
  1688 ;; Registers used:
  1689 ;;		wreg, fsr1l, fsr1h, fsr2l, fsr2h, status,2, status,0, tblptrl, tblptrh, tblptru, cstack
  1690 ;; Tracked objects:
  1691 ;;		On entry : 0/0
  1692 ;;		On exit  : 0/0
  1693 ;;		Unchanged: 0/0
  1694 ;; Data sizes:     COMRAM   BANK0   BANK1   BANK2   BANK3   BANK4   BANK5   BANK6   BANK7   BANK8   BANK9  BANK10  BANK1
      +1  BANK12  BANK13  BANK14  BANK15  BANK16  BANK17  BANK18  BANK19  BANK20  BANK21  BANK22  BANK23  BANK24  BANK25  BANK2
      +6  BANK27  BANK28  BANK29  BANK30  BANK31
  1695 ;;      Params:         6       0       0       0       0       0       0       0       0       0       0       0       
      +0       0       0       0       0       0       0       0       0       0       0       0       0       0       0       
      +0       0       0       0       0       0
  1696 ;;      Locals:         2       0       0       0       0       0       0       0       0       0       0       0       
      +0       0       0       0       0       0       0       0       0       0       0       0       0       0       0       
      +0       0       0       0       0       0
  1697 ;;      Temps:          0       0       0       0       0       0       0       0       0       0       0       0       
      +0       0       0       0       0       0       0       0       0       0       0       0       0       0       0       
      +0       0       0       0       0       0
  1698 ;;      Totals:         8       0       0       0       0       0       0       0       0       0       0       0       
      +0       0       0       0       0       0       0       0       0       0       0       0       0       0       0       
      +0       0       0       0       0       0
  1699 ;;Total ram usage:        8 bytes
  1700 ;; Hardware stack levels used: 1
  1701 ;; Hardware stack levels required when called: 11
  1702 ;; This function calls:
  1703 ;;		_vfpfcnvrt
  1704 ;; This function is called by:
  1705 ;;		_printf
  1706 ;; This function uses a non-reentrant model
  1707 ;;
  1708                           
  1709                           	psect	text2
  1710  003B28                     __ptext2:
  1711                           	callstack 0
  1712  003B28                     _vfprintf:
  1713                           	callstack 18
  1714  003B28                     
  1715                           ;C:\Program Files\Microchip\xc8\v2.32\pic\sources\c99\common\doprnt.c: 1390: int vfprint
      +                          f(FILE *fp, const char *fmt, va_list ap);C:\Program Files\Microchip\xc8\v2.32\pic\source
      +                          s\c99\common\doprnt.c: 1391: {;C:\Program Files\Microchip\xc8\v2.32\pic\sources\c99\comm
      +                          on\doprnt.c: 1393:     char *cfmt;;C:\Program Files\Microchip\xc8\v2.32\pic\sources\c99\
      +                          common\doprnt.c: 1395:     cfmt = (char *)fmt;
  1716  003B28  C054  F058         	movff	vfprintf@fmt,vfprintf@cfmt
  1717  003B2C  C055  F059         	movff	vfprintf@fmt+1,vfprintf@cfmt+1
  1718  003B30                     
  1719                           ;C:\Program Files\Microchip\xc8\v2.32\pic\sources\c99\common\doprnt.c: 1396:     nout = 
      +                          0;
  1720  003B30  0E00               	movlw	0
  1721  003B32  0100               	movlb	0	; () banked
  1722  003B34  6F75               	movwf	(_nout+1)& (0+255),b
  1723  003B36  0E00               	movlw	0
  1724  003B38  6F74               	movwf	_nout& (0+255),b
  1725                           
  1726                           ;C:\Program Files\Microchip\xc8\v2.32\pic\sources\c99\common\doprnt.c: 1397:     while (
      +                          *cfmt) {
  1727  003B3A  EFB2  F01D         	goto	l3116
  1728  003B3E                     l3114:
  1729                           
  1730                           ; BSR set to: 0
  1731                           ;C:\Program Files\Microchip\xc8\v2.32\pic\sources\c99\common\doprnt.c: 1398:         nou
      +                          t += vfpfcnvrt(fp, &cfmt, ap);
  1732  003B3E  C052  F042         	movff	vfprintf@fp,vfpfcnvrt@fp
  1733  003B42  C053  F043         	movff	vfprintf@fp+1,vfpfcnvrt@fp+1
  1734  003B46  0E58               	movlw	low vfprintf@cfmt
  1735  003B48  6E44               	movwf	vfpfcnvrt@fmt^0,c
  1736  003B4A  0E00               	movlw	high vfprintf@cfmt
  1737  003B4C  6E45               	movwf	(vfpfcnvrt@fmt+1)^0,c
  1738  003B4E  C056  F046         	movff	vfprintf@ap,vfpfcnvrt@ap
  1739  003B52  C057  F047         	movff	vfprintf@ap+1,vfpfcnvrt@ap+1
  1740  003B56  EC44  F018         	call	_vfpfcnvrt	;wreg free
  1741  003B5A  5042               	movf	?_vfpfcnvrt^0,w,c
  1742  003B5C  0100               	movlb	0	; () banked
  1743  003B5E  2774               	addwf	_nout& (0+255),f,b
  1744  003B60  5043               	movf	(?_vfpfcnvrt+1)^0,w,c
  1745  003B62  2375               	addwfc	(_nout+1)& (0+255),f,b
  1746  003B64                     l3116:
  1747                           
  1748                           ; BSR set to: 0
  1749                           ;C:\Program Files\Microchip\xc8\v2.32\pic\sources\c99\common\doprnt.c: 1397:     while (
      +                          *cfmt) {
  1750  003B64  0060  F163  FFF6   	movff	vfprintf@cfmt,tblptrl
  1751  003B6A  0060  F167  FFF7   	movff	vfprintf@cfmt+1,tblptrh
  1752  003B70                     	if	0	;tblptru may be non-zero
  1753  003B70                     	endif
  1754  003B70                     	if	1	;Program memory is > 0xFFFF, there are 3 active tblptr bytes
  1755  003B70  0E00               	movlw	low (__mediumconst shr (0+16))
  1756  003B72  6EF8               	movwf	tblptru,c
  1757  003B74                     	endif
  1758  003B74  0008               	tblrd		*
  1759  003B76  50F5               	movf	tablat,w,c
  1760  003B78  0900               	iorlw	0
  1761  003B7A  A4D8               	btfss	status,2,c
  1762  003B7C  EFC2  F01D         	goto	u1961
  1763  003B80  EFC4  F01D         	goto	u1960
  1764  003B84                     u1961:
  1765  003B84  EF9F  F01D         	goto	l3114
  1766  003B88                     u1960:
  1767  003B88                     
  1768                           ; BSR set to: 0
  1769                           ;C:\Program Files\Microchip\xc8\v2.32\pic\sources\c99\common\doprnt.c: 1400:     return 
      +                          nout;
  1770  003B88  C074  F052         	movff	_nout,?_vfprintf
  1771  003B8C  C075  F053         	movff	_nout+1,?_vfprintf+1
  1772  003B90                     
  1773                           ; BSR set to: 0
  1774  003B90  0012               	return		;funcret
  1775  003B92                     __end_of_vfprintf:
  1776                           	callstack 0
  1777                           
  1778 ;; *************** function _vfpfcnvrt *****************
  1779 ;; Defined at:
  1780 ;;		line 692 in file "C:\Program Files\Microchip\xc8\v2.32\pic\sources\c99\common\doprnt.c"
  1781 ;; Parameters:    Size  Location     Type
  1782 ;;  fp              2   65[COMRAM] PTR struct _IO_FILE
  1783 ;;		 -> NULL(0), 
  1784 ;;  fmt             2   67[COMRAM] PTR PTR unsigned char 
  1785 ;;		 -> vfprintf@cfmt(2), 
  1786 ;;  ap              2   69[COMRAM] PTR PTR void 
  1787 ;;		 -> printf@ap(2), 
  1788 ;; Auto vars:     Size  Location     Type
  1789 ;;  ll              8   73[COMRAM] long long 
  1790 ;;  llu             8    0        unsigned long long 
  1791 ;;  f               4    0        unsigned long long 
  1792 ;;  vp              3    0        PTR void 
  1793 ;;  ct              3    0        unsigned char [3]
  1794 ;;  cp              3    0        PTR unsigned char 
  1795 ;;  i               2    0        int 
  1796 ;;  done            2    0        int 
  1797 ;;  c               1    0        unsigned char 
  1798 ;; Return value:  Size  Location     Type
  1799 ;;                  2   65[COMRAM] int 
  1800 ;; Registers used:
  1801 ;;		wreg, fsr1l, fsr1h, fsr2l, fsr2h, status,2, status,0, tblptrl, tblptrh, tblptru, cstack
  1802 ;; Tracked objects:
  1803 ;;		On entry : 0/0
  1804 ;;		On exit  : 0/0
  1805 ;;		Unchanged: 0/0
  1806 ;; Data sizes:     COMRAM   BANK0   BANK1   BANK2   BANK3   BANK4   BANK5   BANK6   BANK7   BANK8   BANK9  BANK10  BANK1
      +1  BANK12  BANK13  BANK14  BANK15  BANK16  BANK17  BANK18  BANK19  BANK20  BANK21  BANK22  BANK23  BANK24  BANK25  BANK2
      +6  BANK27  BANK28  BANK29  BANK30  BANK31
  1807 ;;      Params:         6       0       0       0       0       0       0       0       0       0       0       0       
      +0       0       0       0       0       0       0       0       0       0       0       0       0       0       0       
      +0       0       0       0       0       0
  1808 ;;      Locals:         8       0       0       0       0       0       0       0       0       0       0       0       
      +0       0       0       0       0       0       0       0       0       0       0       0       0       0       0       
      +0       0       0       0       0       0
  1809 ;;      Temps:          2       0       0       0       0       0       0       0       0       0       0       0       
      +0       0       0       0       0       0       0       0       0       0       0       0       0       0       0       
      +0       0       0       0       0       0
  1810 ;;      Totals:        16       0       0       0       0       0       0       0       0       0       0       0       
      +0       0       0       0       0       0       0       0       0       0       0       0       0       0       0       
      +0       0       0       0       0       0
  1811 ;;Total ram usage:       16 bytes
  1812 ;; Hardware stack levels used: 1
  1813 ;; Hardware stack levels required when called: 10
  1814 ;; This function calls:
  1815 ;;		_dtoa
  1816 ;;		_fputc
  1817 ;; This function is called by:
  1818 ;;		_vfprintf
  1819 ;; This function uses a non-reentrant model
  1820 ;;
  1821                           
  1822                           	psect	text3
  1823  003088                     __ptext3:
  1824                           	callstack 0
  1825  003088                     _vfpfcnvrt:
  1826                           	callstack 18
  1827  003088                     
  1828                           ;C:\Program Files\Microchip\xc8\v2.32\pic\sources\c99\common\doprnt.c: 692: static int v
      +                          fpfcnvrt(FILE *fp, char *fmt[], va_list ap);C:\Program Files\Microchip\xc8\v2.32\pic\sou
      +                          rces\c99\common\doprnt.c: 693: {;C:\Program Files\Microchip\xc8\v2.32\pic\sources\c99\co
      +                          mmon\doprnt.c: 694:     char c, *cp, ct[3];;C:\Program Files\Microchip\xc8\v2.32\pic\sou
      +                          rces\c99\common\doprnt.c: 695:     int done, i;;C:\Program Files\Microchip\xc8\v2.32\pic
      +                          \sources\c99\common\doprnt.c: 696:     long long ll;;C:\Program Files\Microchip\xc8\v2.3
      +                          2\pic\sources\c99\common\doprnt.c: 697:     unsigned long long llu;
  1829  003088  0060  F113  FFD9   	movff	vfpfcnvrt@fmt,fsr2l
  1830  00308E  0060  F117  FFDA   	movff	vfpfcnvrt@fmt+1,fsr2h
  1831  003094  006F FF7B FFF6     	movff	postinc2,tblptrl
  1832  00309A  006F FF77 FFF7     	movff	postdec2,tblptrh
  1833  0030A0                     	if	0	;tblptru may be non-zero
  1834  0030A0                     	endif
  1835  0030A0                     	if	1	;Program memory is > 0xFFFF, there are 3 active tblptr bytes
  1836  0030A0  0E00               	movlw	low (__mediumconst shr (0+16))
  1837  0030A2  6EF8               	movwf	tblptru,c
  1838  0030A4                     	endif
  1839  0030A4  0008               	tblrd		*
  1840  0030A6  50F5               	movf	tablat,w,c
  1841  0030A8  0A25               	xorlw	37
  1842  0030AA  A4D8               	btfss	status,2,c
  1843  0030AC  EF5A  F018         	goto	u1901
  1844  0030B0  EF5C  F018         	goto	u1900
  1845  0030B4                     u1901:
  1846  0030B4  EF2A  F019         	goto	l3034
  1847  0030B8                     u1900:
  1848  0030B8                     
  1849                           ;C:\Program Files\Microchip\xc8\v2.32\pic\sources\c99\common\doprnt.c: 703:         ++*f
      +                          mt;
  1850  0030B8  0060  F113  FFD9   	movff	vfpfcnvrt@fmt,fsr2l
  1851  0030BE  0060  F117  FFDA   	movff	vfpfcnvrt@fmt+1,fsr2h
  1852  0030C4  2ADE               	incf	postinc2,f,c
  1853  0030C6  0E00               	movlw	0
  1854  0030C8  22DD               	addwfc	postdec2,f,c
  1855  0030CA                     
  1856                           ;C:\Program Files\Microchip\xc8\v2.32\pic\sources\c99\common\doprnt.c: 705:         flag
      +                          s = width = 0;
  1857  0030CA  0E00               	movlw	0
  1858  0030CC  0100               	movlb	0	; () banked
  1859  0030CE  6F77               	movwf	(_width+1)& (0+255),b
  1860  0030D0  0E00               	movlw	0
  1861  0030D2  6F76               	movwf	_width& (0+255),b
  1862  0030D4  C076  F07A         	movff	_width,_flags
  1863  0030D8  C077  F07B         	movff	_width+1,_flags+1
  1864  0030DC                     
  1865                           ; BSR set to: 0
  1866                           ;C:\Program Files\Microchip\xc8\v2.32\pic\sources\c99\common\doprnt.c: 706:         prec
      +                           = -1;
  1867  0030DC  6978               	setf	_prec& (0+255),b
  1868  0030DE  6979               	setf	(_prec+1)& (0+255),b
  1869  0030E0                     
  1870                           ; BSR set to: 0
  1871                           ;C:\Program Files\Microchip\xc8\v2.32\pic\sources\c99\common\doprnt.c: 847:         if (
      +                          (*fmt[0] == 'd') || (*fmt[0] == 'i')) {
  1872  0030E0  0060  F113  FFD9   	movff	vfpfcnvrt@fmt,fsr2l
  1873  0030E6  0060  F117  FFDA   	movff	vfpfcnvrt@fmt+1,fsr2h
  1874  0030EC  006F FF7B FFF6     	movff	postinc2,tblptrl
  1875  0030F2  006F FF77 FFF7     	movff	postdec2,tblptrh
  1876  0030F8                     	if	0	;tblptru may be non-zero
  1877  0030F8                     	endif
  1878  0030F8                     	if	1	;Program memory is > 0xFFFF, there are 3 active tblptr bytes
  1879  0030F8  0E00               	movlw	low (__mediumconst shr (0+16))
  1880  0030FA  6EF8               	movwf	tblptru,c
  1881  0030FC                     	endif
  1882  0030FC  0008               	tblrd		*
  1883  0030FE  50F5               	movf	tablat,w,c
  1884  003100  0A64               	xorlw	100
  1885  003102  B4D8               	btfsc	status,2,c
  1886  003104  EF86  F018         	goto	u1911
  1887  003108  EF88  F018         	goto	u1910
  1888  00310C                     u1911:
  1889  00310C  EFA0  F018         	goto	l3012
  1890  003110                     u1910:
  1891  003110                     
  1892                           ; BSR set to: 0
  1893  003110  0060  F113  FFD9   	movff	vfpfcnvrt@fmt,fsr2l
  1894  003116  0060  F117  FFDA   	movff	vfpfcnvrt@fmt+1,fsr2h
  1895  00311C  006F FF7B FFF6     	movff	postinc2,tblptrl
  1896  003122  006F FF77 FFF7     	movff	postdec2,tblptrh
  1897  003128                     	if	0	;tblptru may be non-zero
  1898  003128                     	endif
  1899  003128                     	if	1	;Program memory is > 0xFFFF, there are 3 active tblptr bytes
  1900  003128  0E00               	movlw	low (__mediumconst shr (0+16))
  1901  00312A  6EF8               	movwf	tblptru,c
  1902  00312C                     	endif
  1903  00312C  0008               	tblrd		*
  1904  00312E  50F5               	movf	tablat,w,c
  1905  003130  0A69               	xorlw	105
  1906  003132  A4D8               	btfss	status,2,c
  1907  003134  EF9E  F018         	goto	u1921
  1908  003138  EFA0  F018         	goto	u1920
  1909  00313C                     u1921:
  1910  00313C  EFEA  F018         	goto	l3018
  1911  003140                     u1920:
  1912  003140                     l3012:
  1913                           
  1914                           ; BSR set to: 0
  1915                           ;C:\Program Files\Microchip\xc8\v2.32\pic\sources\c99\common\doprnt.c: 849:             
      +                          ++*fmt;
  1916  003140  0060  F113  FFD9   	movff	vfpfcnvrt@fmt,fsr2l
  1917  003146  0060  F117  FFDA   	movff	vfpfcnvrt@fmt+1,fsr2h
  1918  00314C  2ADE               	incf	postinc2,f,c
  1919  00314E  0E00               	movlw	0
  1920  003150  22DD               	addwfc	postdec2,f,c
  1921                           
  1922                           ;C:\Program Files\Microchip\xc8\v2.32\pic\sources\c99\common\doprnt.c: 850:             
      +                          ll = (long long)(*(int *)__va_arg(*(int **)ap, (int)0));
  1923  003152  0060  F11B  FFD9   	movff	vfpfcnvrt@ap,fsr2l
  1924  003158  0060  F11F  FFDA   	movff	vfpfcnvrt@ap+1,fsr2h
  1925  00315E  006F FF7C  F048    	movff	indf2,??_vfpfcnvrt
  1926  003164  0E02               	movlw	2
  1927  003166  26DE               	addwf	postinc2,f,c
  1928  003168  006F FF7C  F049    	movff	indf2,??_vfpfcnvrt+1
  1929  00316E  0E00               	movlw	0
  1930  003170  22DD               	addwfc	postdec2,f,c
  1931  003172  0060  F123  FFD9   	movff	??_vfpfcnvrt,fsr2l
  1932  003178  0060  F127  FFDA   	movff	??_vfpfcnvrt+1,fsr2h
  1933  00317E  006F FF78  F04A    	movff	postinc2,vfpfcnvrt@ll
  1934  003184  006F FF74  F04B    	movff	postdec2,vfpfcnvrt@ll+1
  1935  00318A  0E00               	movlw	0
  1936  00318C  BE4B               	btfsc	(vfpfcnvrt@ll+1)^0,7,c
  1937  00318E  0EFF               	movlw	-1
  1938  003190  6E4C               	movwf	(vfpfcnvrt@ll+2)^0,c
  1939  003192  6E4D               	movwf	(vfpfcnvrt@ll+3)^0,c
  1940  003194  6E4E               	movwf	(vfpfcnvrt@ll+4)^0,c
  1941  003196  6E4F               	movwf	(vfpfcnvrt@ll+5)^0,c
  1942  003198  6E50               	movwf	(vfpfcnvrt@ll+6)^0,c
  1943  00319A  6E51               	movwf	(vfpfcnvrt@ll+7)^0,c
  1944  00319C                     
  1945                           ; BSR set to: 0
  1946                           ;C:\Program Files\Microchip\xc8\v2.32\pic\sources\c99\common\doprnt.c: 852:             
      +                          return dtoa(fp, ll);
  1947  00319C  C042  F01E         	movff	vfpfcnvrt@fp,dtoa@fp
  1948  0031A0  C043  F01F         	movff	vfpfcnvrt@fp+1,dtoa@fp+1
  1949  0031A4  C04A  F020         	movff	vfpfcnvrt@ll,dtoa@d
  1950  0031A8  C04B  F021         	movff	vfpfcnvrt@ll+1,dtoa@d+1
  1951  0031AC  C04C  F022         	movff	vfpfcnvrt@ll+2,dtoa@d+2
  1952  0031B0  C04D  F023         	movff	vfpfcnvrt@ll+3,dtoa@d+3
  1953  0031B4  C04E  F024         	movff	vfpfcnvrt@ll+4,dtoa@d+4
  1954  0031B8  C04F  F025         	movff	vfpfcnvrt@ll+5,dtoa@d+5
  1955  0031BC  C050  F026         	movff	vfpfcnvrt@ll+6,dtoa@d+6
  1956  0031C0  C051  F027         	movff	vfpfcnvrt@ll+7,dtoa@d+7
  1957  0031C4  ECD2  F016         	call	_dtoa	;wreg free
  1958  0031C8  C01E  F042         	movff	?_dtoa,?_vfpfcnvrt
  1959  0031CC  C01F  F043         	movff	?_dtoa+1,?_vfpfcnvrt+1
  1960  0031D0  EF4D  F019         	goto	l1386
  1961  0031D4                     l3018:
  1962                           
  1963                           ; BSR set to: 0
  1964                           ;C:\Program Files\Microchip\xc8\v2.32\pic\sources\c99\common\doprnt.c: 1372:         if 
      +                          ((*fmt)[0] == '%') {
  1965  0031D4  0060  F113  FFD9   	movff	vfpfcnvrt@fmt,fsr2l
  1966  0031DA  0060  F117  FFDA   	movff	vfpfcnvrt@fmt+1,fsr2h
  1967  0031E0  006F FF7B FFF6     	movff	postinc2,tblptrl
  1968  0031E6  006F FF77 FFF7     	movff	postdec2,tblptrh
  1969  0031EC                     	if	0	;tblptru may be non-zero
  1970  0031EC                     	endif
  1971  0031EC                     	if	1	;Program memory is > 0xFFFF, there are 3 active tblptr bytes
  1972  0031EC  0E00               	movlw	low (__mediumconst shr (0+16))
  1973  0031EE  6EF8               	movwf	tblptru,c
  1974  0031F0                     	endif
  1975  0031F0  0008               	tblrd		*
  1976  0031F2  50F5               	movf	tablat,w,c
  1977  0031F4  0A25               	xorlw	37
  1978  0031F6  A4D8               	btfss	status,2,c
  1979  0031F8  EF00  F019         	goto	u1931
  1980  0031FC  EF02  F019         	goto	u1930
  1981  003200                     u1931:
  1982  003200  EF1B  F019         	goto	l3028
  1983  003204                     u1930:
  1984  003204                     
  1985                           ; BSR set to: 0
  1986                           ;C:\Program Files\Microchip\xc8\v2.32\pic\sources\c99\common\doprnt.c: 1373:            
      +                           ++*fmt;
  1987  003204  0060  F113  FFD9   	movff	vfpfcnvrt@fmt,fsr2l
  1988  00320A  0060  F117  FFDA   	movff	vfpfcnvrt@fmt+1,fsr2h
  1989  003210  2ADE               	incf	postinc2,f,c
  1990  003212  0E00               	movlw	0
  1991  003214  22DD               	addwfc	postdec2,f,c
  1992  003216                     
  1993                           ; BSR set to: 0
  1994                           ;C:\Program Files\Microchip\xc8\v2.32\pic\sources\c99\common\doprnt.c: 1374:            
      +                           fputc((int)'%', fp);
  1995  003216  0E00               	movlw	0
  1996  003218  6E04               	movwf	(fputc@c+1)^0,c
  1997  00321A  0E25               	movlw	37
  1998  00321C  6E03               	movwf	fputc@c^0,c
  1999  00321E  C042  F005         	movff	vfpfcnvrt@fp,fputc@fp
  2000  003222  C043  F006         	movff	vfpfcnvrt@fp+1,fputc@fp+1
  2001  003226  ECD7  F01C         	call	_fputc	;wreg free
  2002  00322A                     l3024:
  2003                           
  2004                           ;C:\Program Files\Microchip\xc8\v2.32\pic\sources\c99\common\doprnt.c: 1375:            
      +                           return 1;
  2005  00322A  0E00               	movlw	0
  2006  00322C  6E43               	movwf	(?_vfpfcnvrt+1)^0,c
  2007  00322E  0E01               	movlw	1
  2008  003230  6E42               	movwf	?_vfpfcnvrt^0,c
  2009  003232  EF4D  F019         	goto	l1386
  2010  003236                     l3028:
  2011                           
  2012                           ; BSR set to: 0
  2013                           ;C:\Program Files\Microchip\xc8\v2.32\pic\sources\c99\common\doprnt.c: 1379:         ++*
      +                          fmt;
  2014  003236  0060  F113  FFD9   	movff	vfpfcnvrt@fmt,fsr2l
  2015  00323C  0060  F117  FFDA   	movff	vfpfcnvrt@fmt+1,fsr2h
  2016  003242  2ADE               	incf	postinc2,f,c
  2017  003244  0E00               	movlw	0
  2018  003246  22DD               	addwfc	postdec2,f,c
  2019  003248                     
  2020                           ; BSR set to: 0
  2021                           ;C:\Program Files\Microchip\xc8\v2.32\pic\sources\c99\common\doprnt.c: 1380:         ret
      +                          urn 0;
  2022  003248  0E00               	movlw	0
  2023  00324A  6E43               	movwf	(?_vfpfcnvrt+1)^0,c
  2024  00324C  0E00               	movlw	0
  2025  00324E  6E42               	movwf	?_vfpfcnvrt^0,c
  2026  003250  EF4D  F019         	goto	l1386
  2027  003254                     l3034:
  2028                           
  2029                           ;C:\Program Files\Microchip\xc8\v2.32\pic\sources\c99\common\doprnt.c: 1384:     fputc((
      +                          int)(*fmt)[0], fp);
  2030  003254  0060  F113  FFD9   	movff	vfpfcnvrt@fmt,fsr2l
  2031  00325A  0060  F117  FFDA   	movff	vfpfcnvrt@fmt+1,fsr2h
  2032  003260  006F FF7B FFF6     	movff	postinc2,tblptrl
  2033  003266  006F FF77 FFF7     	movff	postdec2,tblptrh
  2034  00326C                     	if	0	;tblptru may be non-zero
  2035  00326C                     	endif
  2036  00326C                     	if	1	;Program memory is > 0xFFFF, there are 3 active tblptr bytes
  2037  00326C  0E00               	movlw	low (__mediumconst shr (0+16))
  2038  00326E  6EF8               	movwf	tblptru,c
  2039  003270                     	endif
  2040  003270  0008               	tblrd		*
  2041  003272  50F5               	movf	tablat,w,c
  2042  003274  6E03               	movwf	fputc@c^0,c
  2043  003276  6A04               	clrf	(fputc@c+1)^0,c
  2044  003278  C042  F005         	movff	vfpfcnvrt@fp,fputc@fp
  2045  00327C  C043  F006         	movff	vfpfcnvrt@fp+1,fputc@fp+1
  2046  003280  ECD7  F01C         	call	_fputc	;wreg free
  2047  003284                     
  2048                           ;C:\Program Files\Microchip\xc8\v2.32\pic\sources\c99\common\doprnt.c: 1385:     ++*fmt;
  2049  003284  0060  F113  FFD9   	movff	vfpfcnvrt@fmt,fsr2l
  2050  00328A  0060  F117  FFDA   	movff	vfpfcnvrt@fmt+1,fsr2h
  2051  003290  2ADE               	incf	postinc2,f,c
  2052  003292  0E00               	movlw	0
  2053  003294  22DD               	addwfc	postdec2,f,c
  2054  003296  EF15  F019         	goto	l3024
  2055  00329A                     l1386:
  2056  00329A  0012               	return		;funcret
  2057  00329C                     __end_of_vfpfcnvrt:
  2058                           	callstack 0
  2059                           
  2060 ;; *************** function _dtoa *****************
  2061 ;; Defined at:
  2062 ;;		line 287 in file "C:\Program Files\Microchip\xc8\v2.32\pic\sources\c99\common\doprnt.c"
  2063 ;; Parameters:    Size  Location     Type
  2064 ;;  fp              2   29[COMRAM] PTR struct _IO_FILE
  2065 ;;		 -> NULL(0), 
  2066 ;;  d               8   31[COMRAM] long long 
  2067 ;; Auto vars:     Size  Location     Type
  2068 ;;  n               8   55[COMRAM] long long 
  2069 ;;  i               2   63[COMRAM] int 
  2070 ;;  s               2   53[COMRAM] int 
  2071 ;;  w               2   51[COMRAM] int 
  2072 ;;  p               2   49[COMRAM] int 
  2073 ;; Return value:  Size  Location     Type
  2074 ;;                  2   29[COMRAM] int 
  2075 ;; Registers used:
  2076 ;;		wreg, fsr1l, fsr1h, fsr2l, fsr2h, status,2, status,0, cstack
  2077 ;; Tracked objects:
  2078 ;;		On entry : 0/0
  2079 ;;		On exit  : 0/0
  2080 ;;		Unchanged: 0/0
  2081 ;; Data sizes:     COMRAM   BANK0   BANK1   BANK2   BANK3   BANK4   BANK5   BANK6   BANK7   BANK8   BANK9  BANK10  BANK1
      +1  BANK12  BANK13  BANK14  BANK15  BANK16  BANK17  BANK18  BANK19  BANK20  BANK21  BANK22  BANK23  BANK24  BANK25  BANK2
      +6  BANK27  BANK28  BANK29  BANK30  BANK31
  2082 ;;      Params:        10       0       0       0       0       0       0       0       0       0       0       0       
      +0       0       0       0       0       0       0       0       0       0       0       0       0       0       0       
      +0       0       0       0       0       0
  2083 ;;      Locals:        18       0       0       0       0       0       0       0       0       0       0       0       
      +0       0       0       0       0       0       0       0       0       0       0       0       0       0       0       
      +0       0       0       0       0       0
  2084 ;;      Temps:          8       0       0       0       0       0       0       0       0       0       0       0       
      +0       0       0       0       0       0       0       0       0       0       0       0       0       0       0       
      +0       0       0       0       0       0
  2085 ;;      Totals:        36       0       0       0       0       0       0       0       0       0       0       0       
      +0       0       0       0       0       0       0       0       0       0       0       0       0       0       0       
      +0       0       0       0       0       0
  2086 ;;Total ram usage:       36 bytes
  2087 ;; Hardware stack levels used: 1
  2088 ;; Hardware stack levels required when called: 9
  2089 ;; This function calls:
  2090 ;;		___aodiv
  2091 ;;		___aomod
  2092 ;;		_abs
  2093 ;;		_pad
  2094 ;; This function is called by:
  2095 ;;		_vfpfcnvrt
  2096 ;; This function uses a non-reentrant model
  2097 ;;
  2098                           
  2099                           	psect	text4
  2100  002DA4                     __ptext4:
  2101                           	callstack 0
  2102  002DA4                     _dtoa:
  2103                           	callstack 18
  2104  002DA4                     
  2105                           ;C:\Program Files\Microchip\xc8\v2.32\pic\sources\c99\common\doprnt.c: 287: static int d
      +                          toa(FILE *fp, long long d);C:\Program Files\Microchip\xc8\v2.32\pic\sources\c99\common\d
      +                          oprnt.c: 288: {;C:\Program Files\Microchip\xc8\v2.32\pic\sources\c99\common\doprnt.c: 28
      +                          9:     int i, p, s, w;;C:\Program Files\Microchip\xc8\v2.32\pic\sources\c99\common\doprn
      +                          t.c: 290:     long long n;;C:\Program Files\Microchip\xc8\v2.32\pic\sources\c99\common\d
      +                          oprnt.c: 293:     n = d;
  2106  002DA4  C020  F038         	movff	dtoa@d,dtoa@n
  2107  002DA8  C021  F039         	movff	dtoa@d+1,dtoa@n+1
  2108  002DAC  C022  F03A         	movff	dtoa@d+2,dtoa@n+2
  2109  002DB0  C023  F03B         	movff	dtoa@d+3,dtoa@n+3
  2110  002DB4  C024  F03C         	movff	dtoa@d+4,dtoa@n+4
  2111  002DB8  C025  F03D         	movff	dtoa@d+5,dtoa@n+5
  2112  002DBC  C026  F03E         	movff	dtoa@d+6,dtoa@n+6
  2113  002DC0  C027  F03F         	movff	dtoa@d+7,dtoa@n+7
  2114  002DC4                     
  2115                           ;C:\Program Files\Microchip\xc8\v2.32\pic\sources\c99\common\doprnt.c: 294:     s = n < 
      +                          0 ? 1 : 0;
  2116  002DC4  BE3F               	btfsc	(dtoa@n+7)^0,7,c
  2117  002DC6  EFE7  F016         	goto	u1751
  2118  002DCA  EFEA  F016         	goto	u1750
  2119  002DCE                     u1751:
  2120  002DCE  0E01               	movlw	1
  2121  002DD0  EFEB  F016         	goto	u1760
  2122  002DD4                     u1750:
  2123  002DD4  0E00               	movlw	0
  2124  002DD6                     u1760:
  2125  002DD6  6E36               	movwf	dtoa@s^0,c
  2126  002DD8  6A37               	clrf	(dtoa@s+1)^0,c
  2127                           
  2128                           ;C:\Program Files\Microchip\xc8\v2.32\pic\sources\c99\common\doprnt.c: 295:     if (s) {
  2129  002DDA  5036               	movf	dtoa@s^0,w,c
  2130  002DDC  1037               	iorwf	(dtoa@s+1)^0,w,c
  2131  002DDE  B4D8               	btfsc	status,2,c
  2132  002DE0  EFF4  F016         	goto	u1771
  2133  002DE4  EFF6  F016         	goto	u1770
  2134  002DE8                     u1771:
  2135  002DE8  EF06  F017         	goto	l2934
  2136  002DEC                     u1770:
  2137  002DEC                     
  2138                           ;C:\Program Files\Microchip\xc8\v2.32\pic\sources\c99\common\doprnt.c: 296:         n = 
      +                          -n;
  2139  002DEC  1E3F               	comf	(dtoa@n+7)^0,f,c
  2140  002DEE  1E3E               	comf	(dtoa@n+6)^0,f,c
  2141  002DF0  1E3D               	comf	(dtoa@n+5)^0,f,c
  2142  002DF2  1E3C               	comf	(dtoa@n+4)^0,f,c
  2143  002DF4  1E3B               	comf	(dtoa@n+3)^0,f,c
  2144  002DF6  1E3A               	comf	(dtoa@n+2)^0,f,c
  2145  002DF8  1E39               	comf	(dtoa@n+1)^0,f,c
  2146  002DFA  6C38               	negf	dtoa@n^0,c
  2147  002DFC  0E00               	movlw	0
  2148  002DFE  2239               	addwfc	(dtoa@n+1)^0,f,c
  2149  002E00  223A               	addwfc	(dtoa@n+2)^0,f,c
  2150  002E02  223B               	addwfc	(dtoa@n+3)^0,f,c
  2151  002E04  223C               	addwfc	(dtoa@n+4)^0,f,c
  2152  002E06  223D               	addwfc	(dtoa@n+5)^0,f,c
  2153  002E08  223E               	addwfc	(dtoa@n+6)^0,f,c
  2154  002E0A  223F               	addwfc	(dtoa@n+7)^0,f,c
  2155  002E0C                     l2934:
  2156                           
  2157                           ;C:\Program Files\Microchip\xc8\v2.32\pic\sources\c99\common\doprnt.c: 300:     if (!(pr
      +                          ec < 0)) {
  2158  002E0C  0100               	movlb	0	; () banked
  2159  002E0E  BF79               	btfsc	(_prec+1)& (0+255),7,b
  2160  002E10  EF0C  F017         	goto	u1781
  2161  002E14  EF0E  F017         	goto	u1780
  2162  002E18                     u1781:
  2163  002E18  EF0F  F017         	goto	l2938
  2164  002E1C                     u1780:
  2165  002E1C                     
  2166                           ; BSR set to: 0
  2167                           ;C:\Program Files\Microchip\xc8\v2.32\pic\sources\c99\common\doprnt.c: 301:         flag
      +                          s &= ~(1 << 1);
  2168  002E1C  937A               	bcf	_flags& (0+255),1,b
  2169  002E1E                     l2938:
  2170                           
  2171                           ; BSR set to: 0
  2172                           ;C:\Program Files\Microchip\xc8\v2.32\pic\sources\c99\common\doprnt.c: 303:     p = (0 <
      +                           prec) ? prec : 1;
  2173  002E1E  BF79               	btfsc	(_prec+1)& (0+255),7,b
  2174  002E20  EF1C  F017         	goto	u1790
  2175  002E24  5179               	movf	(_prec+1)& (0+255),w,b
  2176  002E26  E106               	bnz	u1791
  2177  002E28  0578               	decf	_prec& (0+255),w,b
  2178  002E2A  B0D8               	btfsc	status,0,c
  2179  002E2C  EF1A  F017         	goto	u1791
  2180  002E30  EF1C  F017         	goto	u1790
  2181  002E34                     u1791:
  2182  002E34  EF22  F017         	goto	l1359
  2183  002E38                     u1790:
  2184  002E38                     
  2185                           ; BSR set to: 0
  2186  002E38  0E00               	movlw	0
  2187  002E3A  6E33               	movwf	(dtoa@p+1)^0,c
  2188  002E3C  0E01               	movlw	1
  2189  002E3E  6E32               	movwf	dtoa@p^0,c
  2190  002E40  EF26  F017         	goto	l1361
  2191  002E44                     l1359:
  2192                           
  2193                           ; BSR set to: 0
  2194  002E44  C078  F032         	movff	_prec,dtoa@p
  2195  002E48  C079  F033         	movff	_prec+1,dtoa@p+1
  2196  002E4C                     l1361:
  2197                           
  2198                           ; BSR set to: 0
  2199                           ;C:\Program Files\Microchip\xc8\v2.32\pic\sources\c99\common\doprnt.c: 304:     w = widt
      +                          h;
  2200  002E4C  C076  F034         	movff	_width,dtoa@w
  2201  002E50  C077  F035         	movff	_width+1,dtoa@w+1
  2202  002E54                     
  2203                           ; BSR set to: 0
  2204                           ;C:\Program Files\Microchip\xc8\v2.32\pic\sources\c99\common\doprnt.c: 305:     if (s ||
      +                           (flags & (1 << 2))) {
  2205  002E54  5036               	movf	dtoa@s^0,w,c
  2206  002E56  1037               	iorwf	(dtoa@s+1)^0,w,c
  2207  002E58  A4D8               	btfss	status,2,c
  2208  002E5A  EF31  F017         	goto	u1801
  2209  002E5E  EF33  F017         	goto	u1800
  2210  002E62                     u1801:
  2211  002E62  EF3A  F017         	goto	l2946
  2212  002E66                     u1800:
  2213  002E66                     
  2214                           ; BSR set to: 0
  2215  002E66  A57A               	btfss	_flags& (0+255),2,b
  2216  002E68  EF38  F017         	goto	u1811
  2217  002E6C  EF3A  F017         	goto	u1810
  2218  002E70                     u1811:
  2219  002E70  EF3D  F017         	goto	l2948
  2220  002E74                     u1810:
  2221  002E74                     l2946:
  2222                           
  2223                           ; BSR set to: 0
  2224                           ;C:\Program Files\Microchip\xc8\v2.32\pic\sources\c99\common\doprnt.c: 306:         --w;
  2225  002E74  0634               	decf	dtoa@w^0,f,c
  2226  002E76  A0D8               	btfss	status,0,c
  2227  002E78  0635               	decf	(dtoa@w+1)^0,f,c
  2228  002E7A                     l2948:
  2229                           
  2230                           ; BSR set to: 0
  2231                           ;C:\Program Files\Microchip\xc8\v2.32\pic\sources\c99\common\doprnt.c: 310:     i = size
      +                          of(dbuf) - 1;
  2232  002E7A  0E00               	movlw	0
  2233  002E7C  6E41               	movwf	(dtoa@i+1)^0,c
  2234  002E7E  0E1F               	movlw	31
  2235  002E80  6E40               	movwf	dtoa@i^0,c
  2236  002E82                     
  2237                           ; BSR set to: 0
  2238                           ;C:\Program Files\Microchip\xc8\v2.32\pic\sources\c99\common\doprnt.c: 311:     dbuf[i] 
      +                          = '\0';
  2239  002E82  0E00               	movlw	0
  2240  002E84  6FAB               	movwf	(_dbuf+31)& (0+255),b
  2241                           
  2242                           ;C:\Program Files\Microchip\xc8\v2.32\pic\sources\c99\common\doprnt.c: 312:     while (!
      +                          (i < 1) && (n || (0 < p) || ((0 < w) && (flags & (1 << 1))))) {
  2243  002E86  EFC1  F017         	goto	l2962
  2244  002E8A                     l2952:
  2245                           
  2246                           ;C:\Program Files\Microchip\xc8\v2.32\pic\sources\c99\common\doprnt.c: 313:         --i;
  2247  002E8A  0640               	decf	dtoa@i^0,f,c
  2248  002E8C  A0D8               	btfss	status,0,c
  2249  002E8E  0641               	decf	(dtoa@i+1)^0,f,c
  2250  002E90                     
  2251                           ;C:\Program Files\Microchip\xc8\v2.32\pic\sources\c99\common\doprnt.c: 314:         dbuf
      +                          [i] = (char)((int)'0' + abs(n % 10));
  2252  002E90  0E8C               	movlw	low _dbuf
  2253  002E92  2440               	addwf	dtoa@i^0,w,c
  2254  002E94  6ED9               	movwf	fsr2l,c
  2255  002E96  0E00               	movlw	high _dbuf
  2256  002E98  2041               	addwfc	(dtoa@i+1)^0,w,c
  2257  002E9A  6EDA               	movwf	fsr2h,c
  2258  002E9C  C038  F001         	movff	dtoa@n,___aomod@dividend
  2259  002EA0  C039  F002         	movff	dtoa@n+1,___aomod@dividend+1
  2260  002EA4  C03A  F003         	movff	dtoa@n+2,___aomod@dividend+2
  2261  002EA8  C03B  F004         	movff	dtoa@n+3,___aomod@dividend+3
  2262  002EAC  C03C  F005         	movff	dtoa@n+4,___aomod@dividend+4
  2263  002EB0  C03D  F006         	movff	dtoa@n+5,___aomod@dividend+5
  2264  002EB4  C03E  F007         	movff	dtoa@n+6,___aomod@dividend+6
  2265  002EB8  C03F  F008         	movff	dtoa@n+7,___aomod@dividend+7
  2266  002EBC  0E0A               	movlw	10
  2267  002EBE  6E09               	movwf	___aomod@divisor^0,c
  2268  002EC0  0E00               	movlw	0
  2269  002EC2  6E0A               	movwf	(___aomod@divisor+1)^0,c
  2270  002EC4  0E00               	movlw	0
  2271  002EC6  6E0B               	movwf	(___aomod@divisor+2)^0,c
  2272  002EC8  0E00               	movlw	0
  2273  002ECA  6E0C               	movwf	(___aomod@divisor+3)^0,c
  2274  002ECC  0E00               	movlw	0
  2275  002ECE  6E0D               	movwf	(___aomod@divisor+4)^0,c
  2276  002ED0  0E00               	movlw	0
  2277  002ED2  6E0E               	movwf	(___aomod@divisor+5)^0,c
  2278  002ED4  0E00               	movlw	0
  2279  002ED6  6E0F               	movwf	(___aomod@divisor+6)^0,c
  2280  002ED8  0E00               	movlw	0
  2281  002EDA  6E10               	movwf	(___aomod@divisor+7)^0,c
  2282  002EDC  ECEC  F01A         	call	___aomod	;wreg free
  2283  002EE0  C001  F028         	movff	?___aomod,??_dtoa
  2284  002EE4  C002  F029         	movff	?___aomod+1,??_dtoa+1
  2285  002EE8  C003  F02A         	movff	?___aomod+2,??_dtoa+2
  2286  002EEC  C004  F02B         	movff	?___aomod+3,??_dtoa+3
  2287  002EF0  C005  F02C         	movff	?___aomod+4,??_dtoa+4
  2288  002EF4  C006  F02D         	movff	?___aomod+5,??_dtoa+5
  2289  002EF8  C007  F02E         	movff	?___aomod+6,??_dtoa+6
  2290  002EFC  C008  F02F         	movff	?___aomod+7,??_dtoa+7
  2291  002F00  C028  F013         	movff	??_dtoa,abs@a
  2292  002F04  C02A  F014         	movff	??_dtoa+2,abs@a+1
  2293  002F08  EC0C  F01E         	call	_abs	;wreg free
  2294  002F0C  5013               	movf	?_abs^0,w,c
  2295  002F0E  0F30               	addlw	48
  2296  002F10  6EDF               	movwf	indf2,c
  2297  002F12                     
  2298                           ;C:\Program Files\Microchip\xc8\v2.32\pic\sources\c99\common\doprnt.c: 315:         --p;
  2299  002F12  0632               	decf	dtoa@p^0,f,c
  2300  002F14  A0D8               	btfss	status,0,c
  2301  002F16  0633               	decf	(dtoa@p+1)^0,f,c
  2302  002F18                     
  2303                           ;C:\Program Files\Microchip\xc8\v2.32\pic\sources\c99\common\doprnt.c: 316:         --w;
  2304  002F18  0634               	decf	dtoa@w^0,f,c
  2305  002F1A  A0D8               	btfss	status,0,c
  2306  002F1C  0635               	decf	(dtoa@w+1)^0,f,c
  2307  002F1E                     
  2308                           ;C:\Program Files\Microchip\xc8\v2.32\pic\sources\c99\common\doprnt.c: 317:         n = 
      +                          n / 10;
  2309  002F1E  C038  F001         	movff	dtoa@n,___aodiv@dividend
  2310  002F22  C039  F002         	movff	dtoa@n+1,___aodiv@dividend+1
  2311  002F26  C03A  F003         	movff	dtoa@n+2,___aodiv@dividend+2
  2312  002F2A  C03B  F004         	movff	dtoa@n+3,___aodiv@dividend+3
  2313  002F2E  C03C  F005         	movff	dtoa@n+4,___aodiv@dividend+4
  2314  002F32  C03D  F006         	movff	dtoa@n+5,___aodiv@dividend+5
  2315  002F36  C03E  F007         	movff	dtoa@n+6,___aodiv@dividend+6
  2316  002F3A  C03F  F008         	movff	dtoa@n+7,___aodiv@dividend+7
  2317  002F3E  0E0A               	movlw	10
  2318  002F40  6E09               	movwf	___aodiv@divisor^0,c
  2319  002F42  0E00               	movlw	0
  2320  002F44  6E0A               	movwf	(___aodiv@divisor+1)^0,c
  2321  002F46  0E00               	movlw	0
  2322  002F48  6E0B               	movwf	(___aodiv@divisor+2)^0,c
  2323  002F4A  0E00               	movlw	0
  2324  002F4C  6E0C               	movwf	(___aodiv@divisor+3)^0,c
  2325  002F4E  0E00               	movlw	0
  2326  002F50  6E0D               	movwf	(___aodiv@divisor+4)^0,c
  2327  002F52  0E00               	movlw	0
  2328  002F54  6E0E               	movwf	(___aodiv@divisor+5)^0,c
  2329  002F56  0E00               	movlw	0
  2330  002F58  6E0F               	movwf	(___aodiv@divisor+6)^0,c
  2331  002F5A  0E00               	movlw	0
  2332  002F5C  6E10               	movwf	(___aodiv@divisor+7)^0,c
  2333  002F5E  EC28  F01A         	call	___aodiv	;wreg free
  2334  002F62  C001  F038         	movff	?___aodiv,dtoa@n
  2335  002F66  C002  F039         	movff	?___aodiv+1,dtoa@n+1
  2336  002F6A  C003  F03A         	movff	?___aodiv+2,dtoa@n+2
  2337  002F6E  C004  F03B         	movff	?___aodiv+3,dtoa@n+3
  2338  002F72  C005  F03C         	movff	?___aodiv+4,dtoa@n+4
  2339  002F76  C006  F03D         	movff	?___aodiv+5,dtoa@n+5
  2340  002F7A  C007  F03E         	movff	?___aodiv+6,dtoa@n+6
  2341  002F7E  C008  F03F         	movff	?___aodiv+7,dtoa@n+7
  2342  002F82                     l2962:
  2343                           
  2344                           ;C:\Program Files\Microchip\xc8\v2.32\pic\sources\c99\common\doprnt.c: 312:     while (!
      +                          (i < 1) && (n || (0 < p) || ((0 < w) && (flags & (1 << 1))))) {
  2345  002F82  BE41               	btfsc	(dtoa@i+1)^0,7,c
  2346  002F84  EFCC  F017         	goto	u1821
  2347  002F88  5041               	movf	(dtoa@i+1)^0,w,c
  2348  002F8A  E108               	bnz	u1820
  2349  002F8C  0440               	decf	dtoa@i^0,w,c
  2350  002F8E  A0D8               	btfss	status,0,c
  2351  002F90  EFCC  F017         	goto	u1821
  2352  002F94  EFCE  F017         	goto	u1820
  2353  002F98                     u1821:
  2354  002F98  EFFF  F017         	goto	l2972
  2355  002F9C                     u1820:
  2356  002F9C  5038               	movf	dtoa@n^0,w,c
  2357  002F9E  1039               	iorwf	(dtoa@n+1)^0,w,c
  2358  002FA0  103A               	iorwf	(dtoa@n+2)^0,w,c
  2359  002FA2  103B               	iorwf	(dtoa@n+3)^0,w,c
  2360  002FA4  103C               	iorwf	(dtoa@n+4)^0,w,c
  2361  002FA6  103D               	iorwf	(dtoa@n+5)^0,w,c
  2362  002FA8  103E               	iorwf	(dtoa@n+6)^0,w,c
  2363  002FAA  103F               	iorwf	(dtoa@n+7)^0,w,c
  2364  002FAC  A4D8               	btfss	status,2,c
  2365  002FAE  EFDB  F017         	goto	u1831
  2366  002FB2  EFDD  F017         	goto	u1830
  2367  002FB6                     u1831:
  2368  002FB6  EF45  F017         	goto	l2952
  2369  002FBA                     u1830:
  2370  002FBA  BE33               	btfsc	(dtoa@p+1)^0,7,c
  2371  002FBC  EFEA  F017         	goto	u1840
  2372  002FC0  5033               	movf	(dtoa@p+1)^0,w,c
  2373  002FC2  E106               	bnz	u1841
  2374  002FC4  0432               	decf	dtoa@p^0,w,c
  2375  002FC6  B0D8               	btfsc	status,0,c
  2376  002FC8  EFE8  F017         	goto	u1841
  2377  002FCC  EFEA  F017         	goto	u1840
  2378  002FD0                     u1841:
  2379  002FD0  EF45  F017         	goto	l2952
  2380  002FD4                     u1840:
  2381  002FD4  BE35               	btfsc	(dtoa@w+1)^0,7,c
  2382  002FD6  EFF5  F017         	goto	u1851
  2383  002FDA  5035               	movf	(dtoa@w+1)^0,w,c
  2384  002FDC  E108               	bnz	u1850
  2385  002FDE  0434               	decf	dtoa@w^0,w,c
  2386  002FE0  A0D8               	btfss	status,0,c
  2387  002FE2  EFF5  F017         	goto	u1851
  2388  002FE6  EFF7  F017         	goto	u1850
  2389  002FEA                     u1851:
  2390  002FEA  EFFF  F017         	goto	l2972
  2391  002FEE                     u1850:
  2392  002FEE  0100               	movlb	0	; () banked
  2393  002FF0  B37A               	btfsc	_flags& (0+255),1,b
  2394  002FF2  EFFD  F017         	goto	u1861
  2395  002FF6  EFFF  F017         	goto	u1860
  2396  002FFA                     u1861:
  2397  002FFA  EF45  F017         	goto	l2952
  2398  002FFE                     u1860:
  2399  002FFE                     l2972:
  2400                           
  2401                           ;C:\Program Files\Microchip\xc8\v2.32\pic\sources\c99\common\doprnt.c: 321:     if (s ||
      +                           (flags & (1 << 2))) {
  2402  002FFE  5036               	movf	dtoa@s^0,w,c
  2403  003000  1037               	iorwf	(dtoa@s+1)^0,w,c
  2404  003002  A4D8               	btfss	status,2,c
  2405  003004  EF06  F018         	goto	u1871
  2406  003008  EF08  F018         	goto	u1870
  2407  00300C                     u1871:
  2408  00300C  EF10  F018         	goto	l2976
  2409  003010                     u1870:
  2410  003010  0100               	movlb	0	; () banked
  2411  003012  A57A               	btfss	_flags& (0+255),2,b
  2412  003014  EF0E  F018         	goto	u1881
  2413  003018  EF10  F018         	goto	u1880
  2414  00301C                     u1881:
  2415  00301C  EF2F  F018         	goto	l2986
  2416  003020                     u1880:
  2417  003020                     l2976:
  2418                           
  2419                           ;C:\Program Files\Microchip\xc8\v2.32\pic\sources\c99\common\doprnt.c: 322:         --i;
  2420  003020  0640               	decf	dtoa@i^0,f,c
  2421  003022  A0D8               	btfss	status,0,c
  2422  003024  0641               	decf	(dtoa@i+1)^0,f,c
  2423  003026                     
  2424                           ;C:\Program Files\Microchip\xc8\v2.32\pic\sources\c99\common\doprnt.c: 323:         dbuf
      +                          [i] = s ? '-' : '+';
  2425  003026  5036               	movf	dtoa@s^0,w,c
  2426  003028  1037               	iorwf	(dtoa@s+1)^0,w,c
  2427  00302A  A4D8               	btfss	status,2,c
  2428  00302C  EF1A  F018         	goto	u1891
  2429  003030  EF1C  F018         	goto	u1890
  2430  003034                     u1891:
  2431  003034  EF22  F018         	goto	l2982
  2432  003038                     u1890:
  2433  003038  0E00               	movlw	0
  2434  00303A  6E31               	movwf	(_dtoa$1987+1)^0,c
  2435  00303C  0E2B               	movlw	43
  2436  00303E  6E30               	movwf	_dtoa$1987^0,c
  2437  003040  EF26  F018         	goto	l2984
  2438  003044                     l2982:
  2439  003044  0E00               	movlw	0
  2440  003046  6E31               	movwf	(_dtoa$1987+1)^0,c
  2441  003048  0E2D               	movlw	45
  2442  00304A  6E30               	movwf	_dtoa$1987^0,c
  2443  00304C                     l2984:
  2444  00304C  0E8C               	movlw	low _dbuf
  2445  00304E  2440               	addwf	dtoa@i^0,w,c
  2446  003050  6ED9               	movwf	fsr2l,c
  2447  003052  0E00               	movlw	high _dbuf
  2448  003054  2041               	addwfc	(dtoa@i+1)^0,w,c
  2449  003056  6EDA               	movwf	fsr2h,c
  2450  003058  0060  F0C3  FFDF   	movff	_dtoa$1987,indf2
  2451  00305E                     l2986:
  2452                           
  2453                           ;C:\Program Files\Microchip\xc8\v2.32\pic\sources\c99\common\doprnt.c: 327:     return p
      +                          ad(fp, &dbuf[i], w);
  2454  00305E  C01E  F013         	movff	dtoa@fp,pad@fp
  2455  003062  C01F  F014         	movff	dtoa@fp+1,pad@fp+1
  2456  003066  0E8C               	movlw	low _dbuf
  2457  003068  2440               	addwf	dtoa@i^0,w,c
  2458  00306A  6E15               	movwf	pad@buf^0,c
  2459  00306C  0E00               	movlw	high _dbuf
  2460  00306E  2041               	addwfc	(dtoa@i+1)^0,w,c
  2461  003070  6E16               	movwf	(pad@buf+1)^0,c
  2462  003072  C034  F017         	movff	dtoa@w,pad@p
  2463  003076  C035  F018         	movff	dtoa@w+1,pad@p+1
  2464  00307A  EC21  F01C         	call	_pad	;wreg free
  2465  00307E  C013  F01E         	movff	?_pad,?_dtoa
  2466  003082  C014  F01F         	movff	?_pad+1,?_dtoa+1
  2467  003086  0012               	return		;funcret
  2468  003088                     __end_of_dtoa:
  2469                           	callstack 0
  2470                           
  2471 ;; *************** function _pad *****************
  2472 ;; Defined at:
  2473 ;;		line 72 in file "C:\Program Files\Microchip\xc8\v2.32\pic\sources\c99\common\doprnt.c"
  2474 ;; Parameters:    Size  Location     Type
  2475 ;;  fp              2   18[COMRAM] PTR struct _IO_FILE
  2476 ;;		 -> NULL(0), 
  2477 ;;  buf             2   20[COMRAM] PTR unsigned char 
  2478 ;;		 -> dbuf(32), 
  2479 ;;  p               2   22[COMRAM] int 
  2480 ;; Auto vars:     Size  Location     Type
  2481 ;;  w               2   27[COMRAM] int 
  2482 ;;  i               2   25[COMRAM] int 
  2483 ;; Return value:  Size  Location     Type
  2484 ;;                  2   18[COMRAM] int 
  2485 ;; Registers used:
  2486 ;;		wreg, fsr1l, fsr1h, fsr2l, fsr2h, status,2, status,0, cstack
  2487 ;; Tracked objects:
  2488 ;;		On entry : 0/0
  2489 ;;		On exit  : 0/0
  2490 ;;		Unchanged: 0/0
  2491 ;; Data sizes:     COMRAM   BANK0   BANK1   BANK2   BANK3   BANK4   BANK5   BANK6   BANK7   BANK8   BANK9  BANK10  BANK1
      +1  BANK12  BANK13  BANK14  BANK15  BANK16  BANK17  BANK18  BANK19  BANK20  BANK21  BANK22  BANK23  BANK24  BANK25  BANK2
      +6  BANK27  BANK28  BANK29  BANK30  BANK31
  2492 ;;      Params:         6       0       0       0       0       0       0       0       0       0       0       0       
      +0       0       0       0       0       0       0       0       0       0       0       0       0       0       0       
      +0       0       0       0       0       0
  2493 ;;      Locals:         4       0       0       0       0       0       0       0       0       0       0       0       
      +0       0       0       0       0       0       0       0       0       0       0       0       0       0       0       
      +0       0       0       0       0       0
  2494 ;;      Temps:          1       0       0       0       0       0       0       0       0       0       0       0       
      +0       0       0       0       0       0       0       0       0       0       0       0       0       0       0       
      +0       0       0       0       0       0
  2495 ;;      Totals:        11       0       0       0       0       0       0       0       0       0       0       0       
      +0       0       0       0       0       0       0       0       0       0       0       0       0       0       0       
      +0       0       0       0       0       0
  2496 ;;Total ram usage:       11 bytes
  2497 ;; Hardware stack levels used: 1
  2498 ;; Hardware stack levels required when called: 8
  2499 ;; This function calls:
  2500 ;;		_fputc
  2501 ;;		_fputs
  2502 ;;		_strlen
  2503 ;; This function is called by:
  2504 ;;		_dtoa
  2505 ;; This function uses a non-reentrant model
  2506 ;;
  2507                           
  2508                           	psect	text5
  2509  003842                     __ptext5:
  2510                           	callstack 0
  2511  003842                     _pad:
  2512                           	callstack 18
  2513  003842                     
  2514                           ;C:\Program Files\Microchip\xc8\v2.32\pic\sources\c99\common\doprnt.c: 72: static int pa
      +                          d(FILE *fp, char *buf, int p);C:\Program Files\Microchip\xc8\v2.32\pic\sources\c99\commo
      +                          n\doprnt.c: 73: {;C:\Program Files\Microchip\xc8\v2.32\pic\sources\c99\common\doprnt.c: 
      +                          74:     int i, w;;C:\Program Files\Microchip\xc8\v2.32\pic\sources\c99\common\doprnt.c: 
      +                          77:     if (flags & (1 << 0)) {
  2515  003842  0100               	movlb	0	; () banked
  2516  003844  A17A               	btfss	_flags& (0+255),0,b
  2517  003846  EF27  F01C         	goto	u1701
  2518  00384A  EF29  F01C         	goto	u1700
  2519  00384E                     u1701:
  2520  00384E  EF33  F01C         	goto	l2906
  2521  003852                     u1700:
  2522  003852                     
  2523                           ; BSR set to: 0
  2524                           ;C:\Program Files\Microchip\xc8\v2.32\pic\sources\c99\common\doprnt.c: 78:         fputs
      +                          ((const char *)buf, fp);
  2525  003852  C015  F00C         	movff	pad@buf,fputs@s
  2526  003856  C016  F00D         	movff	pad@buf+1,fputs@s+1
  2527  00385A  C013  F00E         	movff	pad@fp,fputs@fp
  2528  00385E  C014  F00F         	movff	pad@fp+1,fputs@fp+1
  2529  003862  ECC9  F01D         	call	_fputs	;wreg free
  2530  003866                     l2906:
  2531                           
  2532                           ;C:\Program Files\Microchip\xc8\v2.32\pic\sources\c99\common\doprnt.c: 82:     w = (p < 
      +                          0) ? 0 : p;
  2533  003866  BE18               	btfsc	(pad@p+1)^0,7,c
  2534  003868  EF38  F01C         	goto	u1711
  2535  00386C  EF3A  F01C         	goto	u1710
  2536  003870                     u1711:
  2537  003870  EF40  F01C         	goto	l2910
  2538  003874                     u1710:
  2539  003874  C017  F01C         	movff	pad@p,pad@w
  2540  003878  C018  F01D         	movff	pad@p+1,pad@w+1
  2541  00387C  EF44  F01C         	goto	l1348
  2542  003880                     l2910:
  2543  003880  0E00               	movlw	0
  2544  003882  6E1D               	movwf	(pad@w+1)^0,c
  2545  003884  0E00               	movlw	0
  2546  003886  6E1C               	movwf	pad@w^0,c
  2547  003888                     l1348:
  2548                           
  2549                           ;C:\Program Files\Microchip\xc8\v2.32\pic\sources\c99\common\doprnt.c: 83:     i = 0;
  2550  003888  0E00               	movlw	0
  2551  00388A  6E1B               	movwf	(pad@i+1)^0,c
  2552  00388C  0E00               	movlw	0
  2553  00388E  6E1A               	movwf	pad@i^0,c
  2554                           
  2555                           ;C:\Program Files\Microchip\xc8\v2.32\pic\sources\c99\common\doprnt.c: 84:     while (i 
      +                          < w) {
  2556  003890  EF56  F01C         	goto	l2916
  2557  003894                     l2912:
  2558                           
  2559                           ;C:\Program Files\Microchip\xc8\v2.32\pic\sources\c99\common\doprnt.c: 85:         fputc
      +                          (' ', fp);
  2560  003894  0E00               	movlw	0
  2561  003896  6E04               	movwf	(fputc@c+1)^0,c
  2562  003898  0E20               	movlw	32
  2563  00389A  6E03               	movwf	fputc@c^0,c
  2564  00389C  C013  F005         	movff	pad@fp,fputc@fp
  2565  0038A0  C014  F006         	movff	pad@fp+1,fputc@fp+1
  2566  0038A4  ECD7  F01C         	call	_fputc	;wreg free
  2567  0038A8                     
  2568                           ;C:\Program Files\Microchip\xc8\v2.32\pic\sources\c99\common\doprnt.c: 86:         ++i;
  2569  0038A8  4A1A               	infsnz	pad@i^0,f,c
  2570  0038AA  2A1B               	incf	(pad@i+1)^0,f,c
  2571  0038AC                     l2916:
  2572                           
  2573                           ;C:\Program Files\Microchip\xc8\v2.32\pic\sources\c99\common\doprnt.c: 84:     while (i 
      +                          < w) {
  2574  0038AC  501C               	movf	pad@w^0,w,c
  2575  0038AE  5C1A               	subwf	pad@i^0,w,c
  2576  0038B0  501B               	movf	(pad@i+1)^0,w,c
  2577  0038B2  0A80               	xorlw	128
  2578  0038B4  6E19               	movwf	??_pad^0,c
  2579  0038B6  501D               	movf	(pad@w+1)^0,w,c
  2580  0038B8  0A80               	xorlw	128
  2581  0038BA  5819               	subwfb	??_pad^0,w,c
  2582  0038BC  A0D8               	btfss	status,0,c
  2583  0038BE  EF63  F01C         	goto	u1721
  2584  0038C2  EF65  F01C         	goto	u1720
  2585  0038C6                     u1721:
  2586  0038C6  EF4A  F01C         	goto	l2912
  2587  0038CA                     u1720:
  2588  0038CA                     
  2589                           ;C:\Program Files\Microchip\xc8\v2.32\pic\sources\c99\common\doprnt.c: 90:     if (!(fla
      +                          gs & (1 << 0))) {
  2590  0038CA  0100               	movlb	0	; () banked
  2591  0038CC  B17A               	btfsc	_flags& (0+255),0,b
  2592  0038CE  EF6B  F01C         	goto	u1731
  2593  0038D2  EF6D  F01C         	goto	u1730
  2594  0038D6                     u1731:
  2595  0038D6  EF77  F01C         	goto	l2920
  2596  0038DA                     u1730:
  2597  0038DA                     
  2598                           ; BSR set to: 0
  2599                           ;C:\Program Files\Microchip\xc8\v2.32\pic\sources\c99\common\doprnt.c: 91:         fputs
      +                          ((const char *)buf, fp);
  2600  0038DA  C015  F00C         	movff	pad@buf,fputs@s
  2601  0038DE  C016  F00D         	movff	pad@buf+1,fputs@s+1
  2602  0038E2  C013  F00E         	movff	pad@fp,fputs@fp
  2603  0038E6  C014  F00F         	movff	pad@fp+1,fputs@fp+1
  2604  0038EA  ECC9  F01D         	call	_fputs	;wreg free
  2605  0038EE                     l2920:
  2606                           
  2607                           ;C:\Program Files\Microchip\xc8\v2.32\pic\sources\c99\common\doprnt.c: 94:     return (i
      +                          nt)(strlen(buf) + (size_t)w);
  2608  0038EE  C015  F001         	movff	pad@buf,strlen@s
  2609  0038F2  C016  F002         	movff	pad@buf+1,strlen@s+1
  2610  0038F6  EC2C  F01E         	call	_strlen	;wreg free
  2611  0038FA  501C               	movf	pad@w^0,w,c
  2612  0038FC  2401               	addwf	?_strlen^0,w,c
  2613  0038FE  6E13               	movwf	?_pad^0,c
  2614  003900  501D               	movf	(pad@w+1)^0,w,c
  2615  003902  2002               	addwfc	(?_strlen+1)^0,w,c
  2616  003904  6E14               	movwf	(?_pad+1)^0,c
  2617  003906  0012               	return		;funcret
  2618  003908                     __end_of_pad:
  2619                           	callstack 0
  2620                           
  2621 ;; *************** function _strlen *****************
  2622 ;; Defined at:
  2623 ;;		line 5 in file "C:\Program Files\Microchip\xc8\v2.32\pic\sources\c99\common\strlen.c"
  2624 ;; Parameters:    Size  Location     Type
  2625 ;;  s               2    0[COMRAM] PTR const unsigned char 
  2626 ;;		 -> dbuf(32), 
  2627 ;; Auto vars:     Size  Location     Type
  2628 ;;  a               2    2[COMRAM] PTR const unsigned char 
  2629 ;;		 -> dbuf(32), 
  2630 ;; Return value:  Size  Location     Type
  2631 ;;                  2    0[COMRAM] unsigned int 
  2632 ;; Registers used:
  2633 ;;		wreg, fsr2l, fsr2h, status,2, status,0
  2634 ;; Tracked objects:
  2635 ;;		On entry : 0/0
  2636 ;;		On exit  : 0/0
  2637 ;;		Unchanged: 0/0
  2638 ;; Data sizes:     COMRAM   BANK0   BANK1   BANK2   BANK3   BANK4   BANK5   BANK6   BANK7   BANK8   BANK9  BANK10  BANK1
      +1  BANK12  BANK13  BANK14  BANK15  BANK16  BANK17  BANK18  BANK19  BANK20  BANK21  BANK22  BANK23  BANK24  BANK25  BANK2
      +6  BANK27  BANK28  BANK29  BANK30  BANK31
  2639 ;;      Params:         2       0       0       0       0       0       0       0       0       0       0       0       
      +0       0       0       0       0       0       0       0       0       0       0       0       0       0       0       
      +0       0       0       0       0       0
  2640 ;;      Locals:         2       0       0       0       0       0       0       0       0       0       0       0       
      +0       0       0       0       0       0       0       0       0       0       0       0       0       0       0       
      +0       0       0       0       0       0
  2641 ;;      Temps:          0       0       0       0       0       0       0       0       0       0       0       0       
      +0       0       0       0       0       0       0       0       0       0       0       0       0       0       0       
      +0       0       0       0       0       0
  2642 ;;      Totals:         4       0       0       0       0       0       0       0       0       0       0       0       
      +0       0       0       0       0       0       0       0       0       0       0       0       0       0       0       
      +0       0       0       0       0       0
  2643 ;;Total ram usage:        4 bytes
  2644 ;; Hardware stack levels used: 1
  2645 ;; Hardware stack levels required when called: 4
  2646 ;; This function calls:
  2647 ;;		Nothing
  2648 ;; This function is called by:
  2649 ;;		_pad
  2650 ;; This function uses a non-reentrant model
  2651 ;;
  2652                           
  2653                           	psect	text6
  2654  003C58                     __ptext6:
  2655                           	callstack 0
  2656  003C58                     _strlen:
  2657                           	callstack 21
  2658  003C58  C001  F003         	movff	strlen@s,strlen@a
  2659  003C5C  C002  F004         	movff	strlen@s+1,strlen@a+1
  2660  003C60  EF34  F01E         	goto	l2816
  2661  003C64                     l2814:
  2662  003C64  4A01               	infsnz	strlen@s^0,f,c
  2663  003C66  2A02               	incf	(strlen@s+1)^0,f,c
  2664  003C68                     l2816:
  2665  003C68  0060  F007  FFD9   	movff	strlen@s,fsr2l
  2666  003C6E  0060  F00B  FFDA   	movff	strlen@s+1,fsr2h
  2667  003C74  50DF               	movf	indf2,w,c
  2668  003C76  A4D8               	btfss	status,2,c
  2669  003C78  EF40  F01E         	goto	u1561
  2670  003C7C  EF42  F01E         	goto	u1560
  2671  003C80                     u1561:
  2672  003C80  EF32  F01E         	goto	l2814
  2673  003C84                     u1560:
  2674  003C84  5003               	movf	strlen@a^0,w,c
  2675  003C86  5C01               	subwf	strlen@s^0,w,c
  2676  003C88  6E01               	movwf	?_strlen^0,c
  2677  003C8A  5004               	movf	(strlen@a+1)^0,w,c
  2678  003C8C  5802               	subwfb	(strlen@s+1)^0,w,c
  2679  003C8E  6E02               	movwf	(?_strlen+1)^0,c
  2680  003C90  0012               	return		;funcret
  2681  003C92                     __end_of_strlen:
  2682                           	callstack 0
  2683                           
  2684 ;; *************** function _fputs *****************
  2685 ;; Defined at:
  2686 ;;		line 8 in file "C:\Program Files\Microchip\xc8\v2.32\pic\sources\c99\common\nf_fputs.c"
  2687 ;; Parameters:    Size  Location     Type
  2688 ;;  s               2   11[COMRAM] PTR const unsigned char 
  2689 ;;		 -> dbuf(32), 
  2690 ;;  fp              2   13[COMRAM] PTR struct _IO_FILE
  2691 ;;		 -> NULL(0), 
  2692 ;; Auto vars:     Size  Location     Type
  2693 ;;  i               2   16[COMRAM] int 
  2694 ;;  c               1   15[COMRAM] unsigned char 
  2695 ;; Return value:  Size  Location     Type
  2696 ;;                  2   11[COMRAM] int 
  2697 ;; Registers used:
  2698 ;;		wreg, fsr1l, fsr1h, fsr2l, fsr2h, status,2, status,0, cstack
  2699 ;; Tracked objects:
  2700 ;;		On entry : 0/0
  2701 ;;		On exit  : 0/0
  2702 ;;		Unchanged: 0/0
  2703 ;; Data sizes:     COMRAM   BANK0   BANK1   BANK2   BANK3   BANK4   BANK5   BANK6   BANK7   BANK8   BANK9  BANK10  BANK1
      +1  BANK12  BANK13  BANK14  BANK15  BANK16  BANK17  BANK18  BANK19  BANK20  BANK21  BANK22  BANK23  BANK24  BANK25  BANK2
      +6  BANK27  BANK28  BANK29  BANK30  BANK31
  2704 ;;      Params:         4       0       0       0       0       0       0       0       0       0       0       0       
      +0       0       0       0       0       0       0       0       0       0       0       0       0       0       0       
      +0       0       0       0       0       0
  2705 ;;      Locals:         3       0       0       0       0       0       0       0       0       0       0       0       
      +0       0       0       0       0       0       0       0       0       0       0       0       0       0       0       
      +0       0       0       0       0       0
  2706 ;;      Temps:          0       0       0       0       0       0       0       0       0       0       0       0       
      +0       0       0       0       0       0       0       0       0       0       0       0       0       0       0       
      +0       0       0       0       0       0
  2707 ;;      Totals:         7       0       0       0       0       0       0       0       0       0       0       0       
      +0       0       0       0       0       0       0       0       0       0       0       0       0       0       0       
      +0       0       0       0       0       0
  2708 ;;Total ram usage:        7 bytes
  2709 ;; Hardware stack levels used: 1
  2710 ;; Hardware stack levels required when called: 7
  2711 ;; This function calls:
  2712 ;;		_fputc
  2713 ;; This function is called by:
  2714 ;;		_pad
  2715 ;; This function uses a non-reentrant model
  2716 ;;
  2717                           
  2718                           	psect	text7
  2719  003B92                     __ptext7:
  2720                           	callstack 0
  2721  003B92                     _fputs:
  2722                           	callstack 18
  2723  003B92  0E00               	movlw	0
  2724  003B94  6E12               	movwf	(fputs@i+1)^0,c
  2725  003B96  0E00               	movlw	0
  2726  003B98  6E11               	movwf	fputs@i^0,c
  2727  003B9A  EFDA  F01D         	goto	l2810
  2728  003B9E                     l2806:
  2729  003B9E  C010  F003         	movff	fputs@c,fputc@c
  2730  003BA2  6A04               	clrf	(fputc@c+1)^0,c
  2731  003BA4  C00E  F005         	movff	fputs@fp,fputc@fp
  2732  003BA8  C00F  F006         	movff	fputs@fp+1,fputc@fp+1
  2733  003BAC  ECD7  F01C         	call	_fputc	;wreg free
  2734  003BB0  4A11               	infsnz	fputs@i^0,f,c
  2735  003BB2  2A12               	incf	(fputs@i+1)^0,f,c
  2736  003BB4                     l2810:
  2737  003BB4  5011               	movf	fputs@i^0,w,c
  2738  003BB6  240C               	addwf	fputs@s^0,w,c
  2739  003BB8  6ED9               	movwf	fsr2l,c
  2740  003BBA  5012               	movf	(fputs@i+1)^0,w,c
  2741  003BBC  200D               	addwfc	(fputs@s+1)^0,w,c
  2742  003BBE  6EDA               	movwf	fsr2h,c
  2743  003BC0  50DF               	movf	indf2,w,c
  2744  003BC2  6E10               	movwf	fputs@c^0,c
  2745  003BC4  5010               	movf	fputs@c^0,w,c
  2746  003BC6  A4D8               	btfss	status,2,c
  2747  003BC8  EFE8  F01D         	goto	u1551
  2748  003BCC  EFEA  F01D         	goto	u1550
  2749  003BD0                     u1551:
  2750  003BD0  EFCF  F01D         	goto	l2806
  2751  003BD4                     u1550:
  2752  003BD4  0012               	return		;funcret
  2753  003BD6                     __end_of_fputs:
  2754                           	callstack 0
  2755                           
  2756 ;; *************** function _fputc *****************
  2757 ;; Defined at:
  2758 ;;		line 8 in file "C:\Program Files\Microchip\xc8\v2.32\pic\sources\c99\common\nf_fputc.c"
  2759 ;; Parameters:    Size  Location     Type
  2760 ;;  c               2    2[COMRAM] int 
  2761 ;;  fp              2    4[COMRAM] PTR struct _IO_FILE
  2762 ;;		 -> NULL(0), 
  2763 ;; Auto vars:     Size  Location     Type
  2764 ;;		None
  2765 ;; Return value:  Size  Location     Type
  2766 ;;                  2    2[COMRAM] int 
  2767 ;; Registers used:
  2768 ;;		wreg, fsr1l, fsr1h, fsr2l, fsr2h, status,2, status,0, cstack
  2769 ;; Tracked objects:
  2770 ;;		On entry : 0/0
  2771 ;;		On exit  : 0/0
  2772 ;;		Unchanged: 0/0
  2773 ;; Data sizes:     COMRAM   BANK0   BANK1   BANK2   BANK3   BANK4   BANK5   BANK6   BANK7   BANK8   BANK9  BANK10  BANK1
      +1  BANK12  BANK13  BANK14  BANK15  BANK16  BANK17  BANK18  BANK19  BANK20  BANK21  BANK22  BANK23  BANK24  BANK25  BANK2
      +6  BANK27  BANK28  BANK29  BANK30  BANK31
  2774 ;;      Params:         4       0       0       0       0       0       0       0       0       0       0       0       
      +0       0       0       0       0       0       0       0       0       0       0       0       0       0       0       
      +0       0       0       0       0       0
  2775 ;;      Locals:         0       0       0       0       0       0       0       0       0       0       0       0       
      +0       0       0       0       0       0       0       0       0       0       0       0       0       0       0       
      +0       0       0       0       0       0
  2776 ;;      Temps:          5       0       0       0       0       0       0       0       0       0       0       0       
      +0       0       0       0       0       0       0       0       0       0       0       0       0       0       0       
      +0       0       0       0       0       0
  2777 ;;      Totals:         9       0       0       0       0       0       0       0       0       0       0       0       
      +0       0       0       0       0       0       0       0       0       0       0       0       0       0       0       
      +0       0       0       0       0       0
  2778 ;;Total ram usage:        9 bytes
  2779 ;; Hardware stack levels used: 1
  2780 ;; Hardware stack levels required when called: 6
  2781 ;; This function calls:
  2782 ;;		_putch
  2783 ;; This function is called by:
  2784 ;;		_pad
  2785 ;;		_vfpfcnvrt
  2786 ;;		_fputs
  2787 ;; This function uses a non-reentrant model
  2788 ;;
  2789                           
  2790                           	psect	text8
  2791  0039AE                     __ptext8:
  2792                           	callstack 0
  2793  0039AE                     _fputc:
  2794                           	callstack 21
  2795  0039AE  5005               	movf	fputc@fp^0,w,c
  2796  0039B0  1006               	iorwf	(fputc@fp+1)^0,w,c
  2797  0039B2  B4D8               	btfsc	status,2,c
  2798  0039B4  EFDE  F01C         	goto	u1511
  2799  0039B8  EFE0  F01C         	goto	u1510
  2800  0039BC                     u1511:
  2801  0039BC  EFE9  F01C         	goto	l2794
  2802  0039C0                     u1510:
  2803  0039C0  5005               	movf	fputc@fp^0,w,c
  2804  0039C2  1006               	iorwf	(fputc@fp+1)^0,w,c
  2805  0039C4  A4D8               	btfss	status,2,c
  2806  0039C6  EFE7  F01C         	goto	u1521
  2807  0039CA  EFE9  F01C         	goto	u1520
  2808  0039CE                     u1521:
  2809  0039CE  EFEE  F01C         	goto	l2796
  2810  0039D2                     u1520:
  2811  0039D2                     l2794:
  2812  0039D2  5003               	movf	fputc@c^0,w,c
  2813  0039D4  EC1B  F01F         	call	_putch
  2814  0039D8  EF21  F01D         	goto	l1412
  2815  0039DC                     l2796:
  2816  0039DC  EE20 F004          	lfsr	2,4
  2817  0039E0  5005               	movf	fputc@fp^0,w,c
  2818  0039E2  26D9               	addwf	fsr2l,f,c
  2819  0039E4  5006               	movf	(fputc@fp+1)^0,w,c
  2820  0039E6  22DA               	addwfc	fsr2h,f,c
  2821  0039E8  50DE               	movf	postinc2,w,c
  2822  0039EA  10DE               	iorwf	postinc2,w,c
  2823  0039EC  B4D8               	btfsc	status,2,c
  2824  0039EE  EFFB  F01C         	goto	u1531
  2825  0039F2  EFFD  F01C         	goto	u1530
  2826  0039F6                     u1531:
  2827  0039F6  EF18  F01D         	goto	l2800
  2828  0039FA                     u1530:
  2829  0039FA  EE20 F004          	lfsr	2,4
  2830  0039FE  5005               	movf	fputc@fp^0,w,c
  2831  003A00  26D9               	addwf	fsr2l,f,c
  2832  003A02  5006               	movf	(fputc@fp+1)^0,w,c
  2833  003A04  22DA               	addwfc	fsr2h,f,c
  2834  003A06  EE10 F002          	lfsr	1,2
  2835  003A0A  5005               	movf	fputc@fp^0,w,c
  2836  003A0C  26E1               	addwf	fsr1l,f,c
  2837  003A0E  5006               	movf	(fputc@fp+1)^0,w,c
  2838  003A10  22E2               	addwfc	fsr1h,f,c
  2839  003A12  50DE               	movf	postinc2,w,c
  2840  003A14  5CE6               	subwf	postinc1,w,c
  2841  003A16  50E6               	movf	postinc1,w,c
  2842  003A18  0A80               	xorlw	128
  2843  003A1A  6E0B               	movwf	(??_fputc+4)^0,c
  2844  003A1C  50DE               	movf	postinc2,w,c
  2845  003A1E  0A80               	xorlw	128
  2846  003A20  580B               	subwfb	(??_fputc+4)^0,w,c
  2847  003A22  B0D8               	btfsc	status,0,c
  2848  003A24  EF16  F01D         	goto	u1541
  2849  003A28  EF18  F01D         	goto	u1540
  2850  003A2C                     u1541:
  2851  003A2C  EF21  F01D         	goto	l1412
  2852  003A30                     u1540:
  2853  003A30                     l2800:
  2854  003A30  EE20 F002          	lfsr	2,2
  2855  003A34  5005               	movf	fputc@fp^0,w,c
  2856  003A36  26D9               	addwf	fsr2l,f,c
  2857  003A38  5006               	movf	(fputc@fp+1)^0,w,c
  2858  003A3A  22DA               	addwfc	fsr2h,f,c
  2859  003A3C  2ADE               	incf	postinc2,f,c
  2860  003A3E  0E00               	movlw	0
  2861  003A40  22DD               	addwfc	postdec2,f,c
  2862  003A42                     l1412:
  2863  003A42  0012               	return		;funcret
  2864  003A44                     __end_of_fputc:
  2865                           	callstack 0
  2866                           
  2867 ;; *************** function _putch *****************
  2868 ;; Defined at:
  2869 ;;		line 184 in file "mcc_generated_files/uart1.c"
  2870 ;; Parameters:    Size  Location     Type
  2871 ;;  txData          1    wreg     unsigned char 
  2872 ;; Auto vars:     Size  Location     Type
  2873 ;;  txData          1    1[COMRAM] unsigned char 
  2874 ;; Return value:  Size  Location     Type
  2875 ;;                  1    wreg      void 
  2876 ;; Registers used:
  2877 ;;		wreg, status,2, cstack
  2878 ;; Tracked objects:
  2879 ;;		On entry : 0/0
  2880 ;;		On exit  : 0/0
  2881 ;;		Unchanged: 0/0
  2882 ;; Data sizes:     COMRAM   BANK0   BANK1   BANK2   BANK3   BANK4   BANK5   BANK6   BANK7   BANK8   BANK9  BANK10  BANK1
      +1  BANK12  BANK13  BANK14  BANK15  BANK16  BANK17  BANK18  BANK19  BANK20  BANK21  BANK22  BANK23  BANK24  BANK25  BANK2
      +6  BANK27  BANK28  BANK29  BANK30  BANK31
  2883 ;;      Params:         0       0       0       0       0       0       0       0       0       0       0       0       
      +0       0       0       0       0       0       0       0       0       0       0       0       0       0       0       
      +0       0       0       0       0       0
  2884 ;;      Locals:         1       0       0       0       0       0       0       0       0       0       0       0       
      +0       0       0       0       0       0       0       0       0       0       0       0       0       0       0       
      +0       0       0       0       0       0
  2885 ;;      Temps:          0       0       0       0       0       0       0       0       0       0       0       0       
      +0       0       0       0       0       0       0       0       0       0       0       0       0       0       0       
      +0       0       0       0       0       0
  2886 ;;      Totals:         1       0       0       0       0       0       0       0       0       0       0       0       
      +0       0       0       0       0       0       0       0       0       0       0       0       0       0       0       
      +0       0       0       0       0       0
  2887 ;;Total ram usage:        1 bytes
  2888 ;; Hardware stack levels used: 1
  2889 ;; Hardware stack levels required when called: 5
  2890 ;; This function calls:
  2891 ;;		_UART1_Write
  2892 ;; This function is called by:
  2893 ;;		_fputc
  2894 ;; This function uses a non-reentrant model
  2895 ;;
  2896                           
  2897                           	psect	text9
  2898  003E36                     __ptext9:
  2899                           	callstack 0
  2900  003E36                     _putch:
  2901                           	callstack 21
  2902                           
  2903                           ;incstack = 0
  2904                           ;putch@txData stored from wreg
  2905  003E36  6E02               	movwf	putch@txData^0,c
  2906  003E38                     
  2907                           ;mcc_generated_files/uart1.c: 184: void putch(char txData);mcc_generated_files/uart1.c: 
      +                          185: {;mcc_generated_files/uart1.c: 186:     UART1_Write(txData);
  2908  003E38  5002               	movf	putch@txData^0,w,c
  2909  003E3A  ECDE  F01E         	call	_UART1_Write
  2910  003E3E  0012               	return		;funcret
  2911  003E40                     __end_of_putch:
  2912                           	callstack 0
  2913                           
  2914 ;; *************** function _UART1_Write *****************
  2915 ;; Defined at:
  2916 ;;		line 170 in file "mcc_generated_files/uart1.c"
  2917 ;; Parameters:    Size  Location     Type
  2918 ;;  txData          1    wreg     unsigned char 
  2919 ;; Auto vars:     Size  Location     Type
  2920 ;;  txData          1    0[COMRAM] unsigned char 
  2921 ;; Return value:  Size  Location     Type
  2922 ;;                  1    wreg      void 
  2923 ;; Registers used:
  2924 ;;		wreg
  2925 ;; Tracked objects:
  2926 ;;		On entry : 0/0
  2927 ;;		On exit  : 0/0
  2928 ;;		Unchanged: 0/0
  2929 ;; Data sizes:     COMRAM   BANK0   BANK1   BANK2   BANK3   BANK4   BANK5   BANK6   BANK7   BANK8   BANK9  BANK10  BANK1
      +1  BANK12  BANK13  BANK14  BANK15  BANK16  BANK17  BANK18  BANK19  BANK20  BANK21  BANK22  BANK23  BANK24  BANK25  BANK2
      +6  BANK27  BANK28  BANK29  BANK30  BANK31
  2930 ;;      Params:         0       0       0       0       0       0       0       0       0       0       0       0       
      +0       0       0       0       0       0       0       0       0       0       0       0       0       0       0       
      +0       0       0       0       0       0
  2931 ;;      Locals:         1       0       0       0       0       0       0       0       0       0       0       0       
      +0       0       0       0       0       0       0       0       0       0       0       0       0       0       0       
      +0       0       0       0       0       0
  2932 ;;      Temps:          0       0       0       0       0       0       0       0       0       0       0       0       
      +0       0       0       0       0       0       0       0       0       0       0       0       0       0       0       
      +0       0       0       0       0       0
  2933 ;;      Totals:         1       0       0       0       0       0       0       0       0       0       0       0       
      +0       0       0       0       0       0       0       0       0       0       0       0       0       0       0       
      +0       0       0       0       0       0
  2934 ;;Total ram usage:        1 bytes
  2935 ;; Hardware stack levels used: 1
  2936 ;; Hardware stack levels required when called: 4
  2937 ;; This function calls:
  2938 ;;		Nothing
  2939 ;; This function is called by:
  2940 ;;		_putch
  2941 ;; This function uses a non-reentrant model
  2942 ;;
  2943                           
  2944                           	psect	text10
  2945  003DBC                     __ptext10:
  2946                           	callstack 0
  2947  003DBC                     _UART1_Write:
  2948                           	callstack 21
  2949                           
  2950                           ;incstack = 0
  2951                           ;UART1_Write@txData stored from wreg
  2952  003DBC  6E01               	movwf	UART1_Write@txData^0,c
  2953  003DBE                     l333:
  2954                           
  2955                           ;mcc_generated_files/uart1.c: 172:     while(0 == PIR3bits.U1TXIF)
  2956  003DBE  0139               	movlb	57	; () banked
  2957  003DC0  A9A3               	btfss	163,4,b	;volatile
  2958  003DC2  EFE5  F01E         	goto	u1501
  2959  003DC6  EFE7  F01E         	goto	u1500
  2960  003DCA                     u1501:
  2961  003DCA  EFDF  F01E         	goto	l333
  2962  003DCE                     u1500:
  2963  003DCE                     
  2964                           ; BSR set to: 57
  2965                           ;mcc_generated_files/uart1.c: 176:     U1TXB = txData;
  2966  003DCE  0060  F007  FDEA   	movff	UART1_Write@txData,15850	;volatile
  2967  003DD4                     
  2968                           ; BSR set to: 57
  2969  003DD4  0012               	return		;funcret
  2970  003DD6                     __end_of_UART1_Write:
  2971                           	callstack 0
  2972                           
  2973 ;; *************** function _abs *****************
  2974 ;; Defined at:
  2975 ;;		line 1 in file "C:\Program Files\Microchip\xc8\v2.32\pic\sources\c99\common\abs.c"
  2976 ;; Parameters:    Size  Location     Type
  2977 ;;  a               2   18[COMRAM] int 
  2978 ;; Auto vars:     Size  Location     Type
  2979 ;;		None
  2980 ;; Return value:  Size  Location     Type
  2981 ;;                  2   18[COMRAM] int 
  2982 ;; Registers used:
  2983 ;;		wreg, status,2, status,0
  2984 ;; Tracked objects:
  2985 ;;		On entry : 0/0
  2986 ;;		On exit  : 0/0
  2987 ;;		Unchanged: 0/0
  2988 ;; Data sizes:     COMRAM   BANK0   BANK1   BANK2   BANK3   BANK4   BANK5   BANK6   BANK7   BANK8   BANK9  BANK10  BANK1
      +1  BANK12  BANK13  BANK14  BANK15  BANK16  BANK17  BANK18  BANK19  BANK20  BANK21  BANK22  BANK23  BANK24  BANK25  BANK2
      +6  BANK27  BANK28  BANK29  BANK30  BANK31
  2989 ;;      Params:         2       0       0       0       0       0       0       0       0       0       0       0       
      +0       0       0       0       0       0       0       0       0       0       0       0       0       0       0       
      +0       0       0       0       0       0
  2990 ;;      Locals:         0       0       0       0       0       0       0       0       0       0       0       0       
      +0       0       0       0       0       0       0       0       0       0       0       0       0       0       0       
      +0       0       0       0       0       0
  2991 ;;      Temps:          2       0       0       0       0       0       0       0       0       0       0       0       
      +0       0       0       0       0       0       0       0       0       0       0       0       0       0       0       
      +0       0       0       0       0       0
  2992 ;;      Totals:         4       0       0       0       0       0       0       0       0       0       0       0       
      +0       0       0       0       0       0       0       0       0       0       0       0       0       0       0       
      +0       0       0       0       0       0
  2993 ;;Total ram usage:        4 bytes
  2994 ;; Hardware stack levels used: 1
  2995 ;; Hardware stack levels required when called: 4
  2996 ;; This function calls:
  2997 ;;		Nothing
  2998 ;; This function is called by:
  2999 ;;		_dtoa
  3000 ;; This function uses a non-reentrant model
  3001 ;;
  3002                           
  3003                           	psect	text11
  3004  003C18                     __ptext11:
  3005                           	callstack 0
  3006  003C18                     _abs:
  3007                           	callstack 22
  3008  003C18  BE14               	btfsc	(abs@a+1)^0,7,c
  3009  003C1A  EF19  F01E         	goto	u1740
  3010  003C1E  5014               	movf	(abs@a+1)^0,w,c
  3011  003C20  E106               	bnz	u1741
  3012  003C22  0413               	decf	abs@a^0,w,c
  3013  003C24  B0D8               	btfsc	status,0,c
  3014  003C26  EF17  F01E         	goto	u1741
  3015  003C2A  EF19  F01E         	goto	u1740
  3016  003C2E                     u1741:
  3017  003C2E  EF27  F01E         	goto	l1397
  3018  003C32                     u1740:
  3019  003C32  C013  F015         	movff	abs@a,??_abs
  3020  003C36  C014  F016         	movff	abs@a+1,??_abs+1
  3021  003C3A  1E15               	comf	??_abs^0,f,c
  3022  003C3C  1E16               	comf	(??_abs+1)^0,f,c
  3023  003C3E  4A15               	infsnz	??_abs^0,f,c
  3024  003C40  2A16               	incf	(??_abs+1)^0,f,c
  3025  003C42  C015  F013         	movff	??_abs,?_abs
  3026  003C46  C016  F014         	movff	??_abs+1,?_abs+1
  3027  003C4A  EF2B  F01E         	goto	l1400
  3028  003C4E                     l1397:
  3029  003C4E  C013  F013         	movff	abs@a,?_abs
  3030  003C52  C014  F014         	movff	abs@a+1,?_abs+1
  3031  003C56                     l1400:
  3032  003C56  0012               	return		;funcret
  3033  003C58                     __end_of_abs:
  3034                           	callstack 0
  3035                           
  3036 ;; *************** function ___aomod *****************
  3037 ;; Defined at:
  3038 ;;		line 9 in file "C:\Program Files\Microchip\xc8\v2.32\pic\sources\c99\common\aomod.c"
  3039 ;; Parameters:    Size  Location     Type
  3040 ;;  dividend        8    0[COMRAM] long long 
  3041 ;;  divisor         8    8[COMRAM] long long 
  3042 ;; Auto vars:     Size  Location     Type
  3043 ;;  sign            1   17[COMRAM] unsigned char 
  3044 ;;  counter         1   16[COMRAM] unsigned char 
  3045 ;; Return value:  Size  Location     Type
  3046 ;;                  8    0[COMRAM] long long 
  3047 ;; Registers used:
  3048 ;;		wreg, status,2, status,0
  3049 ;; Tracked objects:
  3050 ;;		On entry : 0/0
  3051 ;;		On exit  : 0/0
  3052 ;;		Unchanged: 0/0
  3053 ;; Data sizes:     COMRAM   BANK0   BANK1   BANK2   BANK3   BANK4   BANK5   BANK6   BANK7   BANK8   BANK9  BANK10  BANK1
      +1  BANK12  BANK13  BANK14  BANK15  BANK16  BANK17  BANK18  BANK19  BANK20  BANK21  BANK22  BANK23  BANK24  BANK25  BANK2
      +6  BANK27  BANK28  BANK29  BANK30  BANK31
  3054 ;;      Params:        16       0       0       0       0       0       0       0       0       0       0       0       
      +0       0       0       0       0       0       0       0       0       0       0       0       0       0       0       
      +0       0       0       0       0       0
  3055 ;;      Locals:         2       0       0       0       0       0       0       0       0       0       0       0       
      +0       0       0       0       0       0       0       0       0       0       0       0       0       0       0       
      +0       0       0       0       0       0
  3056 ;;      Temps:          0       0       0       0       0       0       0       0       0       0       0       0       
      +0       0       0       0       0       0       0       0       0       0       0       0       0       0       0       
      +0       0       0       0       0       0
  3057 ;;      Totals:        18       0       0       0       0       0       0       0       0       0       0       0       
      +0       0       0       0       0       0       0       0       0       0       0       0       0       0       0       
      +0       0       0       0       0       0
  3058 ;;Total ram usage:       18 bytes
  3059 ;; Hardware stack levels used: 1
  3060 ;; Hardware stack levels required when called: 4
  3061 ;; This function calls:
  3062 ;;		Nothing
  3063 ;; This function is called by:
  3064 ;;		_dtoa
  3065 ;; This function uses a non-reentrant model
  3066 ;;
  3067                           
  3068                           	psect	text12
  3069  0035D8                     __ptext12:
  3070                           	callstack 0
  3071  0035D8                     ___aomod:
  3072                           	callstack 22
  3073  0035D8  0E00               	movlw	0
  3074  0035DA  6E12               	movwf	___aomod@sign^0,c
  3075  0035DC  BE08               	btfsc	(___aomod@dividend+7)^0,7,c
  3076  0035DE  EFF5  F01A         	goto	u1640
  3077  0035E2  EFF3  F01A         	goto	u1641
  3078  0035E6                     u1641:
  3079  0035E6  EF07  F01B         	goto	l2874
  3080  0035EA                     u1640:
  3081  0035EA  1E08               	comf	(___aomod@dividend+7)^0,f,c
  3082  0035EC  1E07               	comf	(___aomod@dividend+6)^0,f,c
  3083  0035EE  1E06               	comf	(___aomod@dividend+5)^0,f,c
  3084  0035F0  1E05               	comf	(___aomod@dividend+4)^0,f,c
  3085  0035F2  1E04               	comf	(___aomod@dividend+3)^0,f,c
  3086  0035F4  1E03               	comf	(___aomod@dividend+2)^0,f,c
  3087  0035F6  1E02               	comf	(___aomod@dividend+1)^0,f,c
  3088  0035F8  6C01               	negf	___aomod@dividend^0,c
  3089  0035FA  0E00               	movlw	0
  3090  0035FC  2202               	addwfc	(___aomod@dividend+1)^0,f,c
  3091  0035FE  2203               	addwfc	(___aomod@dividend+2)^0,f,c
  3092  003600  2204               	addwfc	(___aomod@dividend+3)^0,f,c
  3093  003602  2205               	addwfc	(___aomod@dividend+4)^0,f,c
  3094  003604  2206               	addwfc	(___aomod@dividend+5)^0,f,c
  3095  003606  2207               	addwfc	(___aomod@dividend+6)^0,f,c
  3096  003608  2208               	addwfc	(___aomod@dividend+7)^0,f,c
  3097  00360A  0E01               	movlw	1
  3098  00360C  6E12               	movwf	___aomod@sign^0,c
  3099  00360E                     l2874:
  3100  00360E  BE10               	btfsc	(___aomod@divisor+7)^0,7,c
  3101  003610  EF0E  F01B         	goto	u1650
  3102  003614  EF0C  F01B         	goto	u1651
  3103  003618                     u1651:
  3104  003618  EF1E  F01B         	goto	l2878
  3105  00361C                     u1650:
  3106  00361C  1E10               	comf	(___aomod@divisor+7)^0,f,c
  3107  00361E  1E0F               	comf	(___aomod@divisor+6)^0,f,c
  3108  003620  1E0E               	comf	(___aomod@divisor+5)^0,f,c
  3109  003622  1E0D               	comf	(___aomod@divisor+4)^0,f,c
  3110  003624  1E0C               	comf	(___aomod@divisor+3)^0,f,c
  3111  003626  1E0B               	comf	(___aomod@divisor+2)^0,f,c
  3112  003628  1E0A               	comf	(___aomod@divisor+1)^0,f,c
  3113  00362A  6C09               	negf	___aomod@divisor^0,c
  3114  00362C  0E00               	movlw	0
  3115  00362E  220A               	addwfc	(___aomod@divisor+1)^0,f,c
  3116  003630  220B               	addwfc	(___aomod@divisor+2)^0,f,c
  3117  003632  220C               	addwfc	(___aomod@divisor+3)^0,f,c
  3118  003634  220D               	addwfc	(___aomod@divisor+4)^0,f,c
  3119  003636  220E               	addwfc	(___aomod@divisor+5)^0,f,c
  3120  003638  220F               	addwfc	(___aomod@divisor+6)^0,f,c
  3121  00363A  2210               	addwfc	(___aomod@divisor+7)^0,f,c
  3122  00363C                     l2878:
  3123  00363C  5009               	movf	___aomod@divisor^0,w,c
  3124  00363E  100A               	iorwf	(___aomod@divisor+1)^0,w,c
  3125  003640  100B               	iorwf	(___aomod@divisor+2)^0,w,c
  3126  003642  100C               	iorwf	(___aomod@divisor+3)^0,w,c
  3127  003644  100D               	iorwf	(___aomod@divisor+4)^0,w,c
  3128  003646  100E               	iorwf	(___aomod@divisor+5)^0,w,c
  3129  003648  100F               	iorwf	(___aomod@divisor+6)^0,w,c
  3130  00364A  1010               	iorwf	(___aomod@divisor+7)^0,w,c
  3131  00364C  B4D8               	btfsc	status,2,c
  3132  00364E  EF2B  F01B         	goto	u1661
  3133  003652  EF2D  F01B         	goto	u1660
  3134  003656                     u1661:
  3135  003656  EF75  F01B         	goto	l2894
  3136  00365A                     u1660:
  3137  00365A  0E01               	movlw	1
  3138  00365C  6E11               	movwf	___aomod@counter^0,c
  3139  00365E  EF3B  F01B         	goto	l2884
  3140  003662                     l2882:
  3141  003662  90D8               	bcf	status,0,c
  3142  003664  3609               	rlcf	___aomod@divisor^0,f,c
  3143  003666  360A               	rlcf	(___aomod@divisor+1)^0,f,c
  3144  003668  360B               	rlcf	(___aomod@divisor+2)^0,f,c
  3145  00366A  360C               	rlcf	(___aomod@divisor+3)^0,f,c
  3146  00366C  360D               	rlcf	(___aomod@divisor+4)^0,f,c
  3147  00366E  360E               	rlcf	(___aomod@divisor+5)^0,f,c
  3148  003670  360F               	rlcf	(___aomod@divisor+6)^0,f,c
  3149  003672  3610               	rlcf	(___aomod@divisor+7)^0,f,c
  3150  003674  2A11               	incf	___aomod@counter^0,f,c
  3151  003676                     l2884:
  3152  003676  AE10               	btfss	(___aomod@divisor+7)^0,7,c
  3153  003678  EF40  F01B         	goto	u1671
  3154  00367C  EF42  F01B         	goto	u1670
  3155  003680                     u1671:
  3156  003680  EF31  F01B         	goto	l2882
  3157  003684                     u1670:
  3158  003684                     l2886:
  3159  003684  5009               	movf	___aomod@divisor^0,w,c
  3160  003686  5C01               	subwf	___aomod@dividend^0,w,c
  3161  003688  500A               	movf	(___aomod@divisor+1)^0,w,c
  3162  00368A  5802               	subwfb	(___aomod@dividend+1)^0,w,c
  3163  00368C  500B               	movf	(___aomod@divisor+2)^0,w,c
  3164  00368E  5803               	subwfb	(___aomod@dividend+2)^0,w,c
  3165  003690  500C               	movf	(___aomod@divisor+3)^0,w,c
  3166  003692  5804               	subwfb	(___aomod@dividend+3)^0,w,c
  3167  003694  500D               	movf	(___aomod@divisor+4)^0,w,c
  3168  003696  5805               	subwfb	(___aomod@dividend+4)^0,w,c
  3169  003698  500E               	movf	(___aomod@divisor+5)^0,w,c
  3170  00369A  5806               	subwfb	(___aomod@dividend+5)^0,w,c
  3171  00369C  500F               	movf	(___aomod@divisor+6)^0,w,c
  3172  00369E  5807               	subwfb	(___aomod@dividend+6)^0,w,c
  3173  0036A0  5010               	movf	(___aomod@divisor+7)^0,w,c
  3174  0036A2  5808               	subwfb	(___aomod@dividend+7)^0,w,c
  3175  0036A4  A0D8               	btfss	status,0,c
  3176  0036A6  EF57  F01B         	goto	u1681
  3177  0036AA  EF59  F01B         	goto	u1680
  3178  0036AE                     u1681:
  3179  0036AE  EF69  F01B         	goto	l2890
  3180  0036B2                     u1680:
  3181  0036B2  5009               	movf	___aomod@divisor^0,w,c
  3182  0036B4  5E01               	subwf	___aomod@dividend^0,f,c
  3183  0036B6  500A               	movf	(___aomod@divisor+1)^0,w,c
  3184  0036B8  5A02               	subwfb	(___aomod@dividend+1)^0,f,c
  3185  0036BA  500B               	movf	(___aomod@divisor+2)^0,w,c
  3186  0036BC  5A03               	subwfb	(___aomod@dividend+2)^0,f,c
  3187  0036BE  500C               	movf	(___aomod@divisor+3)^0,w,c
  3188  0036C0  5A04               	subwfb	(___aomod@dividend+3)^0,f,c
  3189  0036C2  500D               	movf	(___aomod@divisor+4)^0,w,c
  3190  0036C4  5A05               	subwfb	(___aomod@dividend+4)^0,f,c
  3191  0036C6  500E               	movf	(___aomod@divisor+5)^0,w,c
  3192  0036C8  5A06               	subwfb	(___aomod@dividend+5)^0,f,c
  3193  0036CA  500F               	movf	(___aomod@divisor+6)^0,w,c
  3194  0036CC  5A07               	subwfb	(___aomod@dividend+6)^0,f,c
  3195  0036CE  5010               	movf	(___aomod@divisor+7)^0,w,c
  3196  0036D0  5A08               	subwfb	(___aomod@dividend+7)^0,f,c
  3197  0036D2                     l2890:
  3198  0036D2  90D8               	bcf	status,0,c
  3199  0036D4  3210               	rrcf	(___aomod@divisor+7)^0,f,c
  3200  0036D6  320F               	rrcf	(___aomod@divisor+6)^0,f,c
  3201  0036D8  320E               	rrcf	(___aomod@divisor+5)^0,f,c
  3202  0036DA  320D               	rrcf	(___aomod@divisor+4)^0,f,c
  3203  0036DC  320C               	rrcf	(___aomod@divisor+3)^0,f,c
  3204  0036DE  320B               	rrcf	(___aomod@divisor+2)^0,f,c
  3205  0036E0  320A               	rrcf	(___aomod@divisor+1)^0,f,c
  3206  0036E2  3209               	rrcf	___aomod@divisor^0,f,c
  3207  0036E4  2E11               	decfsz	___aomod@counter^0,f,c
  3208  0036E6  EF42  F01B         	goto	l2886
  3209  0036EA                     l2894:
  3210  0036EA  5012               	movf	___aomod@sign^0,w,c
  3211  0036EC  B4D8               	btfsc	status,2,c
  3212  0036EE  EF7B  F01B         	goto	u1691
  3213  0036F2  EF7D  F01B         	goto	u1690
  3214  0036F6                     u1691:
  3215  0036F6  EF8D  F01B         	goto	l2898
  3216  0036FA                     u1690:
  3217  0036FA  1E08               	comf	(___aomod@dividend+7)^0,f,c
  3218  0036FC  1E07               	comf	(___aomod@dividend+6)^0,f,c
  3219  0036FE  1E06               	comf	(___aomod@dividend+5)^0,f,c
  3220  003700  1E05               	comf	(___aomod@dividend+4)^0,f,c
  3221  003702  1E04               	comf	(___aomod@dividend+3)^0,f,c
  3222  003704  1E03               	comf	(___aomod@dividend+2)^0,f,c
  3223  003706  1E02               	comf	(___aomod@dividend+1)^0,f,c
  3224  003708  6C01               	negf	___aomod@dividend^0,c
  3225  00370A  0E00               	movlw	0
  3226  00370C  2202               	addwfc	(___aomod@dividend+1)^0,f,c
  3227  00370E  2203               	addwfc	(___aomod@dividend+2)^0,f,c
  3228  003710  2204               	addwfc	(___aomod@dividend+3)^0,f,c
  3229  003712  2205               	addwfc	(___aomod@dividend+4)^0,f,c
  3230  003714  2206               	addwfc	(___aomod@dividend+5)^0,f,c
  3231  003716  2207               	addwfc	(___aomod@dividend+6)^0,f,c
  3232  003718  2208               	addwfc	(___aomod@dividend+7)^0,f,c
  3233  00371A                     l2898:
  3234  00371A  C001  F001         	movff	___aomod@dividend,?___aomod
  3235  00371E  C002  F002         	movff	___aomod@dividend+1,?___aomod+1
  3236  003722  C003  F003         	movff	___aomod@dividend+2,?___aomod+2
  3237  003726  C004  F004         	movff	___aomod@dividend+3,?___aomod+3
  3238  00372A  C005  F005         	movff	___aomod@dividend+4,?___aomod+4
  3239  00372E  C006  F006         	movff	___aomod@dividend+5,?___aomod+5
  3240  003732  C007  F007         	movff	___aomod@dividend+6,?___aomod+6
  3241  003736  C008  F008         	movff	___aomod@dividend+7,?___aomod+7
  3242  00373A  0012               	return		;funcret
  3243  00373C                     __end_of___aomod:
  3244                           	callstack 0
  3245                           
  3246 ;; *************** function ___aodiv *****************
  3247 ;; Defined at:
  3248 ;;		line 9 in file "C:\Program Files\Microchip\xc8\v2.32\pic\sources\c99\common\aodiv.c"
  3249 ;; Parameters:    Size  Location     Type
  3250 ;;  dividend        8    0[COMRAM] long long 
  3251 ;;  divisor         8    8[COMRAM] long long 
  3252 ;; Auto vars:     Size  Location     Type
  3253 ;;  quotient        8   18[COMRAM] long long 
  3254 ;;  sign            1   17[COMRAM] unsigned char 
  3255 ;;  counter         1   16[COMRAM] unsigned char 
  3256 ;; Return value:  Size  Location     Type
  3257 ;;                  8    0[COMRAM] long long 
  3258 ;; Registers used:
  3259 ;;		wreg, fsr2l, fsr2h, status,2, status,0
  3260 ;; Tracked objects:
  3261 ;;		On entry : 0/0
  3262 ;;		On exit  : 0/0
  3263 ;;		Unchanged: 0/0
  3264 ;; Data sizes:     COMRAM   BANK0   BANK1   BANK2   BANK3   BANK4   BANK5   BANK6   BANK7   BANK8   BANK9  BANK10  BANK1
      +1  BANK12  BANK13  BANK14  BANK15  BANK16  BANK17  BANK18  BANK19  BANK20  BANK21  BANK22  BANK23  BANK24  BANK25  BANK2
      +6  BANK27  BANK28  BANK29  BANK30  BANK31
  3265 ;;      Params:        16       0       0       0       0       0       0       0       0       0       0       0       
      +0       0       0       0       0       0       0       0       0       0       0       0       0       0       0       
      +0       0       0       0       0       0
  3266 ;;      Locals:        10       0       0       0       0       0       0       0       0       0       0       0       
      +0       0       0       0       0       0       0       0       0       0       0       0       0       0       0       
      +0       0       0       0       0       0
  3267 ;;      Temps:          0       0       0       0       0       0       0       0       0       0       0       0       
      +0       0       0       0       0       0       0       0       0       0       0       0       0       0       0       
      +0       0       0       0       0       0
  3268 ;;      Totals:        26       0       0       0       0       0       0       0       0       0       0       0       
      +0       0       0       0       0       0       0       0       0       0       0       0       0       0       0       
      +0       0       0       0       0       0
  3269 ;;Total ram usage:       26 bytes
  3270 ;; Hardware stack levels used: 1
  3271 ;; Hardware stack levels required when called: 4
  3272 ;; This function calls:
  3273 ;;		Nothing
  3274 ;; This function is called by:
  3275 ;;		_dtoa
  3276 ;; This function uses a non-reentrant model
  3277 ;;
  3278                           
  3279                           	psect	text13
  3280  003450                     __ptext13:
  3281                           	callstack 0
  3282  003450                     ___aodiv:
  3283                           	callstack 22
  3284  003450  0E00               	movlw	0
  3285  003452  6E12               	movwf	___aodiv@sign^0,c
  3286  003454  BE10               	btfsc	(___aodiv@divisor+7)^0,7,c
  3287  003456  EF31  F01A         	goto	u1570
  3288  00345A  EF2F  F01A         	goto	u1571
  3289  00345E                     u1571:
  3290  00345E  EF43  F01A         	goto	l2830
  3291  003462                     u1570:
  3292  003462  1E10               	comf	(___aodiv@divisor+7)^0,f,c
  3293  003464  1E0F               	comf	(___aodiv@divisor+6)^0,f,c
  3294  003466  1E0E               	comf	(___aodiv@divisor+5)^0,f,c
  3295  003468  1E0D               	comf	(___aodiv@divisor+4)^0,f,c
  3296  00346A  1E0C               	comf	(___aodiv@divisor+3)^0,f,c
  3297  00346C  1E0B               	comf	(___aodiv@divisor+2)^0,f,c
  3298  00346E  1E0A               	comf	(___aodiv@divisor+1)^0,f,c
  3299  003470  6C09               	negf	___aodiv@divisor^0,c
  3300  003472  0E00               	movlw	0
  3301  003474  220A               	addwfc	(___aodiv@divisor+1)^0,f,c
  3302  003476  220B               	addwfc	(___aodiv@divisor+2)^0,f,c
  3303  003478  220C               	addwfc	(___aodiv@divisor+3)^0,f,c
  3304  00347A  220D               	addwfc	(___aodiv@divisor+4)^0,f,c
  3305  00347C  220E               	addwfc	(___aodiv@divisor+5)^0,f,c
  3306  00347E  220F               	addwfc	(___aodiv@divisor+6)^0,f,c
  3307  003480  2210               	addwfc	(___aodiv@divisor+7)^0,f,c
  3308  003482  0E01               	movlw	1
  3309  003484  6E12               	movwf	___aodiv@sign^0,c
  3310  003486                     l2830:
  3311  003486  BE08               	btfsc	(___aodiv@dividend+7)^0,7,c
  3312  003488  EF4A  F01A         	goto	u1580
  3313  00348C  EF48  F01A         	goto	u1581
  3314  003490                     u1581:
  3315  003490  EF5C  F01A         	goto	l2836
  3316  003494                     u1580:
  3317  003494  1E08               	comf	(___aodiv@dividend+7)^0,f,c
  3318  003496  1E07               	comf	(___aodiv@dividend+6)^0,f,c
  3319  003498  1E06               	comf	(___aodiv@dividend+5)^0,f,c
  3320  00349A  1E05               	comf	(___aodiv@dividend+4)^0,f,c
  3321  00349C  1E04               	comf	(___aodiv@dividend+3)^0,f,c
  3322  00349E  1E03               	comf	(___aodiv@dividend+2)^0,f,c
  3323  0034A0  1E02               	comf	(___aodiv@dividend+1)^0,f,c
  3324  0034A2  6C01               	negf	___aodiv@dividend^0,c
  3325  0034A4  0E00               	movlw	0
  3326  0034A6  2202               	addwfc	(___aodiv@dividend+1)^0,f,c
  3327  0034A8  2203               	addwfc	(___aodiv@dividend+2)^0,f,c
  3328  0034AA  2204               	addwfc	(___aodiv@dividend+3)^0,f,c
  3329  0034AC  2205               	addwfc	(___aodiv@dividend+4)^0,f,c
  3330  0034AE  2206               	addwfc	(___aodiv@dividend+5)^0,f,c
  3331  0034B0  2207               	addwfc	(___aodiv@dividend+6)^0,f,c
  3332  0034B2  2208               	addwfc	(___aodiv@dividend+7)^0,f,c
  3333  0034B4  0E01               	movlw	1
  3334  0034B6  1A12               	xorwf	___aodiv@sign^0,f,c
  3335  0034B8                     l2836:
  3336  0034B8  EE20  F013         	lfsr	2,___aodiv@quotient
  3337  0034BC  0E07               	movlw	7
  3338  0034BE                     u1591:
  3339  0034BE  6ADE               	clrf	postinc2,c
  3340  0034C0  06E8               	decf	wreg,f,c
  3341  0034C2  E2FD               	bc	u1591
  3342  0034C4  5009               	movf	___aodiv@divisor^0,w,c
  3343  0034C6  100A               	iorwf	(___aodiv@divisor+1)^0,w,c
  3344  0034C8  100B               	iorwf	(___aodiv@divisor+2)^0,w,c
  3345  0034CA  100C               	iorwf	(___aodiv@divisor+3)^0,w,c
  3346  0034CC  100D               	iorwf	(___aodiv@divisor+4)^0,w,c
  3347  0034CE  100E               	iorwf	(___aodiv@divisor+5)^0,w,c
  3348  0034D0  100F               	iorwf	(___aodiv@divisor+6)^0,w,c
  3349  0034D2  1010               	iorwf	(___aodiv@divisor+7)^0,w,c
  3350  0034D4  B4D8               	btfsc	status,2,c
  3351  0034D6  EF6F  F01A         	goto	u1601
  3352  0034DA  EF71  F01A         	goto	u1600
  3353  0034DE                     u1601:
  3354  0034DE  EFC3  F01A         	goto	l2858
  3355  0034E2                     u1600:
  3356  0034E2  0E01               	movlw	1
  3357  0034E4  6E11               	movwf	___aodiv@counter^0,c
  3358  0034E6  EF7F  F01A         	goto	l2844
  3359  0034EA                     l2842:
  3360  0034EA  90D8               	bcf	status,0,c
  3361  0034EC  3609               	rlcf	___aodiv@divisor^0,f,c
  3362  0034EE  360A               	rlcf	(___aodiv@divisor+1)^0,f,c
  3363  0034F0  360B               	rlcf	(___aodiv@divisor+2)^0,f,c
  3364  0034F2  360C               	rlcf	(___aodiv@divisor+3)^0,f,c
  3365  0034F4  360D               	rlcf	(___aodiv@divisor+4)^0,f,c
  3366  0034F6  360E               	rlcf	(___aodiv@divisor+5)^0,f,c
  3367  0034F8  360F               	rlcf	(___aodiv@divisor+6)^0,f,c
  3368  0034FA  3610               	rlcf	(___aodiv@divisor+7)^0,f,c
  3369  0034FC  2A11               	incf	___aodiv@counter^0,f,c
  3370  0034FE                     l2844:
  3371  0034FE  AE10               	btfss	(___aodiv@divisor+7)^0,7,c
  3372  003500  EF84  F01A         	goto	u1611
  3373  003504  EF86  F01A         	goto	u1610
  3374  003508                     u1611:
  3375  003508  EF75  F01A         	goto	l2842
  3376  00350C                     u1610:
  3377  00350C                     l2846:
  3378  00350C  90D8               	bcf	status,0,c
  3379  00350E  3613               	rlcf	___aodiv@quotient^0,f,c
  3380  003510  3614               	rlcf	(___aodiv@quotient+1)^0,f,c
  3381  003512  3615               	rlcf	(___aodiv@quotient+2)^0,f,c
  3382  003514  3616               	rlcf	(___aodiv@quotient+3)^0,f,c
  3383  003516  3617               	rlcf	(___aodiv@quotient+4)^0,f,c
  3384  003518  3618               	rlcf	(___aodiv@quotient+5)^0,f,c
  3385  00351A  3619               	rlcf	(___aodiv@quotient+6)^0,f,c
  3386  00351C  361A               	rlcf	(___aodiv@quotient+7)^0,f,c
  3387  00351E  5009               	movf	___aodiv@divisor^0,w,c
  3388  003520  5C01               	subwf	___aodiv@dividend^0,w,c
  3389  003522  500A               	movf	(___aodiv@divisor+1)^0,w,c
  3390  003524  5802               	subwfb	(___aodiv@dividend+1)^0,w,c
  3391  003526  500B               	movf	(___aodiv@divisor+2)^0,w,c
  3392  003528  5803               	subwfb	(___aodiv@dividend+2)^0,w,c
  3393  00352A  500C               	movf	(___aodiv@divisor+3)^0,w,c
  3394  00352C  5804               	subwfb	(___aodiv@dividend+3)^0,w,c
  3395  00352E  500D               	movf	(___aodiv@divisor+4)^0,w,c
  3396  003530  5805               	subwfb	(___aodiv@dividend+4)^0,w,c
  3397  003532  500E               	movf	(___aodiv@divisor+5)^0,w,c
  3398  003534  5806               	subwfb	(___aodiv@dividend+5)^0,w,c
  3399  003536  500F               	movf	(___aodiv@divisor+6)^0,w,c
  3400  003538  5807               	subwfb	(___aodiv@dividend+6)^0,w,c
  3401  00353A  5010               	movf	(___aodiv@divisor+7)^0,w,c
  3402  00353C  5808               	subwfb	(___aodiv@dividend+7)^0,w,c
  3403  00353E  A0D8               	btfss	status,0,c
  3404  003540  EFA4  F01A         	goto	u1621
  3405  003544  EFA6  F01A         	goto	u1620
  3406  003548                     u1621:
  3407  003548  EFB7  F01A         	goto	l2854
  3408  00354C                     u1620:
  3409  00354C  5009               	movf	___aodiv@divisor^0,w,c
  3410  00354E  5E01               	subwf	___aodiv@dividend^0,f,c
  3411  003550  500A               	movf	(___aodiv@divisor+1)^0,w,c
  3412  003552  5A02               	subwfb	(___aodiv@dividend+1)^0,f,c
  3413  003554  500B               	movf	(___aodiv@divisor+2)^0,w,c
  3414  003556  5A03               	subwfb	(___aodiv@dividend+2)^0,f,c
  3415  003558  500C               	movf	(___aodiv@divisor+3)^0,w,c
  3416  00355A  5A04               	subwfb	(___aodiv@dividend+3)^0,f,c
  3417  00355C  500D               	movf	(___aodiv@divisor+4)^0,w,c
  3418  00355E  5A05               	subwfb	(___aodiv@dividend+4)^0,f,c
  3419  003560  500E               	movf	(___aodiv@divisor+5)^0,w,c
  3420  003562  5A06               	subwfb	(___aodiv@dividend+5)^0,f,c
  3421  003564  500F               	movf	(___aodiv@divisor+6)^0,w,c
  3422  003566  5A07               	subwfb	(___aodiv@dividend+6)^0,f,c
  3423  003568  5010               	movf	(___aodiv@divisor+7)^0,w,c
  3424  00356A  5A08               	subwfb	(___aodiv@dividend+7)^0,f,c
  3425  00356C  8013               	bsf	___aodiv@quotient^0,0,c
  3426  00356E                     l2854:
  3427  00356E  90D8               	bcf	status,0,c
  3428  003570  3210               	rrcf	(___aodiv@divisor+7)^0,f,c
  3429  003572  320F               	rrcf	(___aodiv@divisor+6)^0,f,c
  3430  003574  320E               	rrcf	(___aodiv@divisor+5)^0,f,c
  3431  003576  320D               	rrcf	(___aodiv@divisor+4)^0,f,c
  3432  003578  320C               	rrcf	(___aodiv@divisor+3)^0,f,c
  3433  00357A  320B               	rrcf	(___aodiv@divisor+2)^0,f,c
  3434  00357C  320A               	rrcf	(___aodiv@divisor+1)^0,f,c
  3435  00357E  3209               	rrcf	___aodiv@divisor^0,f,c
  3436  003580  2E11               	decfsz	___aodiv@counter^0,f,c
  3437  003582  EF86  F01A         	goto	l2846
  3438  003586                     l2858:
  3439  003586  5012               	movf	___aodiv@sign^0,w,c
  3440  003588  B4D8               	btfsc	status,2,c
  3441  00358A  EFC9  F01A         	goto	u1631
  3442  00358E  EFCB  F01A         	goto	u1630
  3443  003592                     u1631:
  3444  003592  EFDB  F01A         	goto	l2862
  3445  003596                     u1630:
  3446  003596  1E1A               	comf	(___aodiv@quotient+7)^0,f,c
  3447  003598  1E19               	comf	(___aodiv@quotient+6)^0,f,c
  3448  00359A  1E18               	comf	(___aodiv@quotient+5)^0,f,c
  3449  00359C  1E17               	comf	(___aodiv@quotient+4)^0,f,c
  3450  00359E  1E16               	comf	(___aodiv@quotient+3)^0,f,c
  3451  0035A0  1E15               	comf	(___aodiv@quotient+2)^0,f,c
  3452  0035A2  1E14               	comf	(___aodiv@quotient+1)^0,f,c
  3453  0035A4  6C13               	negf	___aodiv@quotient^0,c
  3454  0035A6  0E00               	movlw	0
  3455  0035A8  2214               	addwfc	(___aodiv@quotient+1)^0,f,c
  3456  0035AA  2215               	addwfc	(___aodiv@quotient+2)^0,f,c
  3457  0035AC  2216               	addwfc	(___aodiv@quotient+3)^0,f,c
  3458  0035AE  2217               	addwfc	(___aodiv@quotient+4)^0,f,c
  3459  0035B0  2218               	addwfc	(___aodiv@quotient+5)^0,f,c
  3460  0035B2  2219               	addwfc	(___aodiv@quotient+6)^0,f,c
  3461  0035B4  221A               	addwfc	(___aodiv@quotient+7)^0,f,c
  3462  0035B6                     l2862:
  3463  0035B6  C013  F001         	movff	___aodiv@quotient,?___aodiv
  3464  0035BA  C014  F002         	movff	___aodiv@quotient+1,?___aodiv+1
  3465  0035BE  C015  F003         	movff	___aodiv@quotient+2,?___aodiv+2
  3466  0035C2  C016  F004         	movff	___aodiv@quotient+3,?___aodiv+3
  3467  0035C6  C017  F005         	movff	___aodiv@quotient+4,?___aodiv+4
  3468  0035CA  C018  F006         	movff	___aodiv@quotient+5,?___aodiv+5
  3469  0035CE  C019  F007         	movff	___aodiv@quotient+6,?___aodiv+6
  3470  0035D2  C01A  F008         	movff	___aodiv@quotient+7,?___aodiv+7
  3471  0035D6  0012               	return		;funcret
  3472  0035D8                     __end_of___aodiv:
  3473                           	callstack 0
  3474                           
  3475 ;; *************** function ___xxtofl *****************
  3476 ;; Defined at:
  3477 ;;		line 10 in file "C:\Program Files\Microchip\xc8\v2.32\pic\sources\c99\common\xxtofl.c"
  3478 ;; Parameters:    Size  Location     Type
  3479 ;;  sign            1    wreg     unsigned char 
  3480 ;;  val             4    0[COMRAM] long 
  3481 ;; Auto vars:     Size  Location     Type
  3482 ;;  sign            1    8[COMRAM] unsigned char 
  3483 ;;  arg             4   10[COMRAM] unsigned long 
  3484 ;;  exp             1    9[COMRAM] unsigned char 
  3485 ;; Return value:  Size  Location     Type
  3486 ;;                  4    0[COMRAM] unsigned char 
  3487 ;; Registers used:
  3488 ;;		wreg, status,2, status,0
  3489 ;; Tracked objects:
  3490 ;;		On entry : 0/0
  3491 ;;		On exit  : 0/0
  3492 ;;		Unchanged: 0/0
  3493 ;; Data sizes:     COMRAM   BANK0   BANK1   BANK2   BANK3   BANK4   BANK5   BANK6   BANK7   BANK8   BANK9  BANK10  BANK1
      +1  BANK12  BANK13  BANK14  BANK15  BANK16  BANK17  BANK18  BANK19  BANK20  BANK21  BANK22  BANK23  BANK24  BANK25  BANK2
      +6  BANK27  BANK28  BANK29  BANK30  BANK31
  3494 ;;      Params:         4       0       0       0       0       0       0       0       0       0       0       0       
      +0       0       0       0       0       0       0       0       0       0       0       0       0       0       0       
      +0       0       0       0       0       0
  3495 ;;      Locals:         6       0       0       0       0       0       0       0       0       0       0       0       
      +0       0       0       0       0       0       0       0       0       0       0       0       0       0       0       
      +0       0       0       0       0       0
  3496 ;;      Temps:          4       0       0       0       0       0       0       0       0       0       0       0       
      +0       0       0       0       0       0       0       0       0       0       0       0       0       0       0       
      +0       0       0       0       0       0
  3497 ;;      Totals:        14       0       0       0       0       0       0       0       0       0       0       0       
      +0       0       0       0       0       0       0       0       0       0       0       0       0       0       0       
      +0       0       0       0       0       0
  3498 ;;Total ram usage:       14 bytes
  3499 ;; Hardware stack levels used: 1
  3500 ;; Hardware stack levels required when called: 4
  3501 ;; This function calls:
  3502 ;;		Nothing
  3503 ;; This function is called by:
  3504 ;;		_main
  3505 ;; This function uses a non-reentrant model
  3506 ;;
  3507                           
  3508                           	psect	text14
  3509  00329C                     __ptext14:
  3510                           	callstack 0
  3511  00329C                     ___xxtofl:
  3512                           	callstack 26
  3513                           
  3514                           ;incstack = 0
  3515                           ;___xxtofl@sign stored from wreg
  3516  00329C  6E09               	movwf	___xxtofl@sign^0,c
  3517  00329E  5009               	movf	___xxtofl@sign^0,w,c
  3518  0032A0  B4D8               	btfsc	status,2,c
  3519  0032A2  EF55  F019         	goto	u2731
  3520  0032A6  EF57  F019         	goto	u2730
  3521  0032AA                     u2731:
  3522  0032AA  EF79  F019         	goto	l1298
  3523  0032AE                     u2730:
  3524  0032AE  BE04               	btfsc	(___xxtofl@val+3)^0,7,c
  3525  0032B0  EF5E  F019         	goto	u2740
  3526  0032B4  EF5C  F019         	goto	u2741
  3527  0032B8                     u2741:
  3528  0032B8  EF79  F019         	goto	l1298
  3529  0032BC                     u2740:
  3530  0032BC  C001  F005         	movff	___xxtofl@val,??___xxtofl
  3531  0032C0  C002  F006         	movff	___xxtofl@val+1,??___xxtofl+1
  3532  0032C4  C003  F007         	movff	___xxtofl@val+2,??___xxtofl+2
  3533  0032C8  C004  F008         	movff	___xxtofl@val+3,??___xxtofl+3
  3534  0032CC  1E05               	comf	??___xxtofl^0,f,c
  3535  0032CE  1E06               	comf	(??___xxtofl+1)^0,f,c
  3536  0032D0  1E07               	comf	(??___xxtofl+2)^0,f,c
  3537  0032D2  1E08               	comf	(??___xxtofl+3)^0,f,c
  3538  0032D4  2A05               	incf	??___xxtofl^0,f,c
  3539  0032D6  0E00               	movlw	0
  3540  0032D8  2206               	addwfc	(??___xxtofl+1)^0,f,c
  3541  0032DA  2207               	addwfc	(??___xxtofl+2)^0,f,c
  3542  0032DC  2208               	addwfc	(??___xxtofl+3)^0,f,c
  3543  0032DE  C005  F00B         	movff	??___xxtofl,___xxtofl@arg
  3544  0032E2  C006  F00C         	movff	??___xxtofl+1,___xxtofl@arg+1
  3545  0032E6  C007  F00D         	movff	??___xxtofl+2,___xxtofl@arg+2
  3546  0032EA  C008  F00E         	movff	??___xxtofl+3,___xxtofl@arg+3
  3547  0032EE  EF81  F019         	goto	l3560
  3548  0032F2                     l1298:
  3549  0032F2  C001  F00B         	movff	___xxtofl@val,___xxtofl@arg
  3550  0032F6  C002  F00C         	movff	___xxtofl@val+1,___xxtofl@arg+1
  3551  0032FA  C003  F00D         	movff	___xxtofl@val+2,___xxtofl@arg+2
  3552  0032FE  C004  F00E         	movff	___xxtofl@val+3,___xxtofl@arg+3
  3553  003302                     l3560:
  3554  003302  5001               	movf	___xxtofl@val^0,w,c
  3555  003304  1002               	iorwf	(___xxtofl@val+1)^0,w,c
  3556  003306  1003               	iorwf	(___xxtofl@val+2)^0,w,c
  3557  003308  1004               	iorwf	(___xxtofl@val+3)^0,w,c
  3558  00330A  A4D8               	btfss	status,2,c
  3559  00330C  EF8A  F019         	goto	u2751
  3560  003310  EF8C  F019         	goto	u2750
  3561  003314                     u2751:
  3562  003314  EF96  F019         	goto	l3566
  3563  003318                     u2750:
  3564  003318  0E00               	movlw	0
  3565  00331A  6E01               	movwf	?___xxtofl^0,c
  3566  00331C  0E00               	movlw	0
  3567  00331E  6E02               	movwf	(?___xxtofl+1)^0,c
  3568  003320  0E00               	movlw	0
  3569  003322  6E03               	movwf	(?___xxtofl+2)^0,c
  3570  003324  0E00               	movlw	0
  3571  003326  6E04               	movwf	(?___xxtofl+3)^0,c
  3572  003328  EF27  F01A         	goto	l1301
  3573  00332C                     l3566:
  3574  00332C  0E96               	movlw	150
  3575  00332E  6E0A               	movwf	___xxtofl@exp^0,c
  3576  003330  EFA0  F019         	goto	l3570
  3577  003334                     l3568:
  3578  003334  2A0A               	incf	___xxtofl@exp^0,f,c
  3579  003336  90D8               	bcf	status,0,c
  3580  003338  320E               	rrcf	(___xxtofl@arg+3)^0,f,c
  3581  00333A  320D               	rrcf	(___xxtofl@arg+2)^0,f,c
  3582  00333C  320C               	rrcf	(___xxtofl@arg+1)^0,f,c
  3583  00333E  320B               	rrcf	___xxtofl@arg^0,f,c
  3584  003340                     l3570:
  3585  003340  0E00               	movlw	0
  3586  003342  140B               	andwf	___xxtofl@arg^0,w,c
  3587  003344  6E05               	movwf	??___xxtofl^0,c
  3588  003346  0E00               	movlw	0
  3589  003348  140C               	andwf	(___xxtofl@arg+1)^0,w,c
  3590  00334A  6E06               	movwf	(??___xxtofl+1)^0,c
  3591  00334C  0E00               	movlw	0
  3592  00334E  140D               	andwf	(___xxtofl@arg+2)^0,w,c
  3593  003350  6E07               	movwf	(??___xxtofl+2)^0,c
  3594  003352  0EFE               	movlw	254
  3595  003354  140E               	andwf	(___xxtofl@arg+3)^0,w,c
  3596  003356  6E08               	movwf	(??___xxtofl+3)^0,c
  3597  003358  5005               	movf	??___xxtofl^0,w,c
  3598  00335A  1006               	iorwf	(??___xxtofl+1)^0,w,c
  3599  00335C  1007               	iorwf	(??___xxtofl+2)^0,w,c
  3600  00335E  1008               	iorwf	(??___xxtofl+3)^0,w,c
  3601  003360  A4D8               	btfss	status,2,c
  3602  003362  EFB5  F019         	goto	u2761
  3603  003366  EFB7  F019         	goto	u2760
  3604  00336A                     u2761:
  3605  00336A  EF9A  F019         	goto	l3568
  3606  00336E                     u2760:
  3607  00336E  EFC5  F019         	goto	l1305
  3608  003372                     l3572:
  3609  003372  2A0A               	incf	___xxtofl@exp^0,f,c
  3610  003374  0E01               	movlw	1
  3611  003376  260B               	addwf	___xxtofl@arg^0,f,c
  3612  003378  0E00               	movlw	0
  3613  00337A  220C               	addwfc	(___xxtofl@arg+1)^0,f,c
  3614  00337C  220D               	addwfc	(___xxtofl@arg+2)^0,f,c
  3615  00337E  220E               	addwfc	(___xxtofl@arg+3)^0,f,c
  3616  003380  90D8               	bcf	status,0,c
  3617  003382  320E               	rrcf	(___xxtofl@arg+3)^0,f,c
  3618  003384  320D               	rrcf	(___xxtofl@arg+2)^0,f,c
  3619  003386  320C               	rrcf	(___xxtofl@arg+1)^0,f,c
  3620  003388  320B               	rrcf	___xxtofl@arg^0,f,c
  3621  00338A                     l1305:
  3622  00338A  0E00               	movlw	0
  3623  00338C  140B               	andwf	___xxtofl@arg^0,w,c
  3624  00338E  6E05               	movwf	??___xxtofl^0,c
  3625  003390  0E00               	movlw	0
  3626  003392  140C               	andwf	(___xxtofl@arg+1)^0,w,c
  3627  003394  6E06               	movwf	(??___xxtofl+1)^0,c
  3628  003396  0E00               	movlw	0
  3629  003398  140D               	andwf	(___xxtofl@arg+2)^0,w,c
  3630  00339A  6E07               	movwf	(??___xxtofl+2)^0,c
  3631  00339C  0EFF               	movlw	255
  3632  00339E  140E               	andwf	(___xxtofl@arg+3)^0,w,c
  3633  0033A0  6E08               	movwf	(??___xxtofl+3)^0,c
  3634  0033A2  5005               	movf	??___xxtofl^0,w,c
  3635  0033A4  1006               	iorwf	(??___xxtofl+1)^0,w,c
  3636  0033A6  1007               	iorwf	(??___xxtofl+2)^0,w,c
  3637  0033A8  1008               	iorwf	(??___xxtofl+3)^0,w,c
  3638  0033AA  A4D8               	btfss	status,2,c
  3639  0033AC  EFDA  F019         	goto	u2771
  3640  0033B0  EFDC  F019         	goto	u2770
  3641  0033B4                     u2771:
  3642  0033B4  EFB9  F019         	goto	l3572
  3643  0033B8                     u2770:
  3644  0033B8  EFE4  F019         	goto	l3580
  3645  0033BC                     l3578:
  3646  0033BC  060A               	decf	___xxtofl@exp^0,f,c
  3647  0033BE  90D8               	bcf	status,0,c
  3648  0033C0  360B               	rlcf	___xxtofl@arg^0,f,c
  3649  0033C2  360C               	rlcf	(___xxtofl@arg+1)^0,f,c
  3650  0033C4  360D               	rlcf	(___xxtofl@arg+2)^0,f,c
  3651  0033C6  360E               	rlcf	(___xxtofl@arg+3)^0,f,c
  3652  0033C8                     l3580:
  3653  0033C8  BE0D               	btfsc	(___xxtofl@arg+2)^0,7,c
  3654  0033CA  EFE9  F019         	goto	u2781
  3655  0033CE  EFEB  F019         	goto	u2780
  3656  0033D2                     u2781:
  3657  0033D2  EFF3  F019         	goto	l1312
  3658  0033D6                     u2780:
  3659  0033D6  0E02               	movlw	2
  3660  0033D8  600A               	cpfslt	___xxtofl@exp^0,c
  3661  0033DA  EFF1  F019         	goto	u2791
  3662  0033DE  EFF3  F019         	goto	u2790
  3663  0033E2                     u2791:
  3664  0033E2  EFDE  F019         	goto	l3578
  3665  0033E6                     u2790:
  3666  0033E6                     l1312:
  3667  0033E6  B00A               	btfsc	___xxtofl@exp^0,0,c
  3668  0033E8  EFF8  F019         	goto	u2801
  3669  0033EC  EFFA  F019         	goto	u2800
  3670  0033F0                     u2801:
  3671  0033F0  EFFB  F019         	goto	l3586
  3672  0033F4                     u2800:
  3673  0033F4  9E0D               	bcf	(___xxtofl@arg+2)^0,7,c
  3674  0033F6                     l3586:
  3675  0033F6  90D8               	bcf	status,0,c
  3676  0033F8  320A               	rrcf	___xxtofl@exp^0,f,c
  3677  0033FA  C00A  F005         	movff	___xxtofl@exp,??___xxtofl
  3678  0033FE  6A06               	clrf	(??___xxtofl+1)^0,c
  3679  003400  6A07               	clrf	(??___xxtofl+2)^0,c
  3680  003402  6A08               	clrf	(??___xxtofl+3)^0,c
  3681  003404  C005  F008         	movff	??___xxtofl,??___xxtofl+3
  3682  003408  6A07               	clrf	(??___xxtofl+2)^0,c
  3683  00340A  6A06               	clrf	(??___xxtofl+1)^0,c
  3684  00340C  6A05               	clrf	??___xxtofl^0,c
  3685  00340E  5005               	movf	??___xxtofl^0,w,c
  3686  003410  120B               	iorwf	___xxtofl@arg^0,f,c
  3687  003412  5006               	movf	(??___xxtofl+1)^0,w,c
  3688  003414  120C               	iorwf	(___xxtofl@arg+1)^0,f,c
  3689  003416  5007               	movf	(??___xxtofl+2)^0,w,c
  3690  003418  120D               	iorwf	(___xxtofl@arg+2)^0,f,c
  3691  00341A  5008               	movf	(??___xxtofl+3)^0,w,c
  3692  00341C  120E               	iorwf	(___xxtofl@arg+3)^0,f,c
  3693  00341E  5009               	movf	___xxtofl@sign^0,w,c
  3694  003420  B4D8               	btfsc	status,2,c
  3695  003422  EF15  F01A         	goto	u2811
  3696  003426  EF17  F01A         	goto	u2810
  3697  00342A                     u2811:
  3698  00342A  EF1F  F01A         	goto	l3596
  3699  00342E                     u2810:
  3700  00342E  BE04               	btfsc	(___xxtofl@val+3)^0,7,c
  3701  003430  EF1E  F01A         	goto	u2820
  3702  003434  EF1C  F01A         	goto	u2821
  3703  003438                     u2821:
  3704  003438  EF1F  F01A         	goto	l3596
  3705  00343C                     u2820:
  3706  00343C  8E0E               	bsf	(___xxtofl@arg+3)^0,7,c
  3707  00343E                     l3596:
  3708  00343E  C00B  F001         	movff	___xxtofl@arg,?___xxtofl
  3709  003442  C00C  F002         	movff	___xxtofl@arg+1,?___xxtofl+1
  3710  003446  C00D  F003         	movff	___xxtofl@arg+2,?___xxtofl+2
  3711  00344A  C00E  F004         	movff	___xxtofl@arg+3,?___xxtofl+3
  3712  00344E                     l1301:
  3713  00344E  0012               	return		;funcret
  3714  003450                     __end_of___xxtofl:
  3715                           	callstack 0
  3716                           
  3717 ;; *************** function ___fltol *****************
  3718 ;; Defined at:
  3719 ;;		line 43 in file "C:\Program Files\Microchip\xc8\v2.32\pic\sources\c99\common\fltol.c"
  3720 ;; Parameters:    Size  Location     Type
  3721 ;;  f1              4   55[COMRAM] unsigned char 
  3722 ;; Auto vars:     Size  Location     Type
  3723 ;;  exp1            1   64[COMRAM] unsigned char 
  3724 ;;  sign1           1   63[COMRAM] unsigned char 
  3725 ;; Return value:  Size  Location     Type
  3726 ;;                  4   55[COMRAM] long 
  3727 ;; Registers used:
  3728 ;;		wreg, status,2, status,0
  3729 ;; Tracked objects:
  3730 ;;		On entry : 0/0
  3731 ;;		On exit  : 0/0
  3732 ;;		Unchanged: 0/0
  3733 ;; Data sizes:     COMRAM   BANK0   BANK1   BANK2   BANK3   BANK4   BANK5   BANK6   BANK7   BANK8   BANK9  BANK10  BANK1
      +1  BANK12  BANK13  BANK14  BANK15  BANK16  BANK17  BANK18  BANK19  BANK20  BANK21  BANK22  BANK23  BANK24  BANK25  BANK2
      +6  BANK27  BANK28  BANK29  BANK30  BANK31
  3734 ;;      Params:         4       0       0       0       0       0       0       0       0       0       0       0       
      +0       0       0       0       0       0       0       0       0       0       0       0       0       0       0       
      +0       0       0       0       0       0
  3735 ;;      Locals:         2       0       0       0       0       0       0       0       0       0       0       0       
      +0       0       0       0       0       0       0       0       0       0       0       0       0       0       0       
      +0       0       0       0       0       0
  3736 ;;      Temps:          4       0       0       0       0       0       0       0       0       0       0       0       
      +0       0       0       0       0       0       0       0       0       0       0       0       0       0       0       
      +0       0       0       0       0       0
  3737 ;;      Totals:        10       0       0       0       0       0       0       0       0       0       0       0       
      +0       0       0       0       0       0       0       0       0       0       0       0       0       0       0       
      +0       0       0       0       0       0
  3738 ;;Total ram usage:       10 bytes
  3739 ;; Hardware stack levels used: 1
  3740 ;; Hardware stack levels required when called: 4
  3741 ;; This function calls:
  3742 ;;		Nothing
  3743 ;; This function is called by:
  3744 ;;		_main
  3745 ;; This function uses a non-reentrant model
  3746 ;;
  3747                           
  3748                           	psect	text15
  3749  00373C                     __ptext15:
  3750                           	callstack 0
  3751  00373C                     ___fltol:
  3752                           	callstack 26
  3753  00373C  343A               	rlcf	(___fltol@f1+2)^0,w,c
  3754  00373E  343B               	rlcf	(___fltol@f1+3)^0,w,c
  3755  003740  6E41               	movwf	___fltol@exp1^0,c
  3756  003742  5041               	movf	___fltol@exp1^0,w,c
  3757  003744  A4D8               	btfss	status,2,c
  3758  003746  EFA7  F01B         	goto	u2661
  3759  00374A  EFA9  F01B         	goto	u2660
  3760  00374E                     u2661:
  3761  00374E  EFB3  F01B         	goto	l3516
  3762  003752                     u2660:
  3763  003752                     l3512:
  3764  003752  0E00               	movlw	0
  3765  003754  6E38               	movwf	?___fltol^0,c
  3766  003756  0E00               	movlw	0
  3767  003758  6E39               	movwf	(?___fltol+1)^0,c
  3768  00375A  0E00               	movlw	0
  3769  00375C  6E3A               	movwf	(?___fltol+2)^0,c
  3770  00375E  0E00               	movlw	0
  3771  003760  6E3B               	movwf	(?___fltol+3)^0,c
  3772  003762  EF20  F01C         	goto	l940
  3773  003766                     l3516:
  3774  003766  C038  F03C         	movff	___fltol@f1,??___fltol
  3775  00376A  C039  F03D         	movff	___fltol@f1+1,??___fltol+1
  3776  00376E  C03A  F03E         	movff	___fltol@f1+2,??___fltol+2
  3777  003772  C03B  F03F         	movff	___fltol@f1+3,??___fltol+3
  3778  003776  0E20               	movlw	32
  3779  003778  EFC3  F01B         	goto	u2670
  3780  00377C                     u2675:
  3781  00377C  90D8               	bcf	status,0,c
  3782  00377E  323F               	rrcf	(??___fltol+3)^0,f,c
  3783  003780  323E               	rrcf	(??___fltol+2)^0,f,c
  3784  003782  323D               	rrcf	(??___fltol+1)^0,f,c
  3785  003784  323C               	rrcf	??___fltol^0,f,c
  3786  003786                     u2670:
  3787  003786  2EE8               	decfsz	wreg,f,c
  3788  003788  EFBE  F01B         	goto	u2675
  3789  00378C  503C               	movf	??___fltol^0,w,c
  3790  00378E  6E40               	movwf	___fltol@sign1^0,c
  3791  003790  8E3A               	bsf	(___fltol@f1+2)^0,7,c
  3792  003792  0EFF               	movlw	255
  3793  003794  1638               	andwf	___fltol@f1^0,f,c
  3794  003796  0EFF               	movlw	255
  3795  003798  1639               	andwf	(___fltol@f1+1)^0,f,c
  3796  00379A  0EFF               	movlw	255
  3797  00379C  163A               	andwf	(___fltol@f1+2)^0,f,c
  3798  00379E  0E00               	movlw	0
  3799  0037A0  163B               	andwf	(___fltol@f1+3)^0,f,c
  3800  0037A2  0E96               	movlw	150
  3801  0037A4  5E41               	subwf	___fltol@exp1^0,f,c
  3802  0037A6  BE41               	btfsc	___fltol@exp1^0,7,c
  3803  0037A8  EFDA  F01B         	goto	u2680
  3804  0037AC  EFD8  F01B         	goto	u2681
  3805  0037B0                     u2681:
  3806  0037B0  EFF0  F01B         	goto	l3536
  3807  0037B4                     u2680:
  3808  0037B4  5041               	movf	___fltol@exp1^0,w,c
  3809  0037B6  0A80               	xorlw	128
  3810  0037B8  0F97               	addlw	151
  3811  0037BA  B0D8               	btfsc	status,0,c
  3812  0037BC  EFE2  F01B         	goto	u2691
  3813  0037C0  EFE4  F01B         	goto	u2690
  3814  0037C4                     u2691:
  3815  0037C4  EFE6  F01B         	goto	l3532
  3816  0037C8                     u2690:
  3817  0037C8  EFA9  F01B         	goto	l3512
  3818  0037CC                     l3532:
  3819  0037CC  90D8               	bcf	status,0,c
  3820  0037CE  323B               	rrcf	(___fltol@f1+3)^0,f,c
  3821  0037D0  323A               	rrcf	(___fltol@f1+2)^0,f,c
  3822  0037D2  3239               	rrcf	(___fltol@f1+1)^0,f,c
  3823  0037D4  3238               	rrcf	___fltol@f1^0,f,c
  3824  0037D6  3E41               	incfsz	___fltol@exp1^0,f,c
  3825  0037D8  EFE6  F01B         	goto	l3532
  3826  0037DC  EF08  F01C         	goto	l3546
  3827  0037E0                     l3536:
  3828  0037E0  0E1F               	movlw	31
  3829  0037E2  6441               	cpfsgt	___fltol@exp1^0,c
  3830  0037E4  EFF6  F01B         	goto	u2701
  3831  0037E8  EFF8  F01B         	goto	u2700
  3832  0037EC                     u2701:
  3833  0037EC  EF00  F01C         	goto	l3544
  3834  0037F0                     u2700:
  3835  0037F0  EFA9  F01B         	goto	l3512
  3836  0037F4                     l3542:
  3837  0037F4  90D8               	bcf	status,0,c
  3838  0037F6  3638               	rlcf	___fltol@f1^0,f,c
  3839  0037F8  3639               	rlcf	(___fltol@f1+1)^0,f,c
  3840  0037FA  363A               	rlcf	(___fltol@f1+2)^0,f,c
  3841  0037FC  363B               	rlcf	(___fltol@f1+3)^0,f,c
  3842  0037FE  0641               	decf	___fltol@exp1^0,f,c
  3843  003800                     l3544:
  3844  003800  5041               	movf	___fltol@exp1^0,w,c
  3845  003802  A4D8               	btfss	status,2,c
  3846  003804  EF06  F01C         	goto	u2711
  3847  003808  EF08  F01C         	goto	u2710
  3848  00380C                     u2711:
  3849  00380C  EFFA  F01B         	goto	l3542
  3850  003810                     u2710:
  3851  003810                     l3546:
  3852  003810  5040               	movf	___fltol@sign1^0,w,c
  3853  003812  B4D8               	btfsc	status,2,c
  3854  003814  EF0E  F01C         	goto	u2721
  3855  003818  EF10  F01C         	goto	u2720
  3856  00381C                     u2721:
  3857  00381C  EF18  F01C         	goto	l3550
  3858  003820                     u2720:
  3859  003820  1E3B               	comf	(___fltol@f1+3)^0,f,c
  3860  003822  1E3A               	comf	(___fltol@f1+2)^0,f,c
  3861  003824  1E39               	comf	(___fltol@f1+1)^0,f,c
  3862  003826  6C38               	negf	___fltol@f1^0,c
  3863  003828  0E00               	movlw	0
  3864  00382A  2239               	addwfc	(___fltol@f1+1)^0,f,c
  3865  00382C  223A               	addwfc	(___fltol@f1+2)^0,f,c
  3866  00382E  223B               	addwfc	(___fltol@f1+3)^0,f,c
  3867  003830                     l3550:
  3868  003830  C038  F038         	movff	___fltol@f1,?___fltol
  3869  003834  C039  F039         	movff	___fltol@f1+1,?___fltol+1
  3870  003838  C03A  F03A         	movff	___fltol@f1+2,?___fltol+2
  3871  00383C  C03B  F03B         	movff	___fltol@f1+3,?___fltol+3
  3872  003840                     l940:
  3873  003840  0012               	return		;funcret
  3874  003842                     __end_of___fltol:
  3875                           	callstack 0
  3876                           
  3877 ;; *************** function ___fldiv *****************
  3878 ;; Defined at:
  3879 ;;		line 11 in file "C:\Program Files\Microchip\xc8\v2.32\pic\sources\c99\common\sprcdiv.c"
  3880 ;; Parameters:    Size  Location     Type
  3881 ;;  b               4   14[COMRAM] long 
  3882 ;;  a               4   18[COMRAM] long 
  3883 ;; Auto vars:     Size  Location     Type
  3884 ;;  grs             4   33[COMRAM] unsigned long 
  3885 ;;  rem             4   26[COMRAM] unsigned long 
  3886 ;;  new_exp         2   31[COMRAM] short 
  3887 ;;  aexp            1   38[COMRAM] unsigned char 
  3888 ;;  bexp            1   37[COMRAM] unsigned char 
  3889 ;;  sign            1   30[COMRAM] unsigned char 
  3890 ;; Return value:  Size  Location     Type
  3891 ;;                  4   14[COMRAM] unsigned char 
  3892 ;; Registers used:
  3893 ;;		wreg, status,2, status,0
  3894 ;; Tracked objects:
  3895 ;;		On entry : 0/0
  3896 ;;		On exit  : 0/0
  3897 ;;		Unchanged: 0/0
  3898 ;; Data sizes:     COMRAM   BANK0   BANK1   BANK2   BANK3   BANK4   BANK5   BANK6   BANK7   BANK8   BANK9  BANK10  BANK1
      +1  BANK12  BANK13  BANK14  BANK15  BANK16  BANK17  BANK18  BANK19  BANK20  BANK21  BANK22  BANK23  BANK24  BANK25  BANK2
      +6  BANK27  BANK28  BANK29  BANK30  BANK31
  3899 ;;      Params:         8       0       0       0       0       0       0       0       0       0       0       0       
      +0       0       0       0       0       0       0       0       0       0       0       0       0       0       0       
      +0       0       0       0       0       0
  3900 ;;      Locals:        13       0       0       0       0       0       0       0       0       0       0       0       
      +0       0       0       0       0       0       0       0       0       0       0       0       0       0       0       
      +0       0       0       0       0       0
  3901 ;;      Temps:          4       0       0       0       0       0       0       0       0       0       0       0       
      +0       0       0       0       0       0       0       0       0       0       0       0       0       0       0       
      +0       0       0       0       0       0
  3902 ;;      Totals:        25       0       0       0       0       0       0       0       0       0       0       0       
      +0       0       0       0       0       0       0       0       0       0       0       0       0       0       0       
      +0       0       0       0       0       0
  3903 ;;Total ram usage:       25 bytes
  3904 ;; Hardware stack levels used: 1
  3905 ;; Hardware stack levels required when called: 4
  3906 ;; This function calls:
  3907 ;;		Nothing
  3908 ;; This function is called by:
  3909 ;;		_main
  3910 ;; This function uses a non-reentrant model
  3911 ;;
  3912                           
  3913                           	psect	text16
  3914  002A0A                     __ptext16:
  3915                           	callstack 0
  3916  002A0A                     ___fldiv:
  3917                           	callstack 26
  3918  002A0A  5012               	movf	(___fldiv@b+3)^0,w,c
  3919  002A0C  0B80               	andlw	128
  3920  002A0E  6E1F               	movwf	___fldiv@sign^0,c
  3921  002A10  5012               	movf	(___fldiv@b+3)^0,w,c
  3922  002A12  2412               	addwf	(___fldiv@b+3)^0,w,c
  3923  002A14  6E26               	movwf	___fldiv@bexp^0,c
  3924  002A16  AE11               	btfss	(___fldiv@b+2)^0,7,c
  3925  002A18  EF10  F015         	goto	u2431
  3926  002A1C  EF12  F015         	goto	u2430
  3927  002A20                     u2431:
  3928  002A20  EF13  F015         	goto	l3378
  3929  002A24                     u2430:
  3930  002A24  8026               	bsf	___fldiv@bexp^0,0,c
  3931  002A26                     l3378:
  3932  002A26  5026               	movf	___fldiv@bexp^0,w,c
  3933  002A28  B4D8               	btfsc	status,2,c
  3934  002A2A  EF19  F015         	goto	u2441
  3935  002A2E  EF1B  F015         	goto	u2440
  3936  002A32                     u2441:
  3937  002A32  EF30  F015         	goto	l3388
  3938  002A36                     u2440:
  3939  002A36  2826               	incf	___fldiv@bexp^0,w,c
  3940  002A38  A4D8               	btfss	status,2,c
  3941  002A3A  EF21  F015         	goto	u2451
  3942  002A3E  EF23  F015         	goto	u2450
  3943  002A42                     u2451:
  3944  002A42  EF2B  F015         	goto	l3384
  3945  002A46                     u2450:
  3946  002A46  0E00               	movlw	0
  3947  002A48  6E0F               	movwf	___fldiv@b^0,c
  3948  002A4A  0E00               	movlw	0
  3949  002A4C  6E10               	movwf	(___fldiv@b+1)^0,c
  3950  002A4E  0E00               	movlw	0
  3951  002A50  6E11               	movwf	(___fldiv@b+2)^0,c
  3952  002A52  0E00               	movlw	0
  3953  002A54  6E12               	movwf	(___fldiv@b+3)^0,c
  3954  002A56                     l3384:
  3955  002A56  8E11               	bsf	(___fldiv@b+2)^0,7,c
  3956  002A58  0E00               	movlw	0
  3957  002A5A  6E12               	movwf	(___fldiv@b+3)^0,c
  3958  002A5C  EF38  F015         	goto	l3390
  3959  002A60                     l3388:
  3960  002A60  0E00               	movlw	0
  3961  002A62  6E0F               	movwf	___fldiv@b^0,c
  3962  002A64  0E00               	movlw	0
  3963  002A66  6E10               	movwf	(___fldiv@b+1)^0,c
  3964  002A68  0E00               	movlw	0
  3965  002A6A  6E11               	movwf	(___fldiv@b+2)^0,c
  3966  002A6C  0E00               	movlw	0
  3967  002A6E  6E12               	movwf	(___fldiv@b+3)^0,c
  3968  002A70                     l3390:
  3969  002A70  5016               	movf	(___fldiv@a+3)^0,w,c
  3970  002A72  0B80               	andlw	128
  3971  002A74  1A1F               	xorwf	___fldiv@sign^0,f,c
  3972  002A76  5016               	movf	(___fldiv@a+3)^0,w,c
  3973  002A78  2416               	addwf	(___fldiv@a+3)^0,w,c
  3974  002A7A  6E27               	movwf	___fldiv@aexp^0,c
  3975  002A7C  AE15               	btfss	(___fldiv@a+2)^0,7,c
  3976  002A7E  EF43  F015         	goto	u2461
  3977  002A82  EF45  F015         	goto	u2460
  3978  002A86                     u2461:
  3979  002A86  EF46  F015         	goto	l3398
  3980  002A8A                     u2460:
  3981  002A8A  8027               	bsf	___fldiv@aexp^0,0,c
  3982  002A8C                     l3398:
  3983  002A8C  5027               	movf	___fldiv@aexp^0,w,c
  3984  002A8E  B4D8               	btfsc	status,2,c
  3985  002A90  EF4C  F015         	goto	u2471
  3986  002A94  EF4E  F015         	goto	u2470
  3987  002A98                     u2471:
  3988  002A98  EF63  F015         	goto	l3408
  3989  002A9C                     u2470:
  3990  002A9C  2827               	incf	___fldiv@aexp^0,w,c
  3991  002A9E  A4D8               	btfss	status,2,c
  3992  002AA0  EF54  F015         	goto	u2481
  3993  002AA4  EF56  F015         	goto	u2480
  3994  002AA8                     u2481:
  3995  002AA8  EF5E  F015         	goto	l3404
  3996  002AAC                     u2480:
  3997  002AAC  0E00               	movlw	0
  3998  002AAE  6E13               	movwf	___fldiv@a^0,c
  3999  002AB0  0E00               	movlw	0
  4000  002AB2  6E14               	movwf	(___fldiv@a+1)^0,c
  4001  002AB4  0E00               	movlw	0
  4002  002AB6  6E15               	movwf	(___fldiv@a+2)^0,c
  4003  002AB8  0E00               	movlw	0
  4004  002ABA  6E16               	movwf	(___fldiv@a+3)^0,c
  4005  002ABC                     l3404:
  4006  002ABC  8E15               	bsf	(___fldiv@a+2)^0,7,c
  4007  002ABE  0E00               	movlw	0
  4008  002AC0  6E16               	movwf	(___fldiv@a+3)^0,c
  4009  002AC2  EF6B  F015         	goto	l3410
  4010  002AC6                     l3408:
  4011  002AC6  0E00               	movlw	0
  4012  002AC8  6E13               	movwf	___fldiv@a^0,c
  4013  002ACA  0E00               	movlw	0
  4014  002ACC  6E14               	movwf	(___fldiv@a+1)^0,c
  4015  002ACE  0E00               	movlw	0
  4016  002AD0  6E15               	movwf	(___fldiv@a+2)^0,c
  4017  002AD2  0E00               	movlw	0
  4018  002AD4  6E16               	movwf	(___fldiv@a+3)^0,c
  4019  002AD6                     l3410:
  4020  002AD6  5013               	movf	___fldiv@a^0,w,c
  4021  002AD8  1014               	iorwf	(___fldiv@a+1)^0,w,c
  4022  002ADA  1015               	iorwf	(___fldiv@a+2)^0,w,c
  4023  002ADC  1016               	iorwf	(___fldiv@a+3)^0,w,c
  4024  002ADE  A4D8               	btfss	status,2,c
  4025  002AE0  EF74  F015         	goto	u2491
  4026  002AE4  EF76  F015         	goto	u2490
  4027  002AE8                     u2491:
  4028  002AE8  EF8E  F015         	goto	l3422
  4029  002AEC                     u2490:
  4030  002AEC  0E00               	movlw	0
  4031  002AEE  6E0F               	movwf	___fldiv@b^0,c
  4032  002AF0  0E00               	movlw	0
  4033  002AF2  6E10               	movwf	(___fldiv@b+1)^0,c
  4034  002AF4  0E00               	movlw	0
  4035  002AF6  6E11               	movwf	(___fldiv@b+2)^0,c
  4036  002AF8  0E00               	movlw	0
  4037  002AFA  6E12               	movwf	(___fldiv@b+3)^0,c
  4038  002AFC  0E80               	movlw	128
  4039  002AFE  1211               	iorwf	(___fldiv@b+2)^0,f,c
  4040  002B00  0E7F               	movlw	127
  4041  002B02  1212               	iorwf	(___fldiv@b+3)^0,f,c
  4042  002B04                     l3416:
  4043  002B04  501F               	movf	___fldiv@sign^0,w,c
  4044  002B06  1212               	iorwf	(___fldiv@b+3)^0,f,c
  4045  002B08  C00F  F00F         	movff	___fldiv@b,?___fldiv
  4046  002B0C  C010  F010         	movff	___fldiv@b+1,?___fldiv+1
  4047  002B10  C011  F011         	movff	___fldiv@b+2,?___fldiv+2
  4048  002B14  C012  F012         	movff	___fldiv@b+3,?___fldiv+3
  4049  002B18  EFD1  F016         	goto	l1225
  4050  002B1C                     l3422:
  4051  002B1C  5026               	movf	___fldiv@bexp^0,w,c
  4052  002B1E  A4D8               	btfss	status,2,c
  4053  002B20  EF94  F015         	goto	u2501
  4054  002B24  EF96  F015         	goto	u2500
  4055  002B28                     u2501:
  4056  002B28  EFA0  F015         	goto	l3430
  4057  002B2C                     u2500:
  4058  002B2C  0E00               	movlw	0
  4059  002B2E  6E0F               	movwf	?___fldiv^0,c
  4060  002B30  0E00               	movlw	0
  4061  002B32  6E10               	movwf	(?___fldiv+1)^0,c
  4062  002B34  0E00               	movlw	0
  4063  002B36  6E11               	movwf	(?___fldiv+2)^0,c
  4064  002B38  0E00               	movlw	0
  4065  002B3A  6E12               	movwf	(?___fldiv+3)^0,c
  4066  002B3C  EFD1  F016         	goto	l1225
  4067  002B40                     l3430:
  4068  002B40  5027               	movf	___fldiv@aexp^0,w,c
  4069  002B42  C026  F017         	movff	___fldiv@bexp,??___fldiv
  4070  002B46  6A18               	clrf	(??___fldiv+1)^0,c
  4071  002B48  5E17               	subwf	??___fldiv^0,f,c
  4072  002B4A  0E00               	movlw	0
  4073  002B4C  5A18               	subwfb	(??___fldiv+1)^0,f,c
  4074  002B4E  0E7F               	movlw	127
  4075  002B50  2417               	addwf	??___fldiv^0,w,c
  4076  002B52  6E20               	movwf	___fldiv@new_exp^0,c
  4077  002B54  0E00               	movlw	0
  4078  002B56  2018               	addwfc	(??___fldiv+1)^0,w,c
  4079  002B58  6E21               	movwf	(___fldiv@new_exp+1)^0,c
  4080  002B5A  C00F  F01B         	movff	___fldiv@b,___fldiv@rem
  4081  002B5E  C010  F01C         	movff	___fldiv@b+1,___fldiv@rem+1
  4082  002B62  C011  F01D         	movff	___fldiv@b+2,___fldiv@rem+2
  4083  002B66  C012  F01E         	movff	___fldiv@b+3,___fldiv@rem+3
  4084  002B6A  0E00               	movlw	0
  4085  002B6C  6E0F               	movwf	___fldiv@b^0,c
  4086  002B6E  0E00               	movlw	0
  4087  002B70  6E10               	movwf	(___fldiv@b+1)^0,c
  4088  002B72  0E00               	movlw	0
  4089  002B74  6E11               	movwf	(___fldiv@b+2)^0,c
  4090  002B76  0E00               	movlw	0
  4091  002B78  6E12               	movwf	(___fldiv@b+3)^0,c
  4092  002B7A  0E00               	movlw	0
  4093  002B7C  6E22               	movwf	___fldiv@grs^0,c
  4094  002B7E  0E00               	movlw	0
  4095  002B80  6E23               	movwf	(___fldiv@grs+1)^0,c
  4096  002B82  0E00               	movlw	0
  4097  002B84  6E24               	movwf	(___fldiv@grs+2)^0,c
  4098  002B86  0E00               	movlw	0
  4099  002B88  6E25               	movwf	(___fldiv@grs+3)^0,c
  4100  002B8A  0E00               	movlw	0
  4101  002B8C  6E27               	movwf	___fldiv@aexp^0,c
  4102  002B8E  EF01  F016         	goto	l1227
  4103  002B92                     l3440:
  4104  002B92  5027               	movf	___fldiv@aexp^0,w,c
  4105  002B94  B4D8               	btfsc	status,2,c
  4106  002B96  EFCF  F015         	goto	u2511
  4107  002B9A  EFD1  F015         	goto	u2510
  4108  002B9E                     u2511:
  4109  002B9E  EFE8  F015         	goto	l3448
  4110  002BA2                     u2510:
  4111  002BA2  90D8               	bcf	status,0,c
  4112  002BA4  361B               	rlcf	___fldiv@rem^0,f,c
  4113  002BA6  361C               	rlcf	(___fldiv@rem+1)^0,f,c
  4114  002BA8  361D               	rlcf	(___fldiv@rem+2)^0,f,c
  4115  002BAA  361E               	rlcf	(___fldiv@rem+3)^0,f,c
  4116  002BAC  90D8               	bcf	status,0,c
  4117  002BAE  360F               	rlcf	___fldiv@b^0,f,c
  4118  002BB0  3610               	rlcf	(___fldiv@b+1)^0,f,c
  4119  002BB2  3611               	rlcf	(___fldiv@b+2)^0,f,c
  4120  002BB4  3612               	rlcf	(___fldiv@b+3)^0,f,c
  4121  002BB6  AE25               	btfss	(___fldiv@grs+3)^0,7,c
  4122  002BB8  EFE0  F015         	goto	u2521
  4123  002BBC  EFE2  F015         	goto	u2520
  4124  002BC0                     u2521:
  4125  002BC0  EFE3  F015         	goto	l1230
  4126  002BC4                     u2520:
  4127  002BC4  800F               	bsf	___fldiv@b^0,0,c
  4128  002BC6                     l1230:
  4129  002BC6  90D8               	bcf	status,0,c
  4130  002BC8  3622               	rlcf	___fldiv@grs^0,f,c
  4131  002BCA  3623               	rlcf	(___fldiv@grs+1)^0,f,c
  4132  002BCC  3624               	rlcf	(___fldiv@grs+2)^0,f,c
  4133  002BCE  3625               	rlcf	(___fldiv@grs+3)^0,f,c
  4134  002BD0                     l3448:
  4135  002BD0  5013               	movf	___fldiv@a^0,w,c
  4136  002BD2  5C1B               	subwf	___fldiv@rem^0,w,c
  4137  002BD4  5014               	movf	(___fldiv@a+1)^0,w,c
  4138  002BD6  581C               	subwfb	(___fldiv@rem+1)^0,w,c
  4139  002BD8  5015               	movf	(___fldiv@a+2)^0,w,c
  4140  002BDA  581D               	subwfb	(___fldiv@rem+2)^0,w,c
  4141  002BDC  5016               	movf	(___fldiv@a+3)^0,w,c
  4142  002BDE  581E               	subwfb	(___fldiv@rem+3)^0,w,c
  4143  002BE0  A0D8               	btfss	status,0,c
  4144  002BE2  EFF5  F015         	goto	u2531
  4145  002BE6  EFF7  F015         	goto	u2530
  4146  002BEA                     u2531:
  4147  002BEA  EF00  F016         	goto	l3454
  4148  002BEE                     u2530:
  4149  002BEE  8C25               	bsf	(___fldiv@grs+3)^0,6,c
  4150  002BF0  5013               	movf	___fldiv@a^0,w,c
  4151  002BF2  5E1B               	subwf	___fldiv@rem^0,f,c
  4152  002BF4  5014               	movf	(___fldiv@a+1)^0,w,c
  4153  002BF6  5A1C               	subwfb	(___fldiv@rem+1)^0,f,c
  4154  002BF8  5015               	movf	(___fldiv@a+2)^0,w,c
  4155  002BFA  5A1D               	subwfb	(___fldiv@rem+2)^0,f,c
  4156  002BFC  5016               	movf	(___fldiv@a+3)^0,w,c
  4157  002BFE  5A1E               	subwfb	(___fldiv@rem+3)^0,f,c
  4158  002C00                     l3454:
  4159  002C00  2A27               	incf	___fldiv@aexp^0,f,c
  4160  002C02                     l1227:
  4161  002C02  0E19               	movlw	25
  4162  002C04  6427               	cpfsgt	___fldiv@aexp^0,c
  4163  002C06  EF07  F016         	goto	u2541
  4164  002C0A  EF09  F016         	goto	u2540
  4165  002C0E                     u2541:
  4166  002C0E  EFC9  F015         	goto	l3440
  4167  002C12                     u2540:
  4168  002C12  501B               	movf	___fldiv@rem^0,w,c
  4169  002C14  101C               	iorwf	(___fldiv@rem+1)^0,w,c
  4170  002C16  101D               	iorwf	(___fldiv@rem+2)^0,w,c
  4171  002C18  101E               	iorwf	(___fldiv@rem+3)^0,w,c
  4172  002C1A  B4D8               	btfsc	status,2,c
  4173  002C1C  EF12  F016         	goto	u2551
  4174  002C20  EF14  F016         	goto	u2550
  4175  002C24                     u2551:
  4176  002C24  EF2C  F016         	goto	l3466
  4177  002C28                     u2550:
  4178  002C28  8022               	bsf	___fldiv@grs^0,0,c
  4179  002C2A  EF2C  F016         	goto	l3466
  4180  002C2E                     l3460:
  4181  002C2E  90D8               	bcf	status,0,c
  4182  002C30  360F               	rlcf	___fldiv@b^0,f,c
  4183  002C32  3610               	rlcf	(___fldiv@b+1)^0,f,c
  4184  002C34  3611               	rlcf	(___fldiv@b+2)^0,f,c
  4185  002C36  3612               	rlcf	(___fldiv@b+3)^0,f,c
  4186  002C38  AE25               	btfss	(___fldiv@grs+3)^0,7,c
  4187  002C3A  EF21  F016         	goto	u2561
  4188  002C3E  EF23  F016         	goto	u2560
  4189  002C42                     u2561:
  4190  002C42  EF24  F016         	goto	l1236
  4191  002C46                     u2560:
  4192  002C46  800F               	bsf	___fldiv@b^0,0,c
  4193  002C48                     l1236:
  4194  002C48  90D8               	bcf	status,0,c
  4195  002C4A  3622               	rlcf	___fldiv@grs^0,f,c
  4196  002C4C  3623               	rlcf	(___fldiv@grs+1)^0,f,c
  4197  002C4E  3624               	rlcf	(___fldiv@grs+2)^0,f,c
  4198  002C50  3625               	rlcf	(___fldiv@grs+3)^0,f,c
  4199  002C52  0620               	decf	___fldiv@new_exp^0,f,c
  4200  002C54  A0D8               	btfss	status,0,c
  4201  002C56  0621               	decf	(___fldiv@new_exp+1)^0,f,c
  4202  002C58                     l3466:
  4203  002C58  AE11               	btfss	(___fldiv@b+2)^0,7,c
  4204  002C5A  EF31  F016         	goto	u2571
  4205  002C5E  EF33  F016         	goto	u2570
  4206  002C62                     u2571:
  4207  002C62  EF17  F016         	goto	l3460
  4208  002C66                     u2570:
  4209  002C66  0E00               	movlw	0
  4210  002C68  6E27               	movwf	___fldiv@aexp^0,c
  4211  002C6A  AE25               	btfss	(___fldiv@grs+3)^0,7,c
  4212  002C6C  EF3A  F016         	goto	u2581
  4213  002C70  EF3C  F016         	goto	u2580
  4214  002C74                     u2581:
  4215  002C74  EF60  F016         	goto	l1238
  4216  002C78                     u2580:
  4217  002C78  0EFF               	movlw	255
  4218  002C7A  1422               	andwf	___fldiv@grs^0,w,c
  4219  002C7C  6E17               	movwf	??___fldiv^0,c
  4220  002C7E  0EFF               	movlw	255
  4221  002C80  1423               	andwf	(___fldiv@grs+1)^0,w,c
  4222  002C82  6E18               	movwf	(??___fldiv+1)^0,c
  4223  002C84  0EFF               	movlw	255
  4224  002C86  1424               	andwf	(___fldiv@grs+2)^0,w,c
  4225  002C88  6E19               	movwf	(??___fldiv+2)^0,c
  4226  002C8A  0E7F               	movlw	127
  4227  002C8C  1425               	andwf	(___fldiv@grs+3)^0,w,c
  4228  002C8E  6E1A               	movwf	(??___fldiv+3)^0,c
  4229  002C90  5017               	movf	??___fldiv^0,w,c
  4230  002C92  1018               	iorwf	(??___fldiv+1)^0,w,c
  4231  002C94  1019               	iorwf	(??___fldiv+2)^0,w,c
  4232  002C96  101A               	iorwf	(??___fldiv+3)^0,w,c
  4233  002C98  B4D8               	btfsc	status,2,c
  4234  002C9A  EF51  F016         	goto	u2591
  4235  002C9E  EF53  F016         	goto	u2590
  4236  002CA2                     u2591:
  4237  002CA2  EF57  F016         	goto	l1239
  4238  002CA6                     u2590:
  4239  002CA6                     l3474:
  4240  002CA6  0E01               	movlw	1
  4241  002CA8  6E27               	movwf	___fldiv@aexp^0,c
  4242  002CAA  EF60  F016         	goto	l1238
  4243  002CAE                     l1239:
  4244  002CAE  A00F               	btfss	___fldiv@b^0,0,c
  4245  002CB0  EF5C  F016         	goto	u2601
  4246  002CB4  EF5E  F016         	goto	u2600
  4247  002CB8                     u2601:
  4248  002CB8  EF60  F016         	goto	l1238
  4249  002CBC                     u2600:
  4250  002CBC  EF53  F016         	goto	l3474
  4251  002CC0                     l1238:
  4252  002CC0  5027               	movf	___fldiv@aexp^0,w,c
  4253  002CC2  B4D8               	btfsc	status,2,c
  4254  002CC4  EF66  F016         	goto	u2611
  4255  002CC8  EF68  F016         	goto	u2610
  4256  002CCC                     u2611:
  4257  002CCC  EF8C  F016         	goto	l3486
  4258  002CD0                     u2610:
  4259  002CD0  0E01               	movlw	1
  4260  002CD2  260F               	addwf	___fldiv@b^0,f,c
  4261  002CD4  0E00               	movlw	0
  4262  002CD6  2210               	addwfc	(___fldiv@b+1)^0,f,c
  4263  002CD8  2211               	addwfc	(___fldiv@b+2)^0,f,c
  4264  002CDA  2212               	addwfc	(___fldiv@b+3)^0,f,c
  4265  002CDC  A012               	btfss	(___fldiv@b+3)^0,0,c
  4266  002CDE  EF73  F016         	goto	u2621
  4267  002CE2  EF75  F016         	goto	u2620
  4268  002CE6                     u2621:
  4269  002CE6  EF8C  F016         	goto	l3486
  4270  002CEA                     u2620:
  4271  002CEA  C00F  F017         	movff	___fldiv@b,??___fldiv
  4272  002CEE  C010  F018         	movff	___fldiv@b+1,??___fldiv+1
  4273  002CF2  C011  F019         	movff	___fldiv@b+2,??___fldiv+2
  4274  002CF6  C012  F01A         	movff	___fldiv@b+3,??___fldiv+3
  4275  002CFA  341A               	rlcf	(??___fldiv+3)^0,w,c
  4276  002CFC  321A               	rrcf	(??___fldiv+3)^0,f,c
  4277  002CFE  3219               	rrcf	(??___fldiv+2)^0,f,c
  4278  002D00  3218               	rrcf	(??___fldiv+1)^0,f,c
  4279  002D02  3217               	rrcf	??___fldiv^0,f,c
  4280  002D04  C017  F00F         	movff	??___fldiv,___fldiv@b
  4281  002D08  C018  F010         	movff	??___fldiv+1,___fldiv@b+1
  4282  002D0C  C019  F011         	movff	??___fldiv+2,___fldiv@b+2
  4283  002D10  C01A  F012         	movff	??___fldiv+3,___fldiv@b+3
  4284  002D14  4A20               	infsnz	___fldiv@new_exp^0,f,c
  4285  002D16  2A21               	incf	(___fldiv@new_exp+1)^0,f,c
  4286  002D18                     l3486:
  4287  002D18  BE21               	btfsc	(___fldiv@new_exp+1)^0,7,c
  4288  002D1A  EF97  F016         	goto	u2631
  4289  002D1E  5021               	movf	(___fldiv@new_exp+1)^0,w,c
  4290  002D20  E108               	bnz	u2630
  4291  002D22  2820               	incf	___fldiv@new_exp^0,w,c
  4292  002D24  A0D8               	btfss	status,0,c
  4293  002D26  EF97  F016         	goto	u2631
  4294  002D2A  EF99  F016         	goto	u2630
  4295  002D2E                     u2631:
  4296  002D2E  EFA4  F016         	goto	l3490
  4297  002D32                     u2630:
  4298  002D32  0E00               	movlw	0
  4299  002D34  6E21               	movwf	(___fldiv@new_exp+1)^0,c
  4300  002D36  6820               	setf	___fldiv@new_exp^0,c
  4301  002D38  0E00               	movlw	0
  4302  002D3A  6E0F               	movwf	___fldiv@b^0,c
  4303  002D3C  0E00               	movlw	0
  4304  002D3E  6E10               	movwf	(___fldiv@b+1)^0,c
  4305  002D40  0E00               	movlw	0
  4306  002D42  6E11               	movwf	(___fldiv@b+2)^0,c
  4307  002D44  0E00               	movlw	0
  4308  002D46  6E12               	movwf	(___fldiv@b+3)^0,c
  4309  002D48                     l3490:
  4310  002D48  BE21               	btfsc	(___fldiv@new_exp+1)^0,7,c
  4311  002D4A  EFB1  F016         	goto	u2640
  4312  002D4E  5021               	movf	(___fldiv@new_exp+1)^0,w,c
  4313  002D50  E106               	bnz	u2641
  4314  002D52  0420               	decf	___fldiv@new_exp^0,w,c
  4315  002D54  B0D8               	btfsc	status,0,c
  4316  002D56  EFAF  F016         	goto	u2641
  4317  002D5A  EFB1  F016         	goto	u2640
  4318  002D5E                     u2641:
  4319  002D5E  EFBF  F016         	goto	l3494
  4320  002D62                     u2640:
  4321  002D62  0E00               	movlw	0
  4322  002D64  6E21               	movwf	(___fldiv@new_exp+1)^0,c
  4323  002D66  0E00               	movlw	0
  4324  002D68  6E20               	movwf	___fldiv@new_exp^0,c
  4325  002D6A  0E00               	movlw	0
  4326  002D6C  6E0F               	movwf	___fldiv@b^0,c
  4327  002D6E  0E00               	movlw	0
  4328  002D70  6E10               	movwf	(___fldiv@b+1)^0,c
  4329  002D72  0E00               	movlw	0
  4330  002D74  6E11               	movwf	(___fldiv@b+2)^0,c
  4331  002D76  0E00               	movlw	0
  4332  002D78  6E12               	movwf	(___fldiv@b+3)^0,c
  4333  002D7A  0E00               	movlw	0
  4334  002D7C  6E1F               	movwf	___fldiv@sign^0,c
  4335  002D7E                     l3494:
  4336  002D7E  C020  F026         	movff	___fldiv@new_exp,___fldiv@bexp
  4337  002D82  A026               	btfss	___fldiv@bexp^0,0,c
  4338  002D84  EFC6  F016         	goto	u2651
  4339  002D88  EFC8  F016         	goto	u2650
  4340  002D8C                     u2651:
  4341  002D8C  EFCB  F016         	goto	l3500
  4342  002D90                     u2650:
  4343  002D90  8E11               	bsf	(___fldiv@b+2)^0,7,c
  4344  002D92  EFCC  F016         	goto	l3502
  4345  002D96                     l3500:
  4346  002D96  9E11               	bcf	(___fldiv@b+2)^0,7,c
  4347  002D98                     l3502:
  4348  002D98  90D8               	bcf	status,0,c
  4349  002D9A  3026               	rrcf	___fldiv@bexp^0,w,c
  4350  002D9C  6E12               	movwf	(___fldiv@b+3)^0,c
  4351  002D9E  EF82  F015         	goto	l3416
  4352  002DA2                     l1225:
  4353  002DA2  0012               	return		;funcret
  4354  002DA4                     __end_of___fldiv:
  4355                           	callstack 0
  4356                           
  4357 ;; *************** function ___fladd *****************
  4358 ;; Defined at:
  4359 ;;		line 10 in file "C:\Program Files\Microchip\xc8\v2.32\pic\sources\c99\common\sprcadd.c"
  4360 ;; Parameters:    Size  Location     Type
  4361 ;;  b               4   39[COMRAM] unsigned char 
  4362 ;;  a               4   43[COMRAM] unsigned char 
  4363 ;; Auto vars:     Size  Location     Type
  4364 ;;  grs             1   54[COMRAM] unsigned char 
  4365 ;;  bexp            1   53[COMRAM] unsigned char 
  4366 ;;  aexp            1   52[COMRAM] unsigned char 
  4367 ;;  signs           1   51[COMRAM] unsigned char 
  4368 ;; Return value:  Size  Location     Type
  4369 ;;                  4   39[COMRAM] unsigned char 
  4370 ;; Registers used:
  4371 ;;		wreg, status,2, status,0
  4372 ;; Tracked objects:
  4373 ;;		On entry : 0/0
  4374 ;;		On exit  : 0/0
  4375 ;;		Unchanged: 0/0
  4376 ;; Data sizes:     COMRAM   BANK0   BANK1   BANK2   BANK3   BANK4   BANK5   BANK6   BANK7   BANK8   BANK9  BANK10  BANK1
      +1  BANK12  BANK13  BANK14  BANK15  BANK16  BANK17  BANK18  BANK19  BANK20  BANK21  BANK22  BANK23  BANK24  BANK25  BANK2
      +6  BANK27  BANK28  BANK29  BANK30  BANK31
  4377 ;;      Params:         8       0       0       0       0       0       0       0       0       0       0       0       
      +0       0       0       0       0       0       0       0       0       0       0       0       0       0       0       
      +0       0       0       0       0       0
  4378 ;;      Locals:         4       0       0       0       0       0       0       0       0       0       0       0       
      +0       0       0       0       0       0       0       0       0       0       0       0       0       0       0       
      +0       0       0       0       0       0
  4379 ;;      Temps:          4       0       0       0       0       0       0       0       0       0       0       0       
      +0       0       0       0       0       0       0       0       0       0       0       0       0       0       0       
      +0       0       0       0       0       0
  4380 ;;      Totals:        16       0       0       0       0       0       0       0       0       0       0       0       
      +0       0       0       0       0       0       0       0       0       0       0       0       0       0       0       
      +0       0       0       0       0       0
  4381 ;;Total ram usage:       16 bytes
  4382 ;; Hardware stack levels used: 1
  4383 ;; Hardware stack levels required when called: 4
  4384 ;; This function calls:
  4385 ;;		Nothing
  4386 ;; This function is called by:
  4387 ;;		_main
  4388 ;; This function uses a non-reentrant model
  4389 ;;
  4390                           
  4391                           	psect	text17
  4392  0020AA                     __ptext17:
  4393                           	callstack 0
  4394  0020AA                     ___fladd:
  4395                           	callstack 26
  4396  0020AA  502B               	movf	(___fladd@b+3)^0,w,c
  4397  0020AC  0B80               	andlw	128
  4398  0020AE  6E34               	movwf	___fladd@signs^0,c
  4399  0020B0  502B               	movf	(___fladd@b+3)^0,w,c
  4400  0020B2  242B               	addwf	(___fladd@b+3)^0,w,c
  4401  0020B4  6E36               	movwf	___fladd@bexp^0,c
  4402  0020B6  AE2A               	btfss	(___fladd@b+2)^0,7,c
  4403  0020B8  EF60  F010         	goto	u2041
  4404  0020BC  EF62  F010         	goto	u2040
  4405  0020C0                     u2041:
  4406  0020C0  EF63  F010         	goto	l3176
  4407  0020C4                     u2040:
  4408  0020C4  8036               	bsf	___fladd@bexp^0,0,c
  4409  0020C6                     l3176:
  4410  0020C6  5036               	movf	___fladd@bexp^0,w,c
  4411  0020C8  B4D8               	btfsc	status,2,c
  4412  0020CA  EF69  F010         	goto	u2051
  4413  0020CE  EF6B  F010         	goto	u2050
  4414  0020D2                     u2051:
  4415  0020D2  EF80  F010         	goto	l3186
  4416  0020D6                     u2050:
  4417  0020D6  2836               	incf	___fladd@bexp^0,w,c
  4418  0020D8  A4D8               	btfss	status,2,c
  4419  0020DA  EF71  F010         	goto	u2061
  4420  0020DE  EF73  F010         	goto	u2060
  4421  0020E2                     u2061:
  4422  0020E2  EF7B  F010         	goto	l3182
  4423  0020E6                     u2060:
  4424  0020E6  0E00               	movlw	0
  4425  0020E8  6E28               	movwf	___fladd@b^0,c
  4426  0020EA  0E00               	movlw	0
  4427  0020EC  6E29               	movwf	(___fladd@b+1)^0,c
  4428  0020EE  0E00               	movlw	0
  4429  0020F0  6E2A               	movwf	(___fladd@b+2)^0,c
  4430  0020F2  0E00               	movlw	0
  4431  0020F4  6E2B               	movwf	(___fladd@b+3)^0,c
  4432  0020F6                     l3182:
  4433  0020F6  8E2A               	bsf	(___fladd@b+2)^0,7,c
  4434  0020F8  0E00               	movlw	0
  4435  0020FA  6E2B               	movwf	(___fladd@b+3)^0,c
  4436  0020FC  EF88  F010         	goto	l3188
  4437  002100                     l3186:
  4438  002100  0E00               	movlw	0
  4439  002102  6E28               	movwf	___fladd@b^0,c
  4440  002104  0E00               	movlw	0
  4441  002106  6E29               	movwf	(___fladd@b+1)^0,c
  4442  002108  0E00               	movlw	0
  4443  00210A  6E2A               	movwf	(___fladd@b+2)^0,c
  4444  00210C  0E00               	movlw	0
  4445  00210E  6E2B               	movwf	(___fladd@b+3)^0,c
  4446  002110                     l3188:
  4447  002110  502F               	movf	(___fladd@a+3)^0,w,c
  4448  002112  0B80               	andlw	128
  4449  002114  6E35               	movwf	___fladd@aexp^0,c
  4450  002116  5034               	movf	___fladd@signs^0,w,c
  4451  002118  1835               	xorwf	___fladd@aexp^0,w,c
  4452  00211A  B4D8               	btfsc	status,2,c
  4453  00211C  EF92  F010         	goto	u2071
  4454  002120  EF94  F010         	goto	u2070
  4455  002124                     u2071:
  4456  002124  EF95  F010         	goto	l3194
  4457  002128                     u2070:
  4458  002128  8C34               	bsf	___fladd@signs^0,6,c
  4459  00212A                     l3194:
  4460  00212A  502F               	movf	(___fladd@a+3)^0,w,c
  4461  00212C  242F               	addwf	(___fladd@a+3)^0,w,c
  4462  00212E  6E35               	movwf	___fladd@aexp^0,c
  4463  002130  AE2E               	btfss	(___fladd@a+2)^0,7,c
  4464  002132  EF9D  F010         	goto	u2081
  4465  002136  EF9F  F010         	goto	u2080
  4466  00213A                     u2081:
  4467  00213A  EFA0  F010         	goto	l3200
  4468  00213E                     u2080:
  4469  00213E  8035               	bsf	___fladd@aexp^0,0,c
  4470  002140                     l3200:
  4471  002140  5035               	movf	___fladd@aexp^0,w,c
  4472  002142  B4D8               	btfsc	status,2,c
  4473  002144  EFA6  F010         	goto	u2091
  4474  002148  EFA8  F010         	goto	u2090
  4475  00214C                     u2091:
  4476  00214C  EFBD  F010         	goto	l3210
  4477  002150                     u2090:
  4478  002150  2835               	incf	___fladd@aexp^0,w,c
  4479  002152  A4D8               	btfss	status,2,c
  4480  002154  EFAE  F010         	goto	u2101
  4481  002158  EFB0  F010         	goto	u2100
  4482  00215C                     u2101:
  4483  00215C  EFB8  F010         	goto	l3206
  4484  002160                     u2100:
  4485  002160  0E00               	movlw	0
  4486  002162  6E2C               	movwf	___fladd@a^0,c
  4487  002164  0E00               	movlw	0
  4488  002166  6E2D               	movwf	(___fladd@a+1)^0,c
  4489  002168  0E00               	movlw	0
  4490  00216A  6E2E               	movwf	(___fladd@a+2)^0,c
  4491  00216C  0E00               	movlw	0
  4492  00216E  6E2F               	movwf	(___fladd@a+3)^0,c
  4493  002170                     l3206:
  4494  002170  8E2E               	bsf	(___fladd@a+2)^0,7,c
  4495  002172  0E00               	movlw	0
  4496  002174  6E2F               	movwf	(___fladd@a+3)^0,c
  4497  002176  EFC5  F010         	goto	l3212
  4498  00217A                     l3210:
  4499  00217A  0E00               	movlw	0
  4500  00217C  6E2C               	movwf	___fladd@a^0,c
  4501  00217E  0E00               	movlw	0
  4502  002180  6E2D               	movwf	(___fladd@a+1)^0,c
  4503  002182  0E00               	movlw	0
  4504  002184  6E2E               	movwf	(___fladd@a+2)^0,c
  4505  002186  0E00               	movlw	0
  4506  002188  6E2F               	movwf	(___fladd@a+3)^0,c
  4507  00218A                     l3212:
  4508  00218A  5036               	movf	___fladd@bexp^0,w,c
  4509  00218C  5C35               	subwf	___fladd@aexp^0,w,c
  4510  00218E  B0D8               	btfsc	status,0,c
  4511  002190  EFCC  F010         	goto	u2111
  4512  002194  EFCE  F010         	goto	u2110
  4513  002198                     u2111:
  4514  002198  EFF5  F010         	goto	l3248
  4515  00219C                     u2110:
  4516  00219C  AC34               	btfss	___fladd@signs^0,6,c
  4517  00219E  EFD3  F010         	goto	u2121
  4518  0021A2  EFD5  F010         	goto	u2120
  4519  0021A6                     u2121:
  4520  0021A6  EFD7  F010         	goto	l3218
  4521  0021AA                     u2120:
  4522  0021AA  0E80               	movlw	128
  4523  0021AC  1A34               	xorwf	___fladd@signs^0,f,c
  4524  0021AE                     l3218:
  4525  0021AE  C036  F037         	movff	___fladd@bexp,___fladd@grs
  4526  0021B2  C035  F036         	movff	___fladd@aexp,___fladd@bexp
  4527  0021B6  C037  F035         	movff	___fladd@grs,___fladd@aexp
  4528  0021BA  C028  F037         	movff	___fladd@b,___fladd@grs
  4529  0021BE  C02C  F028         	movff	___fladd@a,___fladd@b
  4530  0021C2  C037  F02C         	movff	___fladd@grs,___fladd@a
  4531  0021C6  C029  F037         	movff	___fladd@b+1,___fladd@grs
  4532  0021CA  C02D  F029         	movff	___fladd@a+1,___fladd@b+1
  4533  0021CE  C037  F02D         	movff	___fladd@grs,___fladd@a+1
  4534  0021D2  C02A  F037         	movff	___fladd@b+2,___fladd@grs
  4535  0021D6  C02E  F02A         	movff	___fladd@a+2,___fladd@b+2
  4536  0021DA  C037  F02E         	movff	___fladd@grs,___fladd@a+2
  4537  0021DE  C02B  F037         	movff	___fladd@b+3,___fladd@grs
  4538  0021E2  C02F  F02B         	movff	___fladd@a+3,___fladd@b+3
  4539  0021E6  C037  F02F         	movff	___fladd@grs,___fladd@a+3
  4540  0021EA                     l3248:
  4541  0021EA  0E00               	movlw	0
  4542  0021EC  6E37               	movwf	___fladd@grs^0,c
  4543  0021EE  5036               	movf	___fladd@bexp^0,w,c
  4544  0021F0  C035  F030         	movff	___fladd@aexp,??___fladd
  4545  0021F4  6A31               	clrf	(??___fladd+1)^0,c
  4546  0021F6  5E30               	subwf	??___fladd^0,f,c
  4547  0021F8  0E00               	movlw	0
  4548  0021FA  5A31               	subwfb	(??___fladd+1)^0,f,c
  4549  0021FC  BE31               	btfsc	(??___fladd+1)^0,7,c
  4550  0021FE  EF0A  F011         	goto	u2131
  4551  002202  5031               	movf	(??___fladd+1)^0,w,c
  4552  002204  E109               	bnz	u2130
  4553  002206  0E1A               	movlw	26
  4554  002208  5C30               	subwf	??___fladd^0,w,c
  4555  00220A  A0D8               	btfss	status,0,c
  4556  00220C  EF0A  F011         	goto	u2131
  4557  002210  EF0C  F011         	goto	u2130
  4558  002214                     u2131:
  4559  002214  EF43  F011         	goto	l1172
  4560  002218                     u2130:
  4561  002218  5028               	movf	___fladd@b^0,w,c
  4562  00221A  1029               	iorwf	(___fladd@b+1)^0,w,c
  4563  00221C  102A               	iorwf	(___fladd@b+2)^0,w,c
  4564  00221E  102B               	iorwf	(___fladd@b+3)^0,w,c
  4565  002220  A4D8               	btfss	status,2,c
  4566  002222  EF15  F011         	goto	u2141
  4567  002226  EF18  F011         	goto	u2140
  4568  00222A                     u2141:
  4569  00222A  0E01               	movlw	1
  4570  00222C  EF19  F011         	goto	u2150
  4571  002230                     u2140:
  4572  002230  0E00               	movlw	0
  4573  002232                     u2150:
  4574  002232  6E37               	movwf	___fladd@grs^0,c
  4575  002234  0E00               	movlw	0
  4576  002236  6E28               	movwf	___fladd@b^0,c
  4577  002238  0E00               	movlw	0
  4578  00223A  6E29               	movwf	(___fladd@b+1)^0,c
  4579  00223C  0E00               	movlw	0
  4580  00223E  6E2A               	movwf	(___fladd@b+2)^0,c
  4581  002240  0E00               	movlw	0
  4582  002242  6E2B               	movwf	(___fladd@b+3)^0,c
  4583  002244  C035  F036         	movff	___fladd@aexp,___fladd@bexp
  4584  002248  EF4C  F011         	goto	l1171
  4585  00224C                     l1173:
  4586  00224C  A037               	btfss	___fladd@grs^0,0,c
  4587  00224E  EF2B  F011         	goto	u2161
  4588  002252  EF2D  F011         	goto	u2160
  4589  002256                     u2161:
  4590  002256  EF33  F011         	goto	l3260
  4591  00225A                     u2160:
  4592  00225A  90D8               	bcf	status,0,c
  4593  00225C  3037               	rrcf	___fladd@grs^0,w,c
  4594  00225E  0901               	iorlw	1
  4595  002260  6E37               	movwf	___fladd@grs^0,c
  4596  002262  EF35  F011         	goto	l3262
  4597  002266                     l3260:
  4598  002266  90D8               	bcf	status,0,c
  4599  002268  3237               	rrcf	___fladd@grs^0,f,c
  4600  00226A                     l3262:
  4601  00226A  A028               	btfss	___fladd@b^0,0,c
  4602  00226C  EF3A  F011         	goto	u2171
  4603  002270  EF3C  F011         	goto	u2170
  4604  002274                     u2171:
  4605  002274  EF3D  F011         	goto	l3266
  4606  002278                     u2170:
  4607  002278  8E37               	bsf	___fladd@grs^0,7,c
  4608  00227A                     l3266:
  4609  00227A  342B               	rlcf	(___fladd@b+3)^0,w,c
  4610  00227C  322B               	rrcf	(___fladd@b+3)^0,f,c
  4611  00227E  322A               	rrcf	(___fladd@b+2)^0,f,c
  4612  002280  3229               	rrcf	(___fladd@b+1)^0,f,c
  4613  002282  3228               	rrcf	___fladd@b^0,f,c
  4614  002284  2A36               	incf	___fladd@bexp^0,f,c
  4615  002286                     l1172:
  4616  002286  5035               	movf	___fladd@aexp^0,w,c
  4617  002288  5C36               	subwf	___fladd@bexp^0,w,c
  4618  00228A  A0D8               	btfss	status,0,c
  4619  00228C  EF4A  F011         	goto	u2181
  4620  002290  EF4C  F011         	goto	u2180
  4621  002294                     u2181:
  4622  002294  EF26  F011         	goto	l1173
  4623  002298                     u2180:
  4624  002298                     l1171:
  4625  002298  BC34               	btfsc	___fladd@signs^0,6,c
  4626  00229A  EF51  F011         	goto	u2191
  4627  00229E  EF53  F011         	goto	u2190
  4628  0022A2                     u2191:
  4629  0022A2  EF93  F011         	goto	l3294
  4630  0022A6                     u2190:
  4631  0022A6  5036               	movf	___fladd@bexp^0,w,c
  4632  0022A8  A4D8               	btfss	status,2,c
  4633  0022AA  EF59  F011         	goto	u2201
  4634  0022AE  EF5B  F011         	goto	u2200
  4635  0022B2                     u2201:
  4636  0022B2  EF65  F011         	goto	l3276
  4637  0022B6                     u2200:
  4638  0022B6  0E00               	movlw	0
  4639  0022B8  6E28               	movwf	?___fladd^0,c
  4640  0022BA  0E00               	movlw	0
  4641  0022BC  6E29               	movwf	(?___fladd+1)^0,c
  4642  0022BE  0E00               	movlw	0
  4643  0022C0  6E2A               	movwf	(?___fladd+2)^0,c
  4644  0022C2  0E00               	movlw	0
  4645  0022C4  6E2B               	movwf	(?___fladd+3)^0,c
  4646  0022C6  EFB4  F012         	goto	l1180
  4647  0022CA                     l3276:
  4648  0022CA  502C               	movf	___fladd@a^0,w,c
  4649  0022CC  2628               	addwf	___fladd@b^0,f,c
  4650  0022CE  502D               	movf	(___fladd@a+1)^0,w,c
  4651  0022D0  2229               	addwfc	(___fladd@b+1)^0,f,c
  4652  0022D2  502E               	movf	(___fladd@a+2)^0,w,c
  4653  0022D4  222A               	addwfc	(___fladd@b+2)^0,f,c
  4654  0022D6  502F               	movf	(___fladd@a+3)^0,w,c
  4655  0022D8  222B               	addwfc	(___fladd@b+3)^0,f,c
  4656  0022DA  A02B               	btfss	(___fladd@b+3)^0,0,c
  4657  0022DC  EF72  F011         	goto	u2211
  4658  0022E0  EF74  F011         	goto	u2210
  4659  0022E4                     u2211:
  4660  0022E4  EF20  F012         	goto	l3330
  4661  0022E8                     u2210:
  4662  0022E8  A037               	btfss	___fladd@grs^0,0,c
  4663  0022EA  EF79  F011         	goto	u2221
  4664  0022EE  EF7B  F011         	goto	u2220
  4665  0022F2                     u2221:
  4666  0022F2  EF81  F011         	goto	l3284
  4667  0022F6                     u2220:
  4668  0022F6  90D8               	bcf	status,0,c
  4669  0022F8  3037               	rrcf	___fladd@grs^0,w,c
  4670  0022FA  0901               	iorlw	1
  4671  0022FC  6E37               	movwf	___fladd@grs^0,c
  4672  0022FE  EF83  F011         	goto	l3286
  4673  002302                     l3284:
  4674  002302  90D8               	bcf	status,0,c
  4675  002304  3237               	rrcf	___fladd@grs^0,f,c
  4676  002306                     l3286:
  4677  002306  A028               	btfss	___fladd@b^0,0,c
  4678  002308  EF88  F011         	goto	u2231
  4679  00230C  EF8A  F011         	goto	u2230
  4680  002310                     u2231:
  4681  002310  EF8B  F011         	goto	l3290
  4682  002314                     u2230:
  4683  002314  8E37               	bsf	___fladd@grs^0,7,c
  4684  002316                     l3290:
  4685  002316  342B               	rlcf	(___fladd@b+3)^0,w,c
  4686  002318  322B               	rrcf	(___fladd@b+3)^0,f,c
  4687  00231A  322A               	rrcf	(___fladd@b+2)^0,f,c
  4688  00231C  3229               	rrcf	(___fladd@b+1)^0,f,c
  4689  00231E  3228               	rrcf	___fladd@b^0,f,c
  4690  002320  2A36               	incf	___fladd@bexp^0,f,c
  4691  002322  EF20  F012         	goto	l3330
  4692  002326                     l3294:
  4693  002326  502C               	movf	___fladd@a^0,w,c
  4694  002328  5C28               	subwf	___fladd@b^0,w,c
  4695  00232A  502D               	movf	(___fladd@a+1)^0,w,c
  4696  00232C  5829               	subwfb	(___fladd@b+1)^0,w,c
  4697  00232E  502E               	movf	(___fladd@a+2)^0,w,c
  4698  002330  582A               	subwfb	(___fladd@b+2)^0,w,c
  4699  002332  502B               	movf	(___fladd@b+3)^0,w,c
  4700  002334  0A80               	xorlw	128
  4701  002336  6E30               	movwf	??___fladd^0,c
  4702  002338  502F               	movf	(___fladd@a+3)^0,w,c
  4703  00233A  0A80               	xorlw	128
  4704  00233C  5830               	subwfb	??___fladd^0,w,c
  4705  00233E  B0D8               	btfsc	status,0,c
  4706  002340  EFA4  F011         	goto	u2241
  4707  002344  EFA6  F011         	goto	u2240
  4708  002348                     u2241:
  4709  002348  EFD1  F011         	goto	l3304
  4710  00234C                     u2240:
  4711  00234C  5028               	movf	___fladd@b^0,w,c
  4712  00234E  5C2C               	subwf	___fladd@a^0,w,c
  4713  002350  6E30               	movwf	??___fladd^0,c
  4714  002352  5029               	movf	(___fladd@b+1)^0,w,c
  4715  002354  582D               	subwfb	(___fladd@a+1)^0,w,c
  4716  002356  6E31               	movwf	(??___fladd+1)^0,c
  4717  002358  502A               	movf	(___fladd@b+2)^0,w,c
  4718  00235A  582E               	subwfb	(___fladd@a+2)^0,w,c
  4719  00235C  6E32               	movwf	(??___fladd+2)^0,c
  4720  00235E  502B               	movf	(___fladd@b+3)^0,w,c
  4721  002360  582F               	subwfb	(___fladd@a+3)^0,w,c
  4722  002362  6E33               	movwf	(??___fladd+3)^0,c
  4723  002364  0EFF               	movlw	255
  4724  002366  2430               	addwf	??___fladd^0,w,c
  4725  002368  6E28               	movwf	___fladd@b^0,c
  4726  00236A  0EFF               	movlw	255
  4727  00236C  2031               	addwfc	(??___fladd+1)^0,w,c
  4728  00236E  6E29               	movwf	(___fladd@b+1)^0,c
  4729  002370  0EFF               	movlw	255
  4730  002372  2032               	addwfc	(??___fladd+2)^0,w,c
  4731  002374  6E2A               	movwf	(___fladd@b+2)^0,c
  4732  002376  0EFF               	movlw	255
  4733  002378  2033               	addwfc	(??___fladd+3)^0,w,c
  4734  00237A  6E2B               	movwf	(___fladd@b+3)^0,c
  4735  00237C  0E80               	movlw	128
  4736  00237E  1A34               	xorwf	___fladd@signs^0,f,c
  4737  002380  6C37               	negf	___fladd@grs^0,c
  4738  002382  5037               	movf	___fladd@grs^0,w,c
  4739  002384  A4D8               	btfss	status,2,c
  4740  002386  EFC7  F011         	goto	u2251
  4741  00238A  EFC9  F011         	goto	u2250
  4742  00238E                     u2251:
  4743  00238E  EFD9  F011         	goto	l1188
  4744  002392                     u2250:
  4745  002392  0E01               	movlw	1
  4746  002394  2628               	addwf	___fladd@b^0,f,c
  4747  002396  0E00               	movlw	0
  4748  002398  2229               	addwfc	(___fladd@b+1)^0,f,c
  4749  00239A  222A               	addwfc	(___fladd@b+2)^0,f,c
  4750  00239C  222B               	addwfc	(___fladd@b+3)^0,f,c
  4751  00239E  EFD9  F011         	goto	l1188
  4752  0023A2                     l3304:
  4753  0023A2  502C               	movf	___fladd@a^0,w,c
  4754  0023A4  5E28               	subwf	___fladd@b^0,f,c
  4755  0023A6  502D               	movf	(___fladd@a+1)^0,w,c
  4756  0023A8  5A29               	subwfb	(___fladd@b+1)^0,f,c
  4757  0023AA  502E               	movf	(___fladd@a+2)^0,w,c
  4758  0023AC  5A2A               	subwfb	(___fladd@b+2)^0,f,c
  4759  0023AE  502F               	movf	(___fladd@a+3)^0,w,c
  4760  0023B0  5A2B               	subwfb	(___fladd@b+3)^0,f,c
  4761  0023B2                     l1188:
  4762  0023B2  5028               	movf	___fladd@b^0,w,c
  4763  0023B4  1029               	iorwf	(___fladd@b+1)^0,w,c
  4764  0023B6  102A               	iorwf	(___fladd@b+2)^0,w,c
  4765  0023B8  102B               	iorwf	(___fladd@b+3)^0,w,c
  4766  0023BA  A4D8               	btfss	status,2,c
  4767  0023BC  EFE2  F011         	goto	u2261
  4768  0023C0  EFE4  F011         	goto	u2260
  4769  0023C4                     u2261:
  4770  0023C4  EF19  F012         	goto	l3328
  4771  0023C8                     u2260:
  4772  0023C8  5037               	movf	___fladd@grs^0,w,c
  4773  0023CA  A4D8               	btfss	status,2,c
  4774  0023CC  EFEA  F011         	goto	u2271
  4775  0023D0  EFEC  F011         	goto	u2270
  4776  0023D4                     u2271:
  4777  0023D4  EF19  F012         	goto	l3328
  4778  0023D8                     u2270:
  4779  0023D8  0E00               	movlw	0
  4780  0023DA  6E28               	movwf	?___fladd^0,c
  4781  0023DC  0E00               	movlw	0
  4782  0023DE  6E29               	movwf	(?___fladd+1)^0,c
  4783  0023E0  0E00               	movlw	0
  4784  0023E2  6E2A               	movwf	(?___fladd+2)^0,c
  4785  0023E4  0E00               	movlw	0
  4786  0023E6  6E2B               	movwf	(?___fladd+3)^0,c
  4787  0023E8  EFB4  F012         	goto	l1180
  4788  0023EC                     l3312:
  4789  0023EC  90D8               	bcf	status,0,c
  4790  0023EE  3628               	rlcf	___fladd@b^0,f,c
  4791  0023F0  3629               	rlcf	(___fladd@b+1)^0,f,c
  4792  0023F2  362A               	rlcf	(___fladd@b+2)^0,f,c
  4793  0023F4  362B               	rlcf	(___fladd@b+3)^0,f,c
  4794  0023F6  AE37               	btfss	___fladd@grs^0,7,c
  4795  0023F8  EF00  F012         	goto	u2281
  4796  0023FC  EF02  F012         	goto	u2280
  4797  002400                     u2281:
  4798  002400  EF03  F012         	goto	l3318
  4799  002404                     u2280:
  4800  002404  8028               	bsf	___fladd@b^0,0,c
  4801  002406                     l3318:
  4802  002406  A037               	btfss	___fladd@grs^0,0,c
  4803  002408  EF08  F012         	goto	u2291
  4804  00240C  EF0A  F012         	goto	u2290
  4805  002410                     u2291:
  4806  002410  EF0E  F012         	goto	l3322
  4807  002414                     u2290:
  4808  002414  80D8               	bsf	status,0,c
  4809  002416  3637               	rlcf	___fladd@grs^0,f,c
  4810  002418  EF10  F012         	goto	l3324
  4811  00241C                     l3322:
  4812  00241C  90D8               	bcf	status,0,c
  4813  00241E  3637               	rlcf	___fladd@grs^0,f,c
  4814  002420                     l3324:
  4815  002420  5036               	movf	___fladd@bexp^0,w,c
  4816  002422  B4D8               	btfsc	status,2,c
  4817  002424  EF16  F012         	goto	u2301
  4818  002428  EF18  F012         	goto	u2300
  4819  00242C                     u2301:
  4820  00242C  EF19  F012         	goto	l3328
  4821  002430                     u2300:
  4822  002430  0636               	decf	___fladd@bexp^0,f,c
  4823  002432                     l3328:
  4824  002432  AE2A               	btfss	(___fladd@b+2)^0,7,c
  4825  002434  EF1E  F012         	goto	u2311
  4826  002438  EF20  F012         	goto	u2310
  4827  00243C                     u2311:
  4828  00243C  EFF6  F011         	goto	l3312
  4829  002440                     u2310:
  4830  002440                     l3330:
  4831  002440  0E00               	movlw	0
  4832  002442  6E35               	movwf	___fladd@aexp^0,c
  4833  002444  AE37               	btfss	___fladd@grs^0,7,c
  4834  002446  EF27  F012         	goto	u2321
  4835  00244A  EF29  F012         	goto	u2320
  4836  00244E                     u2321:
  4837  00244E  EF41  F012         	goto	l1197
  4838  002452                     u2320:
  4839  002452  C037  F030         	movff	___fladd@grs,??___fladd
  4840  002456  0E7F               	movlw	127
  4841  002458  1630               	andwf	??___fladd^0,f,c
  4842  00245A  B4D8               	btfsc	status,2,c
  4843  00245C  EF32  F012         	goto	u2331
  4844  002460  EF34  F012         	goto	u2330
  4845  002464                     u2331:
  4846  002464  EF38  F012         	goto	l1198
  4847  002468                     u2330:
  4848  002468                     l3336:
  4849  002468  0E01               	movlw	1
  4850  00246A  6E35               	movwf	___fladd@aexp^0,c
  4851  00246C  EF41  F012         	goto	l1197
  4852  002470                     l1198:
  4853  002470  A028               	btfss	___fladd@b^0,0,c
  4854  002472  EF3D  F012         	goto	u2341
  4855  002476  EF3F  F012         	goto	u2340
  4856  00247A                     u2341:
  4857  00247A  EF41  F012         	goto	l1197
  4858  00247E                     u2340:
  4859  00247E  EF34  F012         	goto	l3336
  4860  002482                     l1197:
  4861  002482  5035               	movf	___fladd@aexp^0,w,c
  4862  002484  B4D8               	btfsc	status,2,c
  4863  002486  EF47  F012         	goto	u2351
  4864  00248A  EF49  F012         	goto	u2350
  4865  00248E                     u2351:
  4866  00248E  EF74  F012         	goto	l3348
  4867  002492                     u2350:
  4868  002492  0E01               	movlw	1
  4869  002494  2628               	addwf	___fladd@b^0,f,c
  4870  002496  0E00               	movlw	0
  4871  002498  2229               	addwfc	(___fladd@b+1)^0,f,c
  4872  00249A  222A               	addwfc	(___fladd@b+2)^0,f,c
  4873  00249C  222B               	addwfc	(___fladd@b+3)^0,f,c
  4874  00249E  A02B               	btfss	(___fladd@b+3)^0,0,c
  4875  0024A0  EF54  F012         	goto	u2361
  4876  0024A4  EF56  F012         	goto	u2360
  4877  0024A8                     u2361:
  4878  0024A8  EF74  F012         	goto	l3348
  4879  0024AC                     u2360:
  4880  0024AC  C028  F030         	movff	___fladd@b,??___fladd
  4881  0024B0  C029  F031         	movff	___fladd@b+1,??___fladd+1
  4882  0024B4  C02A  F032         	movff	___fladd@b+2,??___fladd+2
  4883  0024B8  C02B  F033         	movff	___fladd@b+3,??___fladd+3
  4884  0024BC  3433               	rlcf	(??___fladd+3)^0,w,c
  4885  0024BE  3233               	rrcf	(??___fladd+3)^0,f,c
  4886  0024C0  3232               	rrcf	(??___fladd+2)^0,f,c
  4887  0024C2  3231               	rrcf	(??___fladd+1)^0,f,c
  4888  0024C4  3230               	rrcf	??___fladd^0,f,c
  4889  0024C6  C030  F028         	movff	??___fladd,___fladd@b
  4890  0024CA  C031  F029         	movff	??___fladd+1,___fladd@b+1
  4891  0024CE  C032  F02A         	movff	??___fladd+2,___fladd@b+2
  4892  0024D2  C033  F02B         	movff	??___fladd+3,___fladd@b+3
  4893  0024D6  2836               	incf	___fladd@bexp^0,w,c
  4894  0024D8  B4D8               	btfsc	status,2,c
  4895  0024DA  EF71  F012         	goto	u2371
  4896  0024DE  EF73  F012         	goto	u2370
  4897  0024E2                     u2371:
  4898  0024E2  EF74  F012         	goto	l3348
  4899  0024E6                     u2370:
  4900  0024E6  2A36               	incf	___fladd@bexp^0,f,c
  4901  0024E8                     l3348:
  4902  0024E8  2836               	incf	___fladd@bexp^0,w,c
  4903  0024EA  B4D8               	btfsc	status,2,c
  4904  0024EC  EF7A  F012         	goto	u2381
  4905  0024F0  EF7C  F012         	goto	u2380
  4906  0024F4                     u2381:
  4907  0024F4  EF84  F012         	goto	l3352
  4908  0024F8                     u2380:
  4909  0024F8  5036               	movf	___fladd@bexp^0,w,c
  4910  0024FA  A4D8               	btfss	status,2,c
  4911  0024FC  EF82  F012         	goto	u2391
  4912  002500  EF84  F012         	goto	u2390
  4913  002504                     u2391:
  4914  002504  EF96  F012         	goto	l3356
  4915  002508                     u2390:
  4916  002508                     l3352:
  4917  002508  0E00               	movlw	0
  4918  00250A  6E28               	movwf	___fladd@b^0,c
  4919  00250C  0E00               	movlw	0
  4920  00250E  6E29               	movwf	(___fladd@b+1)^0,c
  4921  002510  0E00               	movlw	0
  4922  002512  6E2A               	movwf	(___fladd@b+2)^0,c
  4923  002514  0E00               	movlw	0
  4924  002516  6E2B               	movwf	(___fladd@b+3)^0,c
  4925  002518  5036               	movf	___fladd@bexp^0,w,c
  4926  00251A  A4D8               	btfss	status,2,c
  4927  00251C  EF92  F012         	goto	u2401
  4928  002520  EF94  F012         	goto	u2400
  4929  002524                     u2401:
  4930  002524  EF96  F012         	goto	l3356
  4931  002528                     u2400:
  4932  002528  0E00               	movlw	0
  4933  00252A  6E34               	movwf	___fladd@signs^0,c
  4934  00252C                     l3356:
  4935  00252C  A036               	btfss	___fladd@bexp^0,0,c
  4936  00252E  EF9B  F012         	goto	u2411
  4937  002532  EF9D  F012         	goto	u2410
  4938  002536                     u2411:
  4939  002536  EFA0  F012         	goto	l3360
  4940  00253A                     u2410:
  4941  00253A  8E2A               	bsf	(___fladd@b+2)^0,7,c
  4942  00253C  EFA1  F012         	goto	l3362
  4943  002540                     l3360:
  4944  002540  9E2A               	bcf	(___fladd@b+2)^0,7,c
  4945  002542                     l3362:
  4946  002542  90D8               	bcf	status,0,c
  4947  002544  3036               	rrcf	___fladd@bexp^0,w,c
  4948  002546  6E2B               	movwf	(___fladd@b+3)^0,c
  4949  002548  AE34               	btfss	___fladd@signs^0,7,c
  4950  00254A  EFA9  F012         	goto	u2421
  4951  00254E  EFAB  F012         	goto	u2420
  4952  002552                     u2421:
  4953  002552  EFAC  F012         	goto	l3368
  4954  002556                     u2420:
  4955  002556  8E2B               	bsf	(___fladd@b+3)^0,7,c
  4956  002558                     l3368:
  4957  002558  C028  F028         	movff	___fladd@b,?___fladd
  4958  00255C  C029  F029         	movff	___fladd@b+1,?___fladd+1
  4959  002560  C02A  F02A         	movff	___fladd@b+2,?___fladd+2
  4960  002564  C02B  F02B         	movff	___fladd@b+3,?___fladd+3
  4961  002568                     l1180:
  4962  002568  0012               	return		;funcret
  4963  00256A                     __end_of___fladd:
  4964                           	callstack 0
  4965                           
  4966 ;; *************** function _SYSTEM_Initialize *****************
  4967 ;; Defined at:
  4968 ;;		line 50 in file "mcc_generated_files/mcc.c"
  4969 ;; Parameters:    Size  Location     Type
  4970 ;;		None
  4971 ;; Auto vars:     Size  Location     Type
  4972 ;;		None
  4973 ;; Return value:  Size  Location     Type
  4974 ;;                  1    wreg      void 
  4975 ;; Registers used:
  4976 ;;		wreg, status,2, status,0, cstack
  4977 ;; Tracked objects:
  4978 ;;		On entry : 0/0
  4979 ;;		On exit  : 0/0
  4980 ;;		Unchanged: 0/0
  4981 ;; Data sizes:     COMRAM   BANK0   BANK1   BANK2   BANK3   BANK4   BANK5   BANK6   BANK7   BANK8   BANK9  BANK10  BANK1
      +1  BANK12  BANK13  BANK14  BANK15  BANK16  BANK17  BANK18  BANK19  BANK20  BANK21  BANK22  BANK23  BANK24  BANK25  BANK2
      +6  BANK27  BANK28  BANK29  BANK30  BANK31
  4982 ;;      Params:         0       0       0       0       0       0       0       0       0       0       0       0       
      +0       0       0       0       0       0       0       0       0       0       0       0       0       0       0       
      +0       0       0       0       0       0
  4983 ;;      Locals:         0       0       0       0       0       0       0       0       0       0       0       0       
      +0       0       0       0       0       0       0       0       0       0       0       0       0       0       0       
      +0       0       0       0       0       0
  4984 ;;      Temps:          0       0       0       0       0       0       0       0       0       0       0       0       
      +0       0       0       0       0       0       0       0       0       0       0       0       0       0       0       
      +0       0       0       0       0       0
  4985 ;;      Totals:         0       0       0       0       0       0       0       0       0       0       0       0       
      +0       0       0       0       0       0       0       0       0       0       0       0       0       0       0       
      +0       0       0       0       0       0
  4986 ;;Total ram usage:        0 bytes
  4987 ;; Hardware stack levels used: 1
  4988 ;; Hardware stack levels required when called: 6
  4989 ;; This function calls:
  4990 ;;		_EXT_INT_Initialize
  4991 ;;		_INTERRUPT_Initialize
  4992 ;;		_OSCILLATOR_Initialize
  4993 ;;		_PIN_MANAGER_Initialize
  4994 ;;		_PMD_Initialize
  4995 ;;		_SMT1_Initialize
  4996 ;;		_TMR2_Initialize
  4997 ;;		_TMR4_Initialize
  4998 ;;		_UART1_Initialize
  4999 ;; This function is called by:
  5000 ;;		_main
  5001 ;; This function uses a non-reentrant model
  5002 ;;
  5003                           
  5004                           	psect	text18
  5005  003D1C                     __ptext18:
  5006                           	callstack 0
  5007  003D1C                     _SYSTEM_Initialize:
  5008                           	callstack 24
  5009  003D1C                     
  5010                           ;mcc_generated_files/mcc.c: 52:     INTERRUPT_Initialize();
  5011  003D1C  EC2F  F01F         	call	_INTERRUPT_Initialize	;wreg free
  5012  003D20                     
  5013                           ;mcc_generated_files/mcc.c: 53:     PMD_Initialize();
  5014  003D20  ECA1  F01E         	call	_PMD_Initialize	;wreg free
  5015  003D24                     
  5016                           ;mcc_generated_files/mcc.c: 54:     PIN_MANAGER_Initialize();
  5017  003D24  EC84  F01C         	call	_PIN_MANAGER_Initialize	;wreg free
  5018  003D28                     
  5019                           ;mcc_generated_files/mcc.c: 55:     OSCILLATOR_Initialize();
  5020  003D28  ECEB  F01E         	call	_OSCILLATOR_Initialize	;wreg free
  5021  003D2C                     
  5022                           ;mcc_generated_files/mcc.c: 56:     TMR4_Initialize();
  5023  003D2C  ECC2  F01E         	call	_TMR4_Initialize	;wreg free
  5024  003D30                     
  5025                           ;mcc_generated_files/mcc.c: 57:     SMT1_Initialize();
  5026  003D30  EC49  F01E         	call	_SMT1_Initialize	;wreg free
  5027  003D34                     
  5028                           ;mcc_generated_files/mcc.c: 58:     TMR2_Initialize();
  5029  003D34  ECB3  F01E         	call	_TMR2_Initialize	;wreg free
  5030  003D38                     
  5031                           ;mcc_generated_files/mcc.c: 59:     EXT_INT_Initialize();
  5032  003D38  ECD0  F01E         	call	_EXT_INT_Initialize	;wreg free
  5033  003D3C                     
  5034                           ;mcc_generated_files/mcc.c: 60:     UART1_Initialize();
  5035  003D3C  EC22  F01D         	call	_UART1_Initialize	;wreg free
  5036  003D40  0012               	return		;funcret
  5037  003D42                     __end_of_SYSTEM_Initialize:
  5038                           	callstack 0
  5039                           
  5040 ;; *************** function _UART1_Initialize *****************
  5041 ;; Defined at:
  5042 ;;		line 66 in file "mcc_generated_files/uart1.c"
  5043 ;; Parameters:    Size  Location     Type
  5044 ;;		None
  5045 ;; Auto vars:     Size  Location     Type
  5046 ;;		None
  5047 ;; Return value:  Size  Location     Type
  5048 ;;                  1    wreg      void 
  5049 ;; Registers used:
  5050 ;;		wreg, status,2, status,0, cstack
  5051 ;; Tracked objects:
  5052 ;;		On entry : 0/0
  5053 ;;		On exit  : 0/0
  5054 ;;		Unchanged: 0/0
  5055 ;; Data sizes:     COMRAM   BANK0   BANK1   BANK2   BANK3   BANK4   BANK5   BANK6   BANK7   BANK8   BANK9  BANK10  BANK1
      +1  BANK12  BANK13  BANK14  BANK15  BANK16  BANK17  BANK18  BANK19  BANK20  BANK21  BANK22  BANK23  BANK24  BANK25  BANK2
      +6  BANK27  BANK28  BANK29  BANK30  BANK31
  5056 ;;      Params:         0       0       0       0       0       0       0       0       0       0       0       0       
      +0       0       0       0       0       0       0       0       0       0       0       0       0       0       0       
      +0       0       0       0       0       0
  5057 ;;      Locals:         0       0       0       0       0       0       0       0       0       0       0       0       
      +0       0       0       0       0       0       0       0       0       0       0       0       0       0       0       
      +0       0       0       0       0       0
  5058 ;;      Temps:          0       0       0       0       0       0       0       0       0       0       0       0       
      +0       0       0       0       0       0       0       0       0       0       0       0       0       0       0       
      +0       0       0       0       0       0
  5059 ;;      Totals:         0       0       0       0       0       0       0       0       0       0       0       0       
      +0       0       0       0       0       0       0       0       0       0       0       0       0       0       0       
      +0       0       0       0       0       0
  5060 ;;Total ram usage:        0 bytes
  5061 ;; Hardware stack levels used: 1
  5062 ;; Hardware stack levels required when called: 5
  5063 ;; This function calls:
  5064 ;;		_UART1_SetErrorHandler
  5065 ;;		_UART1_SetFramingErrorHandler
  5066 ;;		_UART1_SetOverrunErrorHandler
  5067 ;; This function is called by:
  5068 ;;		_SYSTEM_Initialize
  5069 ;; This function uses a non-reentrant model
  5070 ;;
  5071                           
  5072                           	psect	text19
  5073  003A44                     __ptext19:
  5074                           	callstack 0
  5075  003A44                     _UART1_Initialize:
  5076                           	callstack 24
  5077  003A44                     
  5078                           ;mcc_generated_files/uart1.c: 73:     U1P1L = 0x00;
  5079  003A44  0E00               	movlw	0
  5080  003A46  013D               	movlb	61	; () banked
  5081  003A48  6FEC               	movwf	236,b	;volatile
  5082                           
  5083                           ;mcc_generated_files/uart1.c: 76:     U1P1H = 0x00;
  5084  003A4A  0E00               	movlw	0
  5085  003A4C  6FED               	movwf	237,b	;volatile
  5086                           
  5087                           ;mcc_generated_files/uart1.c: 79:     U1P2L = 0x00;
  5088  003A4E  0E00               	movlw	0
  5089  003A50  6FEE               	movwf	238,b	;volatile
  5090                           
  5091                           ;mcc_generated_files/uart1.c: 82:     U1P2H = 0x00;
  5092  003A52  0E00               	movlw	0
  5093  003A54  6FEF               	movwf	239,b	;volatile
  5094                           
  5095                           ;mcc_generated_files/uart1.c: 85:     U1P3L = 0x00;
  5096  003A56  0E00               	movlw	0
  5097  003A58  6FF0               	movwf	240,b	;volatile
  5098                           
  5099                           ;mcc_generated_files/uart1.c: 88:     U1P3H = 0x00;
  5100  003A5A  0E00               	movlw	0
  5101  003A5C  6FF1               	movwf	241,b	;volatile
  5102                           
  5103                           ;mcc_generated_files/uart1.c: 91:     U1CON0 = 0xB0;
  5104  003A5E  0EB0               	movlw	176
  5105  003A60  6FF2               	movwf	242,b	;volatile
  5106                           
  5107                           ;mcc_generated_files/uart1.c: 94:     U1CON1 = 0x80;
  5108  003A62  0E80               	movlw	128
  5109  003A64  6FF3               	movwf	243,b	;volatile
  5110                           
  5111                           ;mcc_generated_files/uart1.c: 97:     U1CON2 = 0x00;
  5112  003A66  0E00               	movlw	0
  5113  003A68  6FF4               	movwf	244,b	;volatile
  5114                           
  5115                           ;mcc_generated_files/uart1.c: 100:     U1BRGL = 0x0C;
  5116  003A6A  0E0C               	movlw	12
  5117  003A6C  6FF5               	movwf	245,b	;volatile
  5118                           
  5119                           ;mcc_generated_files/uart1.c: 103:     U1BRGH = 0x00;
  5120  003A6E  0E00               	movlw	0
  5121  003A70  6FF6               	movwf	246,b	;volatile
  5122                           
  5123                           ;mcc_generated_files/uart1.c: 106:     U1FIFO = 0x00;
  5124  003A72  0E00               	movlw	0
  5125  003A74  6FF7               	movwf	247,b	;volatile
  5126                           
  5127                           ;mcc_generated_files/uart1.c: 109:     U1UIR = 0x00;
  5128  003A76  0E00               	movlw	0
  5129  003A78  6FF8               	movwf	248,b	;volatile
  5130                           
  5131                           ;mcc_generated_files/uart1.c: 112:     U1ERRIR = 0x00;
  5132  003A7A  0E00               	movlw	0
  5133  003A7C  6FF9               	movwf	249,b	;volatile
  5134                           
  5135                           ;mcc_generated_files/uart1.c: 115:     U1ERRIE = 0x00;
  5136  003A7E  0E00               	movlw	0
  5137  003A80  6FFA               	movwf	250,b	;volatile
  5138  003A82                     
  5139                           ; BSR set to: 61
  5140                           ;mcc_generated_files/uart1.c: 118:     UART1_SetFramingErrorHandler(UART1_DefaultFraming
      +                          ErrorHandler);
  5141  003A82  0E00               	movlw	0
  5142  003A84  6E01               	movwf	UART1_SetFramingErrorHandler@interruptHandler^0,c
  5143  003A86  0E00               	movlw	0
  5144  003A88  6E02               	movwf	(UART1_SetFramingErrorHandler@interruptHandler+1)^0,c
  5145  003A8A  0E00               	movlw	0
  5146  003A8C  6E03               	movwf	(UART1_SetFramingErrorHandler@interruptHandler+2)^0,c
  5147  003A8E  EC06  F01F         	call	_UART1_SetFramingErrorHandler	;wreg free
  5148  003A92                     
  5149                           ;mcc_generated_files/uart1.c: 119:     UART1_SetOverrunErrorHandler(UART1_DefaultOverrun
      +                          ErrorHandler);
  5150  003A92  0E00               	movlw	0
  5151  003A94  6E01               	movwf	UART1_SetOverrunErrorHandler@interruptHandler^0,c
  5152  003A96  0E00               	movlw	0
  5153  003A98  6E02               	movwf	(UART1_SetOverrunErrorHandler@interruptHandler+1)^0,c
  5154  003A9A  0E00               	movlw	0
  5155  003A9C  6E03               	movwf	(UART1_SetOverrunErrorHandler@interruptHandler+2)^0,c
  5156  003A9E  ECFF  F01E         	call	_UART1_SetOverrunErrorHandler	;wreg free
  5157  003AA2                     
  5158                           ;mcc_generated_files/uart1.c: 120:     UART1_SetErrorHandler(UART1_DefaultErrorHandler);
  5159  003AA2  0E00               	movlw	0
  5160  003AA4  6E01               	movwf	UART1_SetErrorHandler@interruptHandler^0,c
  5161  003AA6  0E00               	movlw	0
  5162  003AA8  6E02               	movwf	(UART1_SetErrorHandler@interruptHandler+1)^0,c
  5163  003AAA  0E00               	movlw	0
  5164  003AAC  6E03               	movwf	(UART1_SetErrorHandler@interruptHandler+2)^0,c
  5165  003AAE  EC0D  F01F         	call	_UART1_SetErrorHandler	;wreg free
  5166  003AB2                     
  5167                           ;mcc_generated_files/uart1.c: 122:     uart1RxLastError.status = 0;
  5168  003AB2  0E00               	movlw	0
  5169  003AB4  6E5F               	movwf	_uart1RxLastError^0,c	;volatile
  5170  003AB6  0012               	return		;funcret
  5171  003AB8                     __end_of_UART1_Initialize:
  5172                           	callstack 0
  5173                           
  5174 ;; *************** function _UART1_SetOverrunErrorHandler *****************
  5175 ;; Defined at:
  5176 ;;		line 204 in file "mcc_generated_files/uart1.c"
  5177 ;; Parameters:    Size  Location     Type
  5178 ;;  interruptHan    3    0[COMRAM] PTR FTN()void 
  5179 ;;		 -> UART1_DefaultOverrunErrorHandler(1), 
  5180 ;; Auto vars:     Size  Location     Type
  5181 ;;		None
  5182 ;; Return value:  Size  Location     Type
  5183 ;;                  1    wreg      void 
  5184 ;; Registers used:
  5185 ;;		wreg, status,2, status,0
  5186 ;; Tracked objects:
  5187 ;;		On entry : 0/0
  5188 ;;		On exit  : 0/0
  5189 ;;		Unchanged: 0/0
  5190 ;; Data sizes:     COMRAM   BANK0   BANK1   BANK2   BANK3   BANK4   BANK5   BANK6   BANK7   BANK8   BANK9  BANK10  BANK1
      +1  BANK12  BANK13  BANK14  BANK15  BANK16  BANK17  BANK18  BANK19  BANK20  BANK21  BANK22  BANK23  BANK24  BANK25  BANK2
      +6  BANK27  BANK28  BANK29  BANK30  BANK31
  5191 ;;      Params:         3       0       0       0       0       0       0       0       0       0       0       0       
      +0       0       0       0       0       0       0       0       0       0       0       0       0       0       0       
      +0       0       0       0       0       0
  5192 ;;      Locals:         0       0       0       0       0       0       0       0       0       0       0       0       
      +0       0       0       0       0       0       0       0       0       0       0       0       0       0       0       
      +0       0       0       0       0       0
  5193 ;;      Temps:          0       0       0       0       0       0       0       0       0       0       0       0       
      +0       0       0       0       0       0       0       0       0       0       0       0       0       0       0       
      +0       0       0       0       0       0
  5194 ;;      Totals:         3       0       0       0       0       0       0       0       0       0       0       0       
      +0       0       0       0       0       0       0       0       0       0       0       0       0       0       0       
      +0       0       0       0       0       0
  5195 ;;Total ram usage:        3 bytes
  5196 ;; Hardware stack levels used: 1
  5197 ;; Hardware stack levels required when called: 4
  5198 ;; This function calls:
  5199 ;;		Nothing
  5200 ;; This function is called by:
  5201 ;;		_UART1_Initialize
  5202 ;; This function uses a non-reentrant model
  5203 ;;
  5204                           
  5205                           	psect	text20
  5206  003DFE                     __ptext20:
  5207                           	callstack 0
  5208  003DFE                     _UART1_SetOverrunErrorHandler:
  5209                           	callstack 24
  5210  003DFE                     
  5211                           ;mcc_generated_files/uart1.c: 205:     UART1_OverrunErrorHandler = interruptHandler;
  5212  003DFE  C001  F0B2         	movff	UART1_SetOverrunErrorHandler@interruptHandler,_UART1_OverrunErrorHandler
  5213  003E02  C002  F0B3         	movff	UART1_SetOverrunErrorHandler@interruptHandler+1,_UART1_OverrunErrorHandler+1
  5214  003E06  C003  F0B4         	movff	UART1_SetOverrunErrorHandler@interruptHandler+2,_UART1_OverrunErrorHandler+2
  5215  003E0A  0012               	return		;funcret
  5216  003E0C                     __end_of_UART1_SetOverrunErrorHandler:
  5217                           	callstack 0
  5218                           
  5219 ;; *************** function _UART1_SetFramingErrorHandler *****************
  5220 ;; Defined at:
  5221 ;;		line 200 in file "mcc_generated_files/uart1.c"
  5222 ;; Parameters:    Size  Location     Type
  5223 ;;  interruptHan    3    0[COMRAM] PTR FTN()void 
  5224 ;;		 -> UART1_DefaultFramingErrorHandler(1), 
  5225 ;; Auto vars:     Size  Location     Type
  5226 ;;		None
  5227 ;; Return value:  Size  Location     Type
  5228 ;;                  1    wreg      void 
  5229 ;; Registers used:
  5230 ;;		wreg, status,2, status,0
  5231 ;; Tracked objects:
  5232 ;;		On entry : 0/0
  5233 ;;		On exit  : 0/0
  5234 ;;		Unchanged: 0/0
  5235 ;; Data sizes:     COMRAM   BANK0   BANK1   BANK2   BANK3   BANK4   BANK5   BANK6   BANK7   BANK8   BANK9  BANK10  BANK1
      +1  BANK12  BANK13  BANK14  BANK15  BANK16  BANK17  BANK18  BANK19  BANK20  BANK21  BANK22  BANK23  BANK24  BANK25  BANK2
      +6  BANK27  BANK28  BANK29  BANK30  BANK31
  5236 ;;      Params:         3       0       0       0       0       0       0       0       0       0       0       0       
      +0       0       0       0       0       0       0       0       0       0       0       0       0       0       0       
      +0       0       0       0       0       0
  5237 ;;      Locals:         0       0       0       0       0       0       0       0       0       0       0       0       
      +0       0       0       0       0       0       0       0       0       0       0       0       0       0       0       
      +0       0       0       0       0       0
  5238 ;;      Temps:          0       0       0       0       0       0       0       0       0       0       0       0       
      +0       0       0       0       0       0       0       0       0       0       0       0       0       0       0       
      +0       0       0       0       0       0
  5239 ;;      Totals:         3       0       0       0       0       0       0       0       0       0       0       0       
      +0       0       0       0       0       0       0       0       0       0       0       0       0       0       0       
      +0       0       0       0       0       0
  5240 ;;Total ram usage:        3 bytes
  5241 ;; Hardware stack levels used: 1
  5242 ;; Hardware stack levels required when called: 4
  5243 ;; This function calls:
  5244 ;;		Nothing
  5245 ;; This function is called by:
  5246 ;;		_UART1_Initialize
  5247 ;; This function uses a non-reentrant model
  5248 ;;
  5249                           
  5250                           	psect	text21
  5251  003E0C                     __ptext21:
  5252                           	callstack 0
  5253  003E0C                     _UART1_SetFramingErrorHandler:
  5254                           	callstack 24
  5255  003E0C                     
  5256                           ;mcc_generated_files/uart1.c: 201:     UART1_FramingErrorHandler = interruptHandler;
  5257  003E0C  C001  F0B5         	movff	UART1_SetFramingErrorHandler@interruptHandler,_UART1_FramingErrorHandler
  5258  003E10  C002  F0B6         	movff	UART1_SetFramingErrorHandler@interruptHandler+1,_UART1_FramingErrorHandler+1
  5259  003E14  C003  F0B7         	movff	UART1_SetFramingErrorHandler@interruptHandler+2,_UART1_FramingErrorHandler+2
  5260  003E18  0012               	return		;funcret
  5261  003E1A                     __end_of_UART1_SetFramingErrorHandler:
  5262                           	callstack 0
  5263                           
  5264 ;; *************** function _UART1_SetErrorHandler *****************
  5265 ;; Defined at:
  5266 ;;		line 208 in file "mcc_generated_files/uart1.c"
  5267 ;; Parameters:    Size  Location     Type
  5268 ;;  interruptHan    3    0[COMRAM] PTR FTN()void 
  5269 ;;		 -> UART1_DefaultErrorHandler(1), 
  5270 ;; Auto vars:     Size  Location     Type
  5271 ;;		None
  5272 ;; Return value:  Size  Location     Type
  5273 ;;                  1    wreg      void 
  5274 ;; Registers used:
  5275 ;;		wreg, status,2, status,0
  5276 ;; Tracked objects:
  5277 ;;		On entry : 0/0
  5278 ;;		On exit  : 0/0
  5279 ;;		Unchanged: 0/0
  5280 ;; Data sizes:     COMRAM   BANK0   BANK1   BANK2   BANK3   BANK4   BANK5   BANK6   BANK7   BANK8   BANK9  BANK10  BANK1
      +1  BANK12  BANK13  BANK14  BANK15  BANK16  BANK17  BANK18  BANK19  BANK20  BANK21  BANK22  BANK23  BANK24  BANK25  BANK2
      +6  BANK27  BANK28  BANK29  BANK30  BANK31
  5281 ;;      Params:         3       0       0       0       0       0       0       0       0       0       0       0       
      +0       0       0       0       0       0       0       0       0       0       0       0       0       0       0       
      +0       0       0       0       0       0
  5282 ;;      Locals:         0       0       0       0       0       0       0       0       0       0       0       0       
      +0       0       0       0       0       0       0       0       0       0       0       0       0       0       0       
      +0       0       0       0       0       0
  5283 ;;      Temps:          0       0       0       0       0       0       0       0       0       0       0       0       
      +0       0       0       0       0       0       0       0       0       0       0       0       0       0       0       
      +0       0       0       0       0       0
  5284 ;;      Totals:         3       0       0       0       0       0       0       0       0       0       0       0       
      +0       0       0       0       0       0       0       0       0       0       0       0       0       0       0       
      +0       0       0       0       0       0
  5285 ;;Total ram usage:        3 bytes
  5286 ;; Hardware stack levels used: 1
  5287 ;; Hardware stack levels required when called: 4
  5288 ;; This function calls:
  5289 ;;		Nothing
  5290 ;; This function is called by:
  5291 ;;		_UART1_Initialize
  5292 ;; This function uses a non-reentrant model
  5293 ;;
  5294                           
  5295                           	psect	text22
  5296  003E1A                     __ptext22:
  5297                           	callstack 0
  5298  003E1A                     _UART1_SetErrorHandler:
  5299                           	callstack 24
  5300  003E1A                     
  5301                           ;mcc_generated_files/uart1.c: 209:     UART1_ErrorHandler = interruptHandler;
  5302  003E1A  C001  F0AF         	movff	UART1_SetErrorHandler@interruptHandler,_UART1_ErrorHandler
  5303  003E1E  C002  F0B0         	movff	UART1_SetErrorHandler@interruptHandler+1,_UART1_ErrorHandler+1
  5304  003E22  C003  F0B1         	movff	UART1_SetErrorHandler@interruptHandler+2,_UART1_ErrorHandler+2
  5305  003E26  0012               	return		;funcret
  5306  003E28                     __end_of_UART1_SetErrorHandler:
  5307                           	callstack 0
  5308                           
  5309 ;; *************** function _TMR4_Initialize *****************
  5310 ;; Defined at:
  5311 ;;		line 62 in file "mcc_generated_files/tmr4.c"
  5312 ;; Parameters:    Size  Location     Type
  5313 ;;		None
  5314 ;; Auto vars:     Size  Location     Type
  5315 ;;		None
  5316 ;; Return value:  Size  Location     Type
  5317 ;;                  1    wreg      void 
  5318 ;; Registers used:
  5319 ;;		wreg, status,2
  5320 ;; Tracked objects:
  5321 ;;		On entry : 0/0
  5322 ;;		On exit  : 0/0
  5323 ;;		Unchanged: 0/0
  5324 ;; Data sizes:     COMRAM   BANK0   BANK1   BANK2   BANK3   BANK4   BANK5   BANK6   BANK7   BANK8   BANK9  BANK10  BANK1
      +1  BANK12  BANK13  BANK14  BANK15  BANK16  BANK17  BANK18  BANK19  BANK20  BANK21  BANK22  BANK23  BANK24  BANK25  BANK2
      +6  BANK27  BANK28  BANK29  BANK30  BANK31
  5325 ;;      Params:         0       0       0       0       0       0       0       0       0       0       0       0       
      +0       0       0       0       0       0       0       0       0       0       0       0       0       0       0       
      +0       0       0       0       0       0
  5326 ;;      Locals:         0       0       0       0       0       0       0       0       0       0       0       0       
      +0       0       0       0       0       0       0       0       0       0       0       0       0       0       0       
      +0       0       0       0       0       0
  5327 ;;      Temps:          0       0       0       0       0       0       0       0       0       0       0       0       
      +0       0       0       0       0       0       0       0       0       0       0       0       0       0       0       
      +0       0       0       0       0       0
  5328 ;;      Totals:         0       0       0       0       0       0       0       0       0       0       0       0       
      +0       0       0       0       0       0       0       0       0       0       0       0       0       0       0       
      +0       0       0       0       0       0
  5329 ;;Total ram usage:        0 bytes
  5330 ;; Hardware stack levels used: 1
  5331 ;; Hardware stack levels required when called: 4
  5332 ;; This function calls:
  5333 ;;		Nothing
  5334 ;; This function is called by:
  5335 ;;		_SYSTEM_Initialize
  5336 ;; This function uses a non-reentrant model
  5337 ;;
  5338                           
  5339                           	psect	text23
  5340  003D84                     __ptext23:
  5341                           	callstack 0
  5342  003D84                     _TMR4_Initialize:
  5343                           	callstack 25
  5344  003D84                     
  5345                           ;mcc_generated_files/tmr4.c: 67:     T4CLKCON = 0x01;
  5346  003D84  0E01               	movlw	1
  5347  003D86  6EA2               	movwf	162,c	;volatile
  5348                           
  5349                           ;mcc_generated_files/tmr4.c: 70:     T4HLT = 0x00;
  5350  003D88  0E00               	movlw	0
  5351  003D8A  6EA1               	movwf	161,c	;volatile
  5352                           
  5353                           ;mcc_generated_files/tmr4.c: 73:     T4RST = 0x00;
  5354  003D8C  0E00               	movlw	0
  5355  003D8E  6EA3               	movwf	163,c	;volatile
  5356  003D90                     
  5357                           ;mcc_generated_files/tmr4.c: 76:     T4PR = 0xFF;
  5358  003D90  689F               	setf	159,c	;volatile
  5359                           
  5360                           ;mcc_generated_files/tmr4.c: 79:     T4TMR = 0x00;
  5361  003D92  0E00               	movlw	0
  5362  003D94  6E9E               	movwf	158,c	;volatile
  5363  003D96                     
  5364                           ;mcc_generated_files/tmr4.c: 82:     PIR7bits.TMR4IF = 0;
  5365  003D96  0139               	movlb	57	; () banked
  5366  003D98  91A7               	bcf	167,0,b	;volatile
  5367                           
  5368                           ;mcc_generated_files/tmr4.c: 85:     T4CON = 0xB0;
  5369  003D9A  0EB0               	movlw	176
  5370  003D9C  6EA0               	movwf	160,c	;volatile
  5371  003D9E                     
  5372                           ; BSR set to: 57
  5373  003D9E  0012               	return		;funcret
  5374  003DA0                     __end_of_TMR4_Initialize:
  5375                           	callstack 0
  5376                           
  5377 ;; *************** function _TMR2_Initialize *****************
  5378 ;; Defined at:
  5379 ;;		line 62 in file "mcc_generated_files/tmr2.c"
  5380 ;; Parameters:    Size  Location     Type
  5381 ;;		None
  5382 ;; Auto vars:     Size  Location     Type
  5383 ;;		None
  5384 ;; Return value:  Size  Location     Type
  5385 ;;                  1    wreg      void 
  5386 ;; Registers used:
  5387 ;;		wreg, status,2
  5388 ;; Tracked objects:
  5389 ;;		On entry : 0/0
  5390 ;;		On exit  : 0/0
  5391 ;;		Unchanged: 0/0
  5392 ;; Data sizes:     COMRAM   BANK0   BANK1   BANK2   BANK3   BANK4   BANK5   BANK6   BANK7   BANK8   BANK9  BANK10  BANK1
      +1  BANK12  BANK13  BANK14  BANK15  BANK16  BANK17  BANK18  BANK19  BANK20  BANK21  BANK22  BANK23  BANK24  BANK25  BANK2
      +6  BANK27  BANK28  BANK29  BANK30  BANK31
  5393 ;;      Params:         0       0       0       0       0       0       0       0       0       0       0       0       
      +0       0       0       0       0       0       0       0       0       0       0       0       0       0       0       
      +0       0       0       0       0       0
  5394 ;;      Locals:         0       0       0       0       0       0       0       0       0       0       0       0       
      +0       0       0       0       0       0       0       0       0       0       0       0       0       0       0       
      +0       0       0       0       0       0
  5395 ;;      Temps:          0       0       0       0       0       0       0       0       0       0       0       0       
      +0       0       0       0       0       0       0       0       0       0       0       0       0       0       0       
      +0       0       0       0       0       0
  5396 ;;      Totals:         0       0       0       0       0       0       0       0       0       0       0       0       
      +0       0       0       0       0       0       0       0       0       0       0       0       0       0       0       
      +0       0       0       0       0       0
  5397 ;;Total ram usage:        0 bytes
  5398 ;; Hardware stack levels used: 1
  5399 ;; Hardware stack levels required when called: 4
  5400 ;; This function calls:
  5401 ;;		Nothing
  5402 ;; This function is called by:
  5403 ;;		_SYSTEM_Initialize
  5404 ;; This function uses a non-reentrant model
  5405 ;;
  5406                           
  5407                           	psect	text24
  5408  003D66                     __ptext24:
  5409                           	callstack 0
  5410  003D66                     _TMR2_Initialize:
  5411                           	callstack 25
  5412  003D66                     
  5413                           ;mcc_generated_files/tmr2.c: 67:     T2CLKCON = 0x01;
  5414  003D66  0E01               	movlw	1
  5415  003D68  6EAE               	movwf	174,c	;volatile
  5416                           
  5417                           ;mcc_generated_files/tmr2.c: 70:     T2HLT = 0x00;
  5418  003D6A  0E00               	movlw	0
  5419  003D6C  6EAD               	movwf	173,c	;volatile
  5420                           
  5421                           ;mcc_generated_files/tmr2.c: 73:     T2RST = 0x00;
  5422  003D6E  0E00               	movlw	0
  5423  003D70  6EAF               	movwf	175,c	;volatile
  5424                           
  5425                           ;mcc_generated_files/tmr2.c: 76:     T2PR = 0x00;
  5426  003D72  0E00               	movlw	0
  5427  003D74  6EAB               	movwf	171,c	;volatile
  5428                           
  5429                           ;mcc_generated_files/tmr2.c: 79:     T2TMR = 0x00;
  5430  003D76  0E00               	movlw	0
  5431  003D78  6EAA               	movwf	170,c	;volatile
  5432  003D7A                     
  5433                           ;mcc_generated_files/tmr2.c: 82:     PIR4bits.TMR2IF = 0;
  5434  003D7A  0139               	movlb	57	; () banked
  5435  003D7C  95A4               	bcf	164,2,b	;volatile
  5436                           
  5437                           ;mcc_generated_files/tmr2.c: 85:     T2CON = 0xF3;
  5438  003D7E  0EF3               	movlw	243
  5439  003D80  6EAC               	movwf	172,c	;volatile
  5440  003D82                     
  5441                           ; BSR set to: 57
  5442  003D82  0012               	return		;funcret
  5443  003D84                     __end_of_TMR2_Initialize:
  5444                           	callstack 0
  5445                           
  5446 ;; *************** function _SMT1_Initialize *****************
  5447 ;; Defined at:
  5448 ;;		line 59 in file "mcc_generated_files/smt1.c"
  5449 ;; Parameters:    Size  Location     Type
  5450 ;;		None
  5451 ;; Auto vars:     Size  Location     Type
  5452 ;;		None
  5453 ;; Return value:  Size  Location     Type
  5454 ;;                  1    wreg      void 
  5455 ;; Registers used:
  5456 ;;		wreg, status,2
  5457 ;; Tracked objects:
  5458 ;;		On entry : 0/0
  5459 ;;		On exit  : 0/0
  5460 ;;		Unchanged: 0/0
  5461 ;; Data sizes:     COMRAM   BANK0   BANK1   BANK2   BANK3   BANK4   BANK5   BANK6   BANK7   BANK8   BANK9  BANK10  BANK1
      +1  BANK12  BANK13  BANK14  BANK15  BANK16  BANK17  BANK18  BANK19  BANK20  BANK21  BANK22  BANK23  BANK24  BANK25  BANK2
      +6  BANK27  BANK28  BANK29  BANK30  BANK31
  5462 ;;      Params:         0       0       0       0       0       0       0       0       0       0       0       0       
      +0       0       0       0       0       0       0       0       0       0       0       0       0       0       0       
      +0       0       0       0       0       0
  5463 ;;      Locals:         0       0       0       0       0       0       0       0       0       0       0       0       
      +0       0       0       0       0       0       0       0       0       0       0       0       0       0       0       
      +0       0       0       0       0       0
  5464 ;;      Temps:          0       0       0       0       0       0       0       0       0       0       0       0       
      +0       0       0       0       0       0       0       0       0       0       0       0       0       0       0       
      +0       0       0       0       0       0
  5465 ;;      Totals:         0       0       0       0       0       0       0       0       0       0       0       0       
      +0       0       0       0       0       0       0       0       0       0       0       0       0       0       0       
      +0       0       0       0       0       0
  5466 ;;Total ram usage:        0 bytes
  5467 ;; Hardware stack levels used: 1
  5468 ;; Hardware stack levels required when called: 4
  5469 ;; This function calls:
  5470 ;;		Nothing
  5471 ;; This function is called by:
  5472 ;;		_SYSTEM_Initialize
  5473 ;; This function uses a non-reentrant model
  5474 ;;
  5475                           
  5476                           	psect	text25
  5477  003C92                     __ptext25:
  5478                           	callstack 0
  5479  003C92                     _SMT1_Initialize:
  5480                           	callstack 25
  5481  003C92                     
  5482                           ;mcc_generated_files/smt1.c: 62:     SMT1CON0 = 0x80;
  5483  003C92  0E80               	movlw	128
  5484  003C94  013F               	movlb	63	; () banked
  5485  003C96  6F1E               	movwf	30,b	;volatile
  5486                           
  5487                           ;mcc_generated_files/smt1.c: 65:     SMT1CON1 = 0x42;
  5488  003C98  0E42               	movlw	66
  5489  003C9A  6F1F               	movwf	31,b	;volatile
  5490                           
  5491                           ;mcc_generated_files/smt1.c: 68:     SMT1STAT = 0x00;
  5492  003C9C  0E00               	movlw	0
  5493  003C9E  6F20               	movwf	32,b	;volatile
  5494                           
  5495                           ;mcc_generated_files/smt1.c: 71:     SMT1CLK = 0x00;
  5496  003CA0  0E00               	movlw	0
  5497  003CA2  6F21               	movwf	33,b	;volatile
  5498                           
  5499                           ;mcc_generated_files/smt1.c: 74:     SMT1WIN = 0x00;
  5500  003CA4  0E00               	movlw	0
  5501  003CA6  6F23               	movwf	35,b	;volatile
  5502                           
  5503                           ;mcc_generated_files/smt1.c: 77:     SMT1SIG = 0x00;
  5504  003CA8  0E00               	movlw	0
  5505  003CAA  6F22               	movwf	34,b	;volatile
  5506                           
  5507                           ;mcc_generated_files/smt1.c: 80:     SMT1PRU = 0x00;
  5508  003CAC  0E00               	movlw	0
  5509  003CAE  6F1D               	movwf	29,b	;volatile
  5510                           
  5511                           ;mcc_generated_files/smt1.c: 83:     SMT1PRH = 0x00;
  5512  003CB0  0E00               	movlw	0
  5513  003CB2  6F1C               	movwf	28,b	;volatile
  5514                           
  5515                           ;mcc_generated_files/smt1.c: 86:     SMT1PRL = 0x00;
  5516  003CB4  0E00               	movlw	0
  5517  003CB6  6F1B               	movwf	27,b	;volatile
  5518  003CB8                     
  5519                           ; BSR set to: 63
  5520                           ;mcc_generated_files/smt1.c: 89:     PIE1bits.SMT1PWAIE = 1;
  5521  003CB8  0139               	movlb	57	; () banked
  5522  003CBA  8F91               	bsf	145,7,b	;volatile
  5523  003CBC                     
  5524                           ; BSR set to: 57
  5525                           ;mcc_generated_files/smt1.c: 92:     PIE1bits.SMT1PRAIE = 1;
  5526  003CBC  8D91               	bsf	145,6,b	;volatile
  5527  003CBE                     
  5528                           ; BSR set to: 57
  5529                           ;mcc_generated_files/smt1.c: 95:     SMT1CON1bits.SMT1GO = 1;
  5530  003CBE  013F               	movlb	63	; () banked
  5531  003CC0  8F1F               	bsf	31,7,b	;volatile
  5532  003CC2                     
  5533                           ; BSR set to: 63
  5534  003CC2  0012               	return		;funcret
  5535  003CC4                     __end_of_SMT1_Initialize:
  5536                           	callstack 0
  5537                           
  5538 ;; *************** function _PMD_Initialize *****************
  5539 ;; Defined at:
  5540 ;;		line 77 in file "mcc_generated_files/mcc.c"
  5541 ;; Parameters:    Size  Location     Type
  5542 ;;		None
  5543 ;; Auto vars:     Size  Location     Type
  5544 ;;		None
  5545 ;; Return value:  Size  Location     Type
  5546 ;;                  1    wreg      void 
  5547 ;; Registers used:
  5548 ;;		wreg, status,2
  5549 ;; Tracked objects:
  5550 ;;		On entry : 0/0
  5551 ;;		On exit  : 0/0
  5552 ;;		Unchanged: 0/0
  5553 ;; Data sizes:     COMRAM   BANK0   BANK1   BANK2   BANK3   BANK4   BANK5   BANK6   BANK7   BANK8   BANK9  BANK10  BANK1
      +1  BANK12  BANK13  BANK14  BANK15  BANK16  BANK17  BANK18  BANK19  BANK20  BANK21  BANK22  BANK23  BANK24  BANK25  BANK2
      +6  BANK27  BANK28  BANK29  BANK30  BANK31
  5554 ;;      Params:         0       0       0       0       0       0       0       0       0       0       0       0       
      +0       0       0       0       0       0       0       0       0       0       0       0       0       0       0       
      +0       0       0       0       0       0
  5555 ;;      Locals:         0       0       0       0       0       0       0       0       0       0       0       0       
      +0       0       0       0       0       0       0       0       0       0       0       0       0       0       0       
      +0       0       0       0       0       0
  5556 ;;      Temps:          0       0       0       0       0       0       0       0       0       0       0       0       
      +0       0       0       0       0       0       0       0       0       0       0       0       0       0       0       
      +0       0       0       0       0       0
  5557 ;;      Totals:         0       0       0       0       0       0       0       0       0       0       0       0       
      +0       0       0       0       0       0       0       0       0       0       0       0       0       0       0       
      +0       0       0       0       0       0
  5558 ;;Total ram usage:        0 bytes
  5559 ;; Hardware stack levels used: 1
  5560 ;; Hardware stack levels required when called: 4
  5561 ;; This function calls:
  5562 ;;		Nothing
  5563 ;; This function is called by:
  5564 ;;		_SYSTEM_Initialize
  5565 ;; This function uses a non-reentrant model
  5566 ;;
  5567                           
  5568                           	psect	text26
  5569  003D42                     __ptext26:
  5570                           	callstack 0
  5571  003D42                     _PMD_Initialize:
  5572                           	callstack 25
  5573  003D42                     
  5574                           ;mcc_generated_files/mcc.c: 80:     PMD0 = 0x00;
  5575  003D42  0E00               	movlw	0
  5576  003D44  0139               	movlb	57	; () banked
  5577  003D46  6FC0               	movwf	192,b	;volatile
  5578                           
  5579                           ;mcc_generated_files/mcc.c: 82:     PMD1 = 0x00;
  5580  003D48  0E00               	movlw	0
  5581  003D4A  6FC1               	movwf	193,b	;volatile
  5582                           
  5583                           ;mcc_generated_files/mcc.c: 84:     PMD2 = 0x00;
  5584  003D4C  0E00               	movlw	0
  5585  003D4E  6FC2               	movwf	194,b	;volatile
  5586                           
  5587                           ;mcc_generated_files/mcc.c: 86:     PMD3 = 0x00;
  5588  003D50  0E00               	movlw	0
  5589  003D52  6FC3               	movwf	195,b	;volatile
  5590                           
  5591                           ;mcc_generated_files/mcc.c: 88:     PMD4 = 0x00;
  5592  003D54  0E00               	movlw	0
  5593  003D56  6FC4               	movwf	196,b	;volatile
  5594                           
  5595                           ;mcc_generated_files/mcc.c: 90:     PMD5 = 0x00;
  5596  003D58  0E00               	movlw	0
  5597  003D5A  6FC5               	movwf	197,b	;volatile
  5598                           
  5599                           ;mcc_generated_files/mcc.c: 92:     PMD6 = 0x00;
  5600  003D5C  0E00               	movlw	0
  5601  003D5E  6FC6               	movwf	198,b	;volatile
  5602                           
  5603                           ;mcc_generated_files/mcc.c: 94:     PMD7 = 0x00;
  5604  003D60  0E00               	movlw	0
  5605  003D62  6FC7               	movwf	199,b	;volatile
  5606  003D64                     
  5607                           ; BSR set to: 57
  5608  003D64  0012               	return		;funcret
  5609  003D66                     __end_of_PMD_Initialize:
  5610                           	callstack 0
  5611                           
  5612 ;; *************** function _PIN_MANAGER_Initialize *****************
  5613 ;; Defined at:
  5614 ;;		line 55 in file "mcc_generated_files/pin_manager.c"
  5615 ;; Parameters:    Size  Location     Type
  5616 ;;		None
  5617 ;; Auto vars:     Size  Location     Type
  5618 ;;		None
  5619 ;; Return value:  Size  Location     Type
  5620 ;;                  1    wreg      void 
  5621 ;; Registers used:
  5622 ;;		wreg, status,2
  5623 ;; Tracked objects:
  5624 ;;		On entry : 0/0
  5625 ;;		On exit  : 0/0
  5626 ;;		Unchanged: 0/0
  5627 ;; Data sizes:     COMRAM   BANK0   BANK1   BANK2   BANK3   BANK4   BANK5   BANK6   BANK7   BANK8   BANK9  BANK10  BANK1
      +1  BANK12  BANK13  BANK14  BANK15  BANK16  BANK17  BANK18  BANK19  BANK20  BANK21  BANK22  BANK23  BANK24  BANK25  BANK2
      +6  BANK27  BANK28  BANK29  BANK30  BANK31
  5628 ;;      Params:         0       0       0       0       0       0       0       0       0       0       0       0       
      +0       0       0       0       0       0       0       0       0       0       0       0       0       0       0       
      +0       0       0       0       0       0
  5629 ;;      Locals:         0       0       0       0       0       0       0       0       0       0       0       0       
      +0       0       0       0       0       0       0       0       0       0       0       0       0       0       0       
      +0       0       0       0       0       0
  5630 ;;      Temps:          0       0       0       0       0       0       0       0       0       0       0       0       
      +0       0       0       0       0       0       0       0       0       0       0       0       0       0       0       
      +0       0       0       0       0       0
  5631 ;;      Totals:         0       0       0       0       0       0       0       0       0       0       0       0       
      +0       0       0       0       0       0       0       0       0       0       0       0       0       0       0       
      +0       0       0       0       0       0
  5632 ;;Total ram usage:        0 bytes
  5633 ;; Hardware stack levels used: 1
  5634 ;; Hardware stack levels required when called: 4
  5635 ;; This function calls:
  5636 ;;		Nothing
  5637 ;; This function is called by:
  5638 ;;		_SYSTEM_Initialize
  5639 ;; This function uses a non-reentrant model
  5640 ;;
  5641                           
  5642                           	psect	text27
  5643  003908                     __ptext27:
  5644                           	callstack 0
  5645  003908                     _PIN_MANAGER_Initialize:
  5646                           	callstack 25
  5647  003908                     
  5648                           ;mcc_generated_files/pin_manager.c: 60:     LATE = 0x04;
  5649  003908  0E04               	movlw	4
  5650  00390A  6EBE               	movwf	190,c	;volatile
  5651                           
  5652                           ;mcc_generated_files/pin_manager.c: 61:     LATD = 0x00;
  5653  00390C  0E00               	movlw	0
  5654  00390E  6EBD               	movwf	189,c	;volatile
  5655                           
  5656                           ;mcc_generated_files/pin_manager.c: 62:     LATA = 0x07;
  5657  003910  0E07               	movlw	7
  5658  003912  6EBA               	movwf	186,c	;volatile
  5659                           
  5660                           ;mcc_generated_files/pin_manager.c: 63:     LATB = 0x00;
  5661  003914  0E00               	movlw	0
  5662  003916  6EBB               	movwf	187,c	;volatile
  5663                           
  5664                           ;mcc_generated_files/pin_manager.c: 64:     LATC = 0x00;
  5665  003918  0E00               	movlw	0
  5666  00391A  6EBC               	movwf	188,c	;volatile
  5667                           
  5668                           ;mcc_generated_files/pin_manager.c: 69:     TRISE = 0x03;
  5669  00391C  0E03               	movlw	3
  5670  00391E  6EC6               	movwf	198,c	;volatile
  5671                           
  5672                           ;mcc_generated_files/pin_manager.c: 70:     TRISA = 0xF8;
  5673  003920  0EF8               	movlw	248
  5674  003922  6EC2               	movwf	194,c	;volatile
  5675                           
  5676                           ;mcc_generated_files/pin_manager.c: 71:     TRISB = 0xFB;
  5677  003924  0EFB               	movlw	251
  5678  003926  6EC3               	movwf	195,c	;volatile
  5679  003928                     
  5680                           ;mcc_generated_files/pin_manager.c: 72:     TRISC = 0xFF;
  5681  003928  68C4               	setf	196,c	;volatile
  5682  00392A                     
  5683                           ;mcc_generated_files/pin_manager.c: 73:     TRISD = 0xFF;
  5684  00392A  68C5               	setf	197,c	;volatile
  5685  00392C                     
  5686                           ;mcc_generated_files/pin_manager.c: 78:     ANSELD = 0xFF;
  5687  00392C  013A               	movlb	58	; () banked
  5688  00392E  6970               	setf	112,b	;volatile
  5689                           
  5690                           ;mcc_generated_files/pin_manager.c: 79:     ANSELC = 0xFC;
  5691  003930  0EFC               	movlw	252
  5692  003932  6F60               	movwf	96,b	;volatile
  5693                           
  5694                           ;mcc_generated_files/pin_manager.c: 80:     ANSELB = 0xF2;
  5695  003934  0EF2               	movlw	242
  5696  003936  6F50               	movwf	80,b	;volatile
  5697                           
  5698                           ;mcc_generated_files/pin_manager.c: 81:     ANSELE = 0x03;
  5699  003938  0E03               	movlw	3
  5700  00393A  6F80               	movwf	128,b	;volatile
  5701                           
  5702                           ;mcc_generated_files/pin_manager.c: 82:     ANSELA = 0xF8;
  5703  00393C  0EF8               	movlw	248
  5704  00393E  6F40               	movwf	64,b	;volatile
  5705                           
  5706                           ;mcc_generated_files/pin_manager.c: 87:     WPUD = 0x00;
  5707  003940  0E00               	movlw	0
  5708  003942  6F71               	movwf	113,b	;volatile
  5709                           
  5710                           ;mcc_generated_files/pin_manager.c: 88:     WPUE = 0x00;
  5711  003944  0E00               	movlw	0
  5712  003946  6F81               	movwf	129,b	;volatile
  5713                           
  5714                           ;mcc_generated_files/pin_manager.c: 89:     WPUB = 0x00;
  5715  003948  0E00               	movlw	0
  5716  00394A  6F51               	movwf	81,b	;volatile
  5717                           
  5718                           ;mcc_generated_files/pin_manager.c: 90:     WPUA = 0x00;
  5719  00394C  0E00               	movlw	0
  5720  00394E  6F41               	movwf	65,b	;volatile
  5721                           
  5722                           ;mcc_generated_files/pin_manager.c: 91:     WPUC = 0x00;
  5723  003950  0E00               	movlw	0
  5724  003952  6F61               	movwf	97,b	;volatile
  5725                           
  5726                           ;mcc_generated_files/pin_manager.c: 96:     RB1I2C = 0x00;
  5727  003954  0E00               	movlw	0
  5728  003956  6F5A               	movwf	90,b	;volatile
  5729                           
  5730                           ;mcc_generated_files/pin_manager.c: 97:     RB2I2C = 0x00;
  5731  003958  0E00               	movlw	0
  5732  00395A  6F5B               	movwf	91,b	;volatile
  5733                           
  5734                           ;mcc_generated_files/pin_manager.c: 98:     RC3I2C = 0x00;
  5735  00395C  0E00               	movlw	0
  5736  00395E  6F6A               	movwf	106,b	;volatile
  5737                           
  5738                           ;mcc_generated_files/pin_manager.c: 99:     RC4I2C = 0x00;
  5739  003960  0E00               	movlw	0
  5740  003962  6F6B               	movwf	107,b	;volatile
  5741                           
  5742                           ;mcc_generated_files/pin_manager.c: 100:     RD0I2C = 0x00;
  5743  003964  0E00               	movlw	0
  5744  003966  6F7A               	movwf	122,b	;volatile
  5745                           
  5746                           ;mcc_generated_files/pin_manager.c: 101:     RD1I2C = 0x00;
  5747  003968  0E00               	movlw	0
  5748  00396A  6F7B               	movwf	123,b	;volatile
  5749                           
  5750                           ;mcc_generated_files/pin_manager.c: 106:     ODCONE = 0x00;
  5751  00396C  0E00               	movlw	0
  5752  00396E  6F82               	movwf	130,b	;volatile
  5753                           
  5754                           ;mcc_generated_files/pin_manager.c: 107:     ODCONA = 0x00;
  5755  003970  0E00               	movlw	0
  5756  003972  6F42               	movwf	66,b	;volatile
  5757                           
  5758                           ;mcc_generated_files/pin_manager.c: 108:     ODCONB = 0x00;
  5759  003974  0E00               	movlw	0
  5760  003976  6F52               	movwf	82,b	;volatile
  5761                           
  5762                           ;mcc_generated_files/pin_manager.c: 109:     ODCONC = 0x00;
  5763  003978  0E00               	movlw	0
  5764  00397A  6F62               	movwf	98,b	;volatile
  5765                           
  5766                           ;mcc_generated_files/pin_manager.c: 110:     ODCOND = 0x00;
  5767  00397C  0E00               	movlw	0
  5768  00397E  6F72               	movwf	114,b	;volatile
  5769  003980                     
  5770                           ; BSR set to: 58
  5771                           ;mcc_generated_files/pin_manager.c: 115:     SLRCONA = 0xFF;
  5772  003980  6943               	setf	67,b	;volatile
  5773  003982                     
  5774                           ; BSR set to: 58
  5775                           ;mcc_generated_files/pin_manager.c: 116:     SLRCONB = 0xFF;
  5776  003982  6953               	setf	83,b	;volatile
  5777  003984                     
  5778                           ; BSR set to: 58
  5779                           ;mcc_generated_files/pin_manager.c: 117:     SLRCONC = 0xFF;
  5780  003984  6963               	setf	99,b	;volatile
  5781  003986                     
  5782                           ; BSR set to: 58
  5783                           ;mcc_generated_files/pin_manager.c: 118:     SLRCOND = 0xFF;
  5784  003986  6973               	setf	115,b	;volatile
  5785                           
  5786                           ;mcc_generated_files/pin_manager.c: 119:     SLRCONE = 0x07;
  5787  003988  0E07               	movlw	7
  5788  00398A  6F83               	movwf	131,b	;volatile
  5789  00398C                     
  5790                           ; BSR set to: 58
  5791                           ;mcc_generated_files/pin_manager.c: 124:     INLVLA = 0xFF;
  5792  00398C  6944               	setf	68,b	;volatile
  5793  00398E                     
  5794                           ; BSR set to: 58
  5795                           ;mcc_generated_files/pin_manager.c: 125:     INLVLB = 0xFF;
  5796  00398E  6954               	setf	84,b	;volatile
  5797  003990                     
  5798                           ; BSR set to: 58
  5799                           ;mcc_generated_files/pin_manager.c: 126:     INLVLC = 0xFF;
  5800  003990  6964               	setf	100,b	;volatile
  5801  003992                     
  5802                           ; BSR set to: 58
  5803                           ;mcc_generated_files/pin_manager.c: 127:     INLVLD = 0xFF;
  5804  003992  6974               	setf	116,b	;volatile
  5805                           
  5806                           ;mcc_generated_files/pin_manager.c: 128:     INLVLE = 0x0F;
  5807  003994  0E0F               	movlw	15
  5808  003996  6F84               	movwf	132,b	;volatile
  5809                           
  5810                           ;mcc_generated_files/pin_manager.c: 137:     INT0PPS = 0x08;
  5811  003998  0E08               	movlw	8
  5812  00399A  6FC0               	movwf	192,b	;volatile
  5813                           
  5814                           ;mcc_generated_files/pin_manager.c: 138:     SMT1WINPPS = 0x10;
  5815  00399C  0E10               	movlw	16
  5816  00399E  6FD1               	movwf	209,b	;volatile
  5817                           
  5818                           ;mcc_generated_files/pin_manager.c: 139:     RB2PPS = 0x13;
  5819  0039A0  0E13               	movlw	19
  5820  0039A2  6F0A               	movwf	10,b	;volatile
  5821                           
  5822                           ;mcc_generated_files/pin_manager.c: 140:     SMT1SIGPPS = 0x11;
  5823  0039A4  0E11               	movlw	17
  5824  0039A6  6FD2               	movwf	210,b	;volatile
  5825                           
  5826                           ;mcc_generated_files/pin_manager.c: 141:     U1RXPPS = 0x0B;
  5827  0039A8  0E0B               	movlw	11
  5828  0039AA  6FE5               	movwf	229,b	;volatile
  5829  0039AC                     
  5830                           ; BSR set to: 58
  5831  0039AC  0012               	return		;funcret
  5832  0039AE                     __end_of_PIN_MANAGER_Initialize:
  5833                           	callstack 0
  5834                           
  5835 ;; *************** function _OSCILLATOR_Initialize *****************
  5836 ;; Defined at:
  5837 ;;		line 63 in file "mcc_generated_files/mcc.c"
  5838 ;; Parameters:    Size  Location     Type
  5839 ;;		None
  5840 ;; Auto vars:     Size  Location     Type
  5841 ;;		None
  5842 ;; Return value:  Size  Location     Type
  5843 ;;                  1    wreg      void 
  5844 ;; Registers used:
  5845 ;;		wreg, status,2
  5846 ;; Tracked objects:
  5847 ;;		On entry : 0/0
  5848 ;;		On exit  : 0/0
  5849 ;;		Unchanged: 0/0
  5850 ;; Data sizes:     COMRAM   BANK0   BANK1   BANK2   BANK3   BANK4   BANK5   BANK6   BANK7   BANK8   BANK9  BANK10  BANK1
      +1  BANK12  BANK13  BANK14  BANK15  BANK16  BANK17  BANK18  BANK19  BANK20  BANK21  BANK22  BANK23  BANK24  BANK25  BANK2
      +6  BANK27  BANK28  BANK29  BANK30  BANK31
  5851 ;;      Params:         0       0       0       0       0       0       0       0       0       0       0       0       
      +0       0       0       0       0       0       0       0       0       0       0       0       0       0       0       
      +0       0       0       0       0       0
  5852 ;;      Locals:         0       0       0       0       0       0       0       0       0       0       0       0       
      +0       0       0       0       0       0       0       0       0       0       0       0       0       0       0       
      +0       0       0       0       0       0
  5853 ;;      Temps:          0       0       0       0       0       0       0       0       0       0       0       0       
      +0       0       0       0       0       0       0       0       0       0       0       0       0       0       0       
      +0       0       0       0       0       0
  5854 ;;      Totals:         0       0       0       0       0       0       0       0       0       0       0       0       
      +0       0       0       0       0       0       0       0       0       0       0       0       0       0       0       
      +0       0       0       0       0       0
  5855 ;;Total ram usage:        0 bytes
  5856 ;; Hardware stack levels used: 1
  5857 ;; Hardware stack levels required when called: 4
  5858 ;; This function calls:
  5859 ;;		Nothing
  5860 ;; This function is called by:
  5861 ;;		_SYSTEM_Initialize
  5862 ;; This function uses a non-reentrant model
  5863 ;;
  5864                           
  5865                           	psect	text28
  5866  003DD6                     __ptext28:
  5867                           	callstack 0
  5868  003DD6                     _OSCILLATOR_Initialize:
  5869                           	callstack 25
  5870  003DD6                     
  5871                           ;mcc_generated_files/mcc.c: 66:     OSCCON1 = 0x64;
  5872  003DD6  0E64               	movlw	100
  5873  003DD8  0139               	movlb	57	; () banked
  5874  003DDA  6FD9               	movwf	217,b	;volatile
  5875                           
  5876                           ;mcc_generated_files/mcc.c: 68:     OSCCON3 = 0x00;
  5877  003DDC  0E00               	movlw	0
  5878  003DDE  6FDB               	movwf	219,b	;volatile
  5879                           
  5880                           ;mcc_generated_files/mcc.c: 70:     OSCEN = 0x00;
  5881  003DE0  0E00               	movlw	0
  5882  003DE2  6FDD               	movwf	221,b	;volatile
  5883                           
  5884                           ;mcc_generated_files/mcc.c: 72:     OSCFRQ = 0x03;
  5885  003DE4  0E03               	movlw	3
  5886  003DE6  6FDF               	movwf	223,b	;volatile
  5887                           
  5888                           ;mcc_generated_files/mcc.c: 74:     OSCTUNE = 0x00;
  5889  003DE8  0E00               	movlw	0
  5890  003DEA  6FDE               	movwf	222,b	;volatile
  5891  003DEC                     
  5892                           ; BSR set to: 57
  5893  003DEC  0012               	return		;funcret
  5894  003DEE                     __end_of_OSCILLATOR_Initialize:
  5895                           	callstack 0
  5896                           
  5897 ;; *************** function _INTERRUPT_Initialize *****************
  5898 ;; Defined at:
  5899 ;;		line 52 in file "mcc_generated_files/interrupt_manager.c"
  5900 ;; Parameters:    Size  Location     Type
  5901 ;;		None
  5902 ;; Auto vars:     Size  Location     Type
  5903 ;;		None
  5904 ;; Return value:  Size  Location     Type
  5905 ;;                  1    wreg      void 
  5906 ;; Registers used:
  5907 ;;		None
  5908 ;; Tracked objects:
  5909 ;;		On entry : 0/0
  5910 ;;		On exit  : 0/0
  5911 ;;		Unchanged: 0/0
  5912 ;; Data sizes:     COMRAM   BANK0   BANK1   BANK2   BANK3   BANK4   BANK5   BANK6   BANK7   BANK8   BANK9  BANK10  BANK1
      +1  BANK12  BANK13  BANK14  BANK15  BANK16  BANK17  BANK18  BANK19  BANK20  BANK21  BANK22  BANK23  BANK24  BANK25  BANK2
      +6  BANK27  BANK28  BANK29  BANK30  BANK31
  5913 ;;      Params:         0       0       0       0       0       0       0       0       0       0       0       0       
      +0       0       0       0       0       0       0       0       0       0       0       0       0       0       0       
      +0       0       0       0       0       0
  5914 ;;      Locals:         0       0       0       0       0       0       0       0       0       0       0       0       
      +0       0       0       0       0       0       0       0       0       0       0       0       0       0       0       
      +0       0       0       0       0       0
  5915 ;;      Temps:          0       0       0       0       0       0       0       0       0       0       0       0       
      +0       0       0       0       0       0       0       0       0       0       0       0       0       0       0       
      +0       0       0       0       0       0
  5916 ;;      Totals:         0       0       0       0       0       0       0       0       0       0       0       0       
      +0       0       0       0       0       0       0       0       0       0       0       0       0       0       0       
      +0       0       0       0       0       0
  5917 ;;Total ram usage:        0 bytes
  5918 ;; Hardware stack levels used: 1
  5919 ;; Hardware stack levels required when called: 4
  5920 ;; This function calls:
  5921 ;;		Nothing
  5922 ;; This function is called by:
  5923 ;;		_SYSTEM_Initialize
  5924 ;; This function uses a non-reentrant model
  5925 ;;
  5926                           
  5927                           	psect	text29
  5928  003E5E                     __ptext29:
  5929                           	callstack 0
  5930  003E5E                     _INTERRUPT_Initialize:
  5931                           	callstack 25
  5932  003E5E                     
  5933                           ;mcc_generated_files/interrupt_manager.c: 55:     INTCON0bits.IPEN = 0;
  5934  003E5E  9AD2               	bcf	210,5,c	;volatile
  5935  003E60  0012               	return		;funcret
  5936  003E62                     __end_of_INTERRUPT_Initialize:
  5937                           	callstack 0
  5938                           
  5939 ;; *************** function _EXT_INT_Initialize *****************
  5940 ;; Defined at:
  5941 ;;		line 59 in file "mcc_generated_files/ext_int.c"
  5942 ;; Parameters:    Size  Location     Type
  5943 ;;		None
  5944 ;; Auto vars:     Size  Location     Type
  5945 ;;		None
  5946 ;; Return value:  Size  Location     Type
  5947 ;;                  1    wreg      void 
  5948 ;; Registers used:
  5949 ;;		wreg, status,2, status,0, cstack
  5950 ;; Tracked objects:
  5951 ;;		On entry : 0/0
  5952 ;;		On exit  : 0/0
  5953 ;;		Unchanged: 0/0
  5954 ;; Data sizes:     COMRAM   BANK0   BANK1   BANK2   BANK3   BANK4   BANK5   BANK6   BANK7   BANK8   BANK9  BANK10  BANK1
      +1  BANK12  BANK13  BANK14  BANK15  BANK16  BANK17  BANK18  BANK19  BANK20  BANK21  BANK22  BANK23  BANK24  BANK25  BANK2
      +6  BANK27  BANK28  BANK29  BANK30  BANK31
  5955 ;;      Params:         0       0       0       0       0       0       0       0       0       0       0       0       
      +0       0       0       0       0       0       0       0       0       0       0       0       0       0       0       
      +0       0       0       0       0       0
  5956 ;;      Locals:         0       0       0       0       0       0       0       0       0       0       0       0       
      +0       0       0       0       0       0       0       0       0       0       0       0       0       0       0       
      +0       0       0       0       0       0
  5957 ;;      Temps:          0       0       0       0       0       0       0       0       0       0       0       0       
      +0       0       0       0       0       0       0       0       0       0       0       0       0       0       0       
      +0       0       0       0       0       0
  5958 ;;      Totals:         0       0       0       0       0       0       0       0       0       0       0       0       
      +0       0       0       0       0       0       0       0       0       0       0       0       0       0       0       
      +0       0       0       0       0       0
  5959 ;;Total ram usage:        0 bytes
  5960 ;; Hardware stack levels used: 1
  5961 ;; Hardware stack levels required when called: 5
  5962 ;; This function calls:
  5963 ;;		_INT0_SetInterruptHandler
  5964 ;; This function is called by:
  5965 ;;		_SYSTEM_Initialize
  5966 ;; This function uses a non-reentrant model
  5967 ;;
  5968                           
  5969                           	psect	text30
  5970  003DA0                     __ptext30:
  5971                           	callstack 0
  5972  003DA0                     _EXT_INT_Initialize:
  5973                           	callstack 24
  5974  003DA0                     
  5975                           ;mcc_generated_files/ext_int.c: 64:     (PIR1bits.INT0IF = 0);
  5976  003DA0  0139               	movlb	57	; () banked
  5977  003DA2  91A1               	bcf	161,0,b	;volatile
  5978                           
  5979                           ;mcc_generated_files/ext_int.c: 65:     (INTCON0bits.INT0EDG = 1);
  5980  003DA4  80D2               	bsf	210,0,c	;volatile
  5981  003DA6                     
  5982                           ; BSR set to: 57
  5983                           ;mcc_generated_files/ext_int.c: 67:     INT0_SetInterruptHandler(INT0_DefaultInterruptHa
      +                          ndler);
  5984  003DA6  0E62               	movlw	low _INT0_DefaultInterruptHandler
  5985  003DA8  6E01               	movwf	INT0_SetInterruptHandler@InterruptHandler^0,c
  5986  003DAA  0E3E               	movlw	high _INT0_DefaultInterruptHandler
  5987  003DAC  6E02               	movwf	(INT0_SetInterruptHandler@InterruptHandler+1)^0,c
  5988  003DAE  0E00               	movlw	low (_INT0_DefaultInterruptHandler shr (0+16))
  5989  003DB0  6E03               	movwf	(INT0_SetInterruptHandler@InterruptHandler+2)^0,c
  5990  003DB2  EC14  F01F         	call	_INT0_SetInterruptHandler	;wreg free
  5991  003DB6                     
  5992                           ;mcc_generated_files/ext_int.c: 68:     (PIE1bits.INT0IE = 1);
  5993  003DB6  0139               	movlb	57	; () banked
  5994  003DB8  8191               	bsf	145,0,b	;volatile
  5995  003DBA                     
  5996                           ; BSR set to: 57
  5997  003DBA  0012               	return		;funcret
  5998  003DBC                     __end_of_EXT_INT_Initialize:
  5999                           	callstack 0
  6000                           
  6001 ;; *************** function _INT0_SetInterruptHandler *****************
  6002 ;; Defined at:
  6003 ;;		line 50 in file "mcc_generated_files/ext_int.c"
  6004 ;; Parameters:    Size  Location     Type
  6005 ;;  InterruptHan    3    0[COMRAM] PTR FTN()void 
  6006 ;;		 -> counterHall_callback(1), INT0_DefaultInterruptHandler(1), 
  6007 ;; Auto vars:     Size  Location     Type
  6008 ;;		None
  6009 ;; Return value:  Size  Location     Type
  6010 ;;                  1    wreg      void 
  6011 ;; Registers used:
  6012 ;;		wreg, status,2, status,0
  6013 ;; Tracked objects:
  6014 ;;		On entry : 0/0
  6015 ;;		On exit  : 0/0
  6016 ;;		Unchanged: 0/0
  6017 ;; Data sizes:     COMRAM   BANK0   BANK1   BANK2   BANK3   BANK4   BANK5   BANK6   BANK7   BANK8   BANK9  BANK10  BANK1
      +1  BANK12  BANK13  BANK14  BANK15  BANK16  BANK17  BANK18  BANK19  BANK20  BANK21  BANK22  BANK23  BANK24  BANK25  BANK2
      +6  BANK27  BANK28  BANK29  BANK30  BANK31
  6018 ;;      Params:         3       0       0       0       0       0       0       0       0       0       0       0       
      +0       0       0       0       0       0       0       0       0       0       0       0       0       0       0       
      +0       0       0       0       0       0
  6019 ;;      Locals:         0       0       0       0       0       0       0       0       0       0       0       0       
      +0       0       0       0       0       0       0       0       0       0       0       0       0       0       0       
      +0       0       0       0       0       0
  6020 ;;      Temps:          0       0       0       0       0       0       0       0       0       0       0       0       
      +0       0       0       0       0       0       0       0       0       0       0       0       0       0       0       
      +0       0       0       0       0       0
  6021 ;;      Totals:         3       0       0       0       0       0       0       0       0       0       0       0       
      +0       0       0       0       0       0       0       0       0       0       0       0       0       0       0       
      +0       0       0       0       0       0
  6022 ;;Total ram usage:        3 bytes
  6023 ;; Hardware stack levels used: 1
  6024 ;; Hardware stack levels required when called: 4
  6025 ;; This function calls:
  6026 ;;		Nothing
  6027 ;; This function is called by:
  6028 ;;		_EXT_INT_Initialize
  6029 ;;		_main
  6030 ;; This function uses a non-reentrant model
  6031 ;;
  6032                           
  6033                           	psect	text31
  6034  003E28                     __ptext31:
  6035                           	callstack 0
  6036  003E28                     _INT0_SetInterruptHandler:
  6037                           	callstack 24
  6038  003E28                     
  6039                           ;mcc_generated_files/ext_int.c: 51:     INT0_InterruptHandler = InterruptHandler;
  6040  003E28  C001  F0AC         	movff	INT0_SetInterruptHandler@InterruptHandler,_INT0_InterruptHandler
  6041  003E2C  C002  F0AD         	movff	INT0_SetInterruptHandler@InterruptHandler+1,_INT0_InterruptHandler+1
  6042  003E30  C003  F0AE         	movff	INT0_SetInterruptHandler@InterruptHandler+2,_INT0_InterruptHandler+2
  6043  003E34  0012               	return		;funcret
  6044  003E36                     __end_of_INT0_SetInterruptHandler:
  6045                           	callstack 0
  6046                           
  6047 ;; *************** function _INTERRUPT_InterruptManager *****************
  6048 ;; Defined at:
  6049 ;;		line 58 in file "mcc_generated_files/interrupt_manager.c"
  6050 ;; Parameters:    Size  Location     Type
  6051 ;;		None
  6052 ;; Auto vars:     Size  Location     Type
  6053 ;;		None
  6054 ;; Return value:  Size  Location     Type
  6055 ;;                  1    wreg      void 
  6056 ;; Registers used:
  6057 ;;		wreg, status,2, status,0, pclath, tosl, cstack
  6058 ;; Tracked objects:
  6059 ;;		On entry : 0/0
  6060 ;;		On exit  : 0/0
  6061 ;;		Unchanged: 0/0
  6062 ;; Data sizes:     COMRAM   BANK0   BANK1   BANK2   BANK3   BANK4   BANK5   BANK6   BANK7   BANK8   BANK9  BANK10  BANK1
      +1  BANK12  BANK13  BANK14  BANK15  BANK16  BANK17  BANK18  BANK19  BANK20  BANK21  BANK22  BANK23  BANK24  BANK25  BANK2
      +6  BANK27  BANK28  BANK29  BANK30  BANK31
  6063 ;;      Params:         0       0       0       0       0       0       0       0       0       0       0       0       
      +0       0       0       0       0       0       0       0       0       0       0       0       0       0       0       
      +0       0       0       0       0       0
  6064 ;;      Locals:         0       0       0       0       0       0       0       0       0       0       0       0       
      +0       0       0       0       0       0       0       0       0       0       0       0       0       0       0       
      +0       0       0       0       0       0
  6065 ;;      Temps:          0       0       0       0       0       0       0       0       0       0       0       0       
      +0       0       0       0       0       0       0       0       0       0       0       0       0       0       0       
      +0       0       0       0       0       0
  6066 ;;      Totals:         0       0       0       0       0       0       0       0       0       0       0       0       
      +0       0       0       0       0       0       0       0       0       0       0       0       0       0       0       
      +0       0       0       0       0       0
  6067 ;;Total ram usage:        0 bytes
  6068 ;; Hardware stack levels used: 1
  6069 ;; Hardware stack levels required when called: 3
  6070 ;; This function calls:
  6071 ;;		_INT0_ISR
  6072 ;;		_SMT1_PR_ACQ_ISR
  6073 ;;		_SMT1_PW_ACQ_ISR
  6074 ;; This function is called by:
  6075 ;;		Interrupt level 2
  6076 ;; This function uses a non-reentrant model
  6077 ;;
  6078                           
  6079                           	psect	text32
  6080  003AB8                     __ptext32:
  6081                           	callstack 0
  6082  003AB8                     _INTERRUPT_InterruptManager:
  6083                           	callstack 18
  6084  003AB8                     
  6085                           ;mcc_generated_files/interrupt_manager.c: 61:     if(PIE1bits.SMT1PWAIE == 1 && PIR1bits
      +                          .SMT1PWAIF == 1)
  6086  003AB8  0139               	movlb	57	; () banked
  6087  003ABA  AF91               	btfss	145,7,b	;volatile
  6088  003ABC  EF62  F01D         	goto	i2u283_41
  6089  003AC0  EF64  F01D         	goto	i2u283_40
  6090  003AC4                     i2u283_41:
  6091  003AC4  EF6F  F01D         	goto	i2l380
  6092  003AC8                     i2u283_40:
  6093  003AC8                     
  6094                           ; BSR set to: 57
  6095  003AC8  AFA1               	btfss	161,7,b	;volatile
  6096  003ACA  EF69  F01D         	goto	i2u284_41
  6097  003ACE  EF6B  F01D         	goto	i2u284_40
  6098  003AD2                     i2u284_41:
  6099  003AD2  EF6F  F01D         	goto	i2l380
  6100  003AD6                     i2u284_40:
  6101  003AD6                     
  6102                           ; BSR set to: 57
  6103                           ;mcc_generated_files/interrupt_manager.c: 62:     {;mcc_generated_files/interrupt_manage
      +                          r.c: 63:         SMT1_PW_ACQ_ISR();
  6104  003AD6  EC29  F01F         	call	_SMT1_PW_ACQ_ISR	;wreg free
  6105                           
  6106                           ;mcc_generated_files/interrupt_manager.c: 64:     }
  6107  003ADA  EF93  F01D         	goto	i2l386
  6108  003ADE                     i2l380:
  6109                           
  6110                           ; BSR set to: 57
  6111  003ADE  AD91               	btfss	145,6,b	;volatile
  6112  003AE0  EF74  F01D         	goto	i2u285_41
  6113  003AE4  EF76  F01D         	goto	i2u285_40
  6114  003AE8                     i2u285_41:
  6115  003AE8  EF81  F01D         	goto	i2l382
  6116  003AEC                     i2u285_40:
  6117  003AEC                     
  6118                           ; BSR set to: 57
  6119  003AEC  ADA1               	btfss	161,6,b	;volatile
  6120  003AEE  EF7B  F01D         	goto	i2u286_41
  6121  003AF2  EF7D  F01D         	goto	i2u286_40
  6122  003AF6                     i2u286_41:
  6123  003AF6  EF81  F01D         	goto	i2l382
  6124  003AFA                     i2u286_40:
  6125  003AFA                     
  6126                           ; BSR set to: 57
  6127                           ;mcc_generated_files/interrupt_manager.c: 66:     {;mcc_generated_files/interrupt_manage
      +                          r.c: 67:         SMT1_PR_ACQ_ISR();
  6128  003AFA  EC2C  F01F         	call	_SMT1_PR_ACQ_ISR	;wreg free
  6129                           
  6130                           ;mcc_generated_files/interrupt_manager.c: 68:     }
  6131  003AFE  EF93  F01D         	goto	i2l386
  6132  003B02                     i2l382:
  6133                           
  6134                           ; BSR set to: 57
  6135  003B02  A191               	btfss	145,0,b	;volatile
  6136  003B04  EF86  F01D         	goto	i2u287_41
  6137  003B08  EF88  F01D         	goto	i2u287_40
  6138  003B0C                     i2u287_41:
  6139  003B0C  EF93  F01D         	goto	i2l383
  6140  003B10                     i2u287_40:
  6141  003B10                     
  6142                           ; BSR set to: 57
  6143  003B10  A1A1               	btfss	161,0,b	;volatile
  6144  003B12  EF8D  F01D         	goto	i2u288_41
  6145  003B16  EF8F  F01D         	goto	i2u288_40
  6146  003B1A                     i2u288_41:
  6147  003B1A  EF93  F01D         	goto	i2l383
  6148  003B1E                     i2u288_40:
  6149  003B1E                     
  6150                           ; BSR set to: 57
  6151                           ;mcc_generated_files/interrupt_manager.c: 70:     {;mcc_generated_files/interrupt_manage
      +                          r.c: 71:         INT0_ISR();
  6152  003B1E  EC20  F01F         	call	_INT0_ISR	;wreg free
  6153                           
  6154                           ;mcc_generated_files/interrupt_manager.c: 72:     }
  6155  003B22  EF93  F01D         	goto	i2l386
  6156  003B26                     i2l383:
  6157  003B26                     i2l386:
  6158  003B26  0011               	retfie		f
  6159  003B28                     __end_of_INTERRUPT_InterruptManager:
  6160                           	callstack 0
  6161                           
  6162 ;; *************** function _SMT1_PW_ACQ_ISR *****************
  6163 ;; Defined at:
  6164 ;;		line 191 in file "mcc_generated_files/smt1.c"
  6165 ;; Parameters:    Size  Location     Type
  6166 ;;		None
  6167 ;; Auto vars:     Size  Location     Type
  6168 ;;		None
  6169 ;; Return value:  Size  Location     Type
  6170 ;;                  1    wreg      void 
  6171 ;; Registers used:
  6172 ;;		None
  6173 ;; Tracked objects:
  6174 ;;		On entry : 0/0
  6175 ;;		On exit  : 0/0
  6176 ;;		Unchanged: 0/0
  6177 ;; Data sizes:     COMRAM   BANK0   BANK1   BANK2   BANK3   BANK4   BANK5   BANK6   BANK7   BANK8   BANK9  BANK10  BANK1
      +1  BANK12  BANK13  BANK14  BANK15  BANK16  BANK17  BANK18  BANK19  BANK20  BANK21  BANK22  BANK23  BANK24  BANK25  BANK2
      +6  BANK27  BANK28  BANK29  BANK30  BANK31
  6178 ;;      Params:         0       0       0       0       0       0       0       0       0       0       0       0       
      +0       0       0       0       0       0       0       0       0       0       0       0       0       0       0       
      +0       0       0       0       0       0
  6179 ;;      Locals:         0       0       0       0       0       0       0       0       0       0       0       0       
      +0       0       0       0       0       0       0       0       0       0       0       0       0       0       0       
      +0       0       0       0       0       0
  6180 ;;      Temps:          0       0       0       0       0       0       0       0       0       0       0       0       
      +0       0       0       0       0       0       0       0       0       0       0       0       0       0       0       
      +0       0       0       0       0       0
  6181 ;;      Totals:         0       0       0       0       0       0       0       0       0       0       0       0       
      +0       0       0       0       0       0       0       0       0       0       0       0       0       0       0       
      +0       0       0       0       0       0
  6182 ;;Total ram usage:        0 bytes
  6183 ;; Hardware stack levels used: 1
  6184 ;; This function calls:
  6185 ;;		Nothing
  6186 ;; This function is called by:
  6187 ;;		_INTERRUPT_InterruptManager
  6188 ;; This function uses a non-reentrant model
  6189 ;;
  6190                           
  6191                           	psect	text33
  6192  003E52                     __ptext33:
  6193                           	callstack 0
  6194  003E52                     _SMT1_PW_ACQ_ISR:
  6195                           	callstack 20
  6196  003E52                     
  6197                           ;mcc_generated_files/smt1.c: 195:     PIR1bits.SMT1PWAIF = 0;
  6198  003E52  0139               	movlb	57	; () banked
  6199  003E54  9FA1               	bcf	161,7,b	;volatile
  6200  003E56                     
  6201                           ; BSR set to: 57
  6202  003E56  0012               	return		;funcret
  6203  003E58                     __end_of_SMT1_PW_ACQ_ISR:
  6204                           	callstack 0
  6205                           
  6206 ;; *************** function _SMT1_PR_ACQ_ISR *****************
  6207 ;; Defined at:
  6208 ;;		line 184 in file "mcc_generated_files/smt1.c"
  6209 ;; Parameters:    Size  Location     Type
  6210 ;;		None
  6211 ;; Auto vars:     Size  Location     Type
  6212 ;;		None
  6213 ;; Return value:  Size  Location     Type
  6214 ;;                  1    wreg      void 
  6215 ;; Registers used:
  6216 ;;		None
  6217 ;; Tracked objects:
  6218 ;;		On entry : 0/0
  6219 ;;		On exit  : 0/0
  6220 ;;		Unchanged: 0/0
  6221 ;; Data sizes:     COMRAM   BANK0   BANK1   BANK2   BANK3   BANK4   BANK5   BANK6   BANK7   BANK8   BANK9  BANK10  BANK1
      +1  BANK12  BANK13  BANK14  BANK15  BANK16  BANK17  BANK18  BANK19  BANK20  BANK21  BANK22  BANK23  BANK24  BANK25  BANK2
      +6  BANK27  BANK28  BANK29  BANK30  BANK31
  6222 ;;      Params:         0       0       0       0       0       0       0       0       0       0       0       0       
      +0       0       0       0       0       0       0       0       0       0       0       0       0       0       0       
      +0       0       0       0       0       0
  6223 ;;      Locals:         0       0       0       0       0       0       0       0       0       0       0       0       
      +0       0       0       0       0       0       0       0       0       0       0       0       0       0       0       
      +0       0       0       0       0       0
  6224 ;;      Temps:          0       0       0       0       0       0       0       0       0       0       0       0       
      +0       0       0       0       0       0       0       0       0       0       0       0       0       0       0       
      +0       0       0       0       0       0
  6225 ;;      Totals:         0       0       0       0       0       0       0       0       0       0       0       0       
      +0       0       0       0       0       0       0       0       0       0       0       0       0       0       0       
      +0       0       0       0       0       0
  6226 ;;Total ram usage:        0 bytes
  6227 ;; Hardware stack levels used: 1
  6228 ;; This function calls:
  6229 ;;		Nothing
  6230 ;; This function is called by:
  6231 ;;		_INTERRUPT_InterruptManager
  6232 ;; This function uses a non-reentrant model
  6233 ;;
  6234                           
  6235                           	psect	text34
  6236  003E58                     __ptext34:
  6237                           	callstack 0
  6238  003E58                     _SMT1_PR_ACQ_ISR:
  6239                           	callstack 20
  6240  003E58                     
  6241                           ;mcc_generated_files/smt1.c: 188:     PIR1bits.SMT1PRAIF = 0;
  6242  003E58  0139               	movlb	57	; () banked
  6243  003E5A  9DA1               	bcf	161,6,b	;volatile
  6244  003E5C                     
  6245                           ; BSR set to: 57
  6246  003E5C  0012               	return		;funcret
  6247  003E5E                     __end_of_SMT1_PR_ACQ_ISR:
  6248                           	callstack 0
  6249                           
  6250 ;; *************** function _INT0_ISR *****************
  6251 ;; Defined at:
  6252 ;;		line 32 in file "mcc_generated_files/ext_int.c"
  6253 ;; Parameters:    Size  Location     Type
  6254 ;;		None
  6255 ;; Auto vars:     Size  Location     Type
  6256 ;;		None
  6257 ;; Return value:  Size  Location     Type
  6258 ;;                  1    wreg      void 
  6259 ;; Registers used:
  6260 ;;		wreg, status,2, status,0, pclath, tosl, cstack
  6261 ;; Tracked objects:
  6262 ;;		On entry : 0/0
  6263 ;;		On exit  : 0/0
  6264 ;;		Unchanged: 0/0
  6265 ;; Data sizes:     COMRAM   BANK0   BANK1   BANK2   BANK3   BANK4   BANK5   BANK6   BANK7   BANK8   BANK9  BANK10  BANK1
      +1  BANK12  BANK13  BANK14  BANK15  BANK16  BANK17  BANK18  BANK19  BANK20  BANK21  BANK22  BANK23  BANK24  BANK25  BANK2
      +6  BANK27  BANK28  BANK29  BANK30  BANK31
  6266 ;;      Params:         0       0       0       0       0       0       0       0       0       0       0       0       
      +0       0       0       0       0       0       0       0       0       0       0       0       0       0       0       
      +0       0       0       0       0       0
  6267 ;;      Locals:         0       0       0       0       0       0       0       0       0       0       0       0       
      +0       0       0       0       0       0       0       0       0       0       0       0       0       0       0       
      +0       0       0       0       0       0
  6268 ;;      Temps:          0       0       0       0       0       0       0       0       0       0       0       0       
      +0       0       0       0       0       0       0       0       0       0       0       0       0       0       0       
      +0       0       0       0       0       0
  6269 ;;      Totals:         0       0       0       0       0       0       0       0       0       0       0       0       
      +0       0       0       0       0       0       0       0       0       0       0       0       0       0       0       
      +0       0       0       0       0       0
  6270 ;;Total ram usage:        0 bytes
  6271 ;; Hardware stack levels used: 1
  6272 ;; Hardware stack levels required when called: 2
  6273 ;; This function calls:
  6274 ;;		_INT0_CallBack
  6275 ;; This function is called by:
  6276 ;;		_INTERRUPT_InterruptManager
  6277 ;; This function uses a non-reentrant model
  6278 ;;
  6279                           
  6280                           	psect	text35
  6281  003E40                     __ptext35:
  6282                           	callstack 0
  6283  003E40                     _INT0_ISR:
  6284                           	callstack 18
  6285  003E40                     
  6286                           ;mcc_generated_files/ext_int.c: 34:     (PIR1bits.INT0IF = 0);
  6287  003E40  0139               	movlb	57	; () banked
  6288  003E42  91A1               	bcf	161,0,b	;volatile
  6289  003E44                     
  6290                           ; BSR set to: 57
  6291                           ;mcc_generated_files/ext_int.c: 37:     INT0_CallBack();
  6292  003E44  EC62  F01E         	call	_INT0_CallBack	;wreg free
  6293  003E48  0012               	return		;funcret
  6294  003E4A                     __end_of_INT0_ISR:
  6295                           	callstack 0
  6296                           
  6297 ;; *************** function _INT0_CallBack *****************
  6298 ;; Defined at:
  6299 ;;		line 41 in file "mcc_generated_files/ext_int.c"
  6300 ;; Parameters:    Size  Location     Type
  6301 ;;		None
  6302 ;; Auto vars:     Size  Location     Type
  6303 ;;		None
  6304 ;; Return value:  Size  Location     Type
  6305 ;;                  1    wreg      void 
  6306 ;; Registers used:
  6307 ;;		wreg, status,2, status,0, pclath, tosl, cstack
  6308 ;; Tracked objects:
  6309 ;;		On entry : 0/0
  6310 ;;		On exit  : 0/0
  6311 ;;		Unchanged: 0/0
  6312 ;; Data sizes:     COMRAM   BANK0   BANK1   BANK2   BANK3   BANK4   BANK5   BANK6   BANK7   BANK8   BANK9  BANK10  BANK1
      +1  BANK12  BANK13  BANK14  BANK15  BANK16  BANK17  BANK18  BANK19  BANK20  BANK21  BANK22  BANK23  BANK24  BANK25  BANK2
      +6  BANK27  BANK28  BANK29  BANK30  BANK31
  6313 ;;      Params:         0       0       0       0       0       0       0       0       0       0       0       0       
      +0       0       0       0       0       0       0       0       0       0       0       0       0       0       0       
      +0       0       0       0       0       0
  6314 ;;      Locals:         0       0       0       0       0       0       0       0       0       0       0       0       
      +0       0       0       0       0       0       0       0       0       0       0       0       0       0       0       
      +0       0       0       0       0       0
  6315 ;;      Temps:          0       0       0       0       0       0       0       0       0       0       0       0       
      +0       0       0       0       0       0       0       0       0       0       0       0       0       0       0       
      +0       0       0       0       0       0
  6316 ;;      Totals:         0       0       0       0       0       0       0       0       0       0       0       0       
      +0       0       0       0       0       0       0       0       0       0       0       0       0       0       0       
      +0       0       0       0       0       0
  6317 ;;Total ram usage:        0 bytes
  6318 ;; Hardware stack levels used: 1
  6319 ;; Hardware stack levels required when called: 1
  6320 ;; This function calls:
  6321 ;;		Absolute function
  6322 ;;		_INT0_DefaultInterruptHandler
  6323 ;;		_counterHall_callback
  6324 ;; This function is called by:
  6325 ;;		_INT0_ISR
  6326 ;; This function uses a non-reentrant model
  6327 ;;
  6328                           
  6329                           	psect	text36
  6330  003CC4                     __ptext36:
  6331                           	callstack 0
  6332  003CC4                     _INT0_CallBack:
  6333                           	callstack 18
  6334  003CC4                     
  6335                           ;mcc_generated_files/ext_int.c: 44:     if(INT0_InterruptHandler)
  6336  003CC4  0100               	movlb	0	; () banked
  6337  003CC6  51AC               	movf	_INT0_InterruptHandler& (0+255),w,b
  6338  003CC8  11AD               	iorwf	(_INT0_InterruptHandler+1)& (0+255),w,b
  6339  003CCA  11AE               	iorwf	(_INT0_InterruptHandler+2)& (0+255),w,b
  6340  003CCC  B4D8               	btfsc	status,2,c
  6341  003CCE  EF6B  F01E         	goto	i2u194_41
  6342  003CD2  EF6D  F01E         	goto	i2u194_40
  6343  003CD6                     i2u194_41:
  6344  003CD6  EF7A  F01E         	goto	i2l470
  6345  003CDA                     i2u194_40:
  6346  003CDA                     
  6347                           ; BSR set to: 0
  6348                           ;mcc_generated_files/ext_int.c: 45:     {;mcc_generated_files/ext_int.c: 46:         INT
      +                          0_InterruptHandler();
  6349  003CDA  D802               	call	i2u195_48
  6350  003CDC  EF7A  F01E         	goto	i2u195_49
  6351  003CE0                     i2u195_48:
  6352  003CE0  0005               	push	
  6353  003CE2  6EFA               	movwf	pclath,c
  6354  003CE4  51AC               	movf	_INT0_InterruptHandler& (0+255),w,b
  6355  003CE6  6EFD               	movwf	tosl,c
  6356  003CE8  51AD               	movf	(_INT0_InterruptHandler+1)& (0+255),w,b
  6357  003CEA  6EFE               	movwf	tosh,c
  6358  003CEC  51AE               	movf	(_INT0_InterruptHandler+2)& (0+255),w,b
  6359  003CEE  6EFF               	movwf	tosu,c
  6360  003CF0  50FA               	movf	pclath,w,c
  6361  003CF2  0012               	return		;indir
  6362  003CF4                     i2u195_49:
  6363  003CF4                     i2l470:
  6364  003CF4  0012               	return		;funcret
  6365  003CF6                     __end_of_INT0_CallBack:
  6366                           	callstack 0
  6367                           
  6368 ;; *************** function _INT0_DefaultInterruptHandler *****************
  6369 ;; Defined at:
  6370 ;;		line 54 in file "mcc_generated_files/ext_int.c"
  6371 ;; Parameters:    Size  Location     Type
  6372 ;;		None
  6373 ;; Auto vars:     Size  Location     Type
  6374 ;;		None
  6375 ;; Return value:  Size  Location     Type
  6376 ;;                  1    wreg      void 
  6377 ;; Registers used:
  6378 ;;		None
  6379 ;; Tracked objects:
  6380 ;;		On entry : 0/0
  6381 ;;		On exit  : 0/0
  6382 ;;		Unchanged: 0/0
  6383 ;; Data sizes:     COMRAM   BANK0   BANK1   BANK2   BANK3   BANK4   BANK5   BANK6   BANK7   BANK8   BANK9  BANK10  BANK1
      +1  BANK12  BANK13  BANK14  BANK15  BANK16  BANK17  BANK18  BANK19  BANK20  BANK21  BANK22  BANK23  BANK24  BANK25  BANK2
      +6  BANK27  BANK28  BANK29  BANK30  BANK31
  6384 ;;      Params:         0       0       0       0       0       0       0       0       0       0       0       0       
      +0       0       0       0       0       0       0       0       0       0       0       0       0       0       0       
      +0       0       0       0       0       0
  6385 ;;      Locals:         0       0       0       0       0       0       0       0       0       0       0       0       
      +0       0       0       0       0       0       0       0       0       0       0       0       0       0       0       
      +0       0       0       0       0       0
  6386 ;;      Temps:          0       0       0       0       0       0       0       0       0       0       0       0       
      +0       0       0       0       0       0       0       0       0       0       0       0       0       0       0       
      +0       0       0       0       0       0
  6387 ;;      Totals:         0       0       0       0       0       0       0       0       0       0       0       0       
      +0       0       0       0       0       0       0       0       0       0       0       0       0       0       0       
      +0       0       0       0       0       0
  6388 ;;Total ram usage:        0 bytes
  6389 ;; Hardware stack levels used: 1
  6390 ;; This function calls:
  6391 ;;		Nothing
  6392 ;; This function is called by:
  6393 ;;		_EXT_INT_Initialize
  6394 ;;		_INT0_CallBack
  6395 ;; This function uses a non-reentrant model
  6396 ;;
  6397                           
  6398                           	psect	text37
  6399  003E62                     __ptext37:
  6400                           	callstack 0
  6401  003E62                     _INT0_DefaultInterruptHandler:
  6402                           	callstack 18
  6403  003E62  0012               	return		;funcret
  6404  003E64                     __end_of_INT0_DefaultInterruptHandler:
  6405                           	callstack 0
  6406                           
  6407 ;; *************** function _counterHall_callback *****************
  6408 ;; Defined at:
  6409 ;;		line 106 in file "main.c"
  6410 ;; Parameters:    Size  Location     Type
  6411 ;;		None
  6412 ;; Auto vars:     Size  Location     Type
  6413 ;;		None
  6414 ;; Return value:  Size  Location     Type
  6415 ;;                  1    wreg      void 
  6416 ;; Registers used:
  6417 ;;		wreg, status,2, status,0
  6418 ;; Tracked objects:
  6419 ;;		On entry : 0/0
  6420 ;;		On exit  : 0/0
  6421 ;;		Unchanged: 0/0
  6422 ;; Data sizes:     COMRAM   BANK0   BANK1   BANK2   BANK3   BANK4   BANK5   BANK6   BANK7   BANK8   BANK9  BANK10  BANK1
      +1  BANK12  BANK13  BANK14  BANK15  BANK16  BANK17  BANK18  BANK19  BANK20  BANK21  BANK22  BANK23  BANK24  BANK25  BANK2
      +6  BANK27  BANK28  BANK29  BANK30  BANK31
  6423 ;;      Params:         0       0       0       0       0       0       0       0       0       0       0       0       
      +0       0       0       0       0       0       0       0       0       0       0       0       0       0       0       
      +0       0       0       0       0       0
  6424 ;;      Locals:         0       0       0       0       0       0       0       0       0       0       0       0       
      +0       0       0       0       0       0       0       0       0       0       0       0       0       0       0       
      +0       0       0       0       0       0
  6425 ;;      Temps:          0       0       0       0       0       0       0       0       0       0       0       0       
      +0       0       0       0       0       0       0       0       0       0       0       0       0       0       0       
      +0       0       0       0       0       0
  6426 ;;      Totals:         0       0       0       0       0       0       0       0       0       0       0       0       
      +0       0       0       0       0       0       0       0       0       0       0       0       0       0       0       
      +0       0       0       0       0       0
  6427 ;;Total ram usage:        0 bytes
  6428 ;; Hardware stack levels used: 1
  6429 ;; This function calls:
  6430 ;;		Nothing
  6431 ;; This function is called by:
  6432 ;;		_main
  6433 ;;		_INT0_CallBack
  6434 ;; This function uses a non-reentrant model
  6435 ;;
  6436                           
  6437                           	psect	text38
  6438  003DEE                     __ptext38:
  6439                           	callstack 0
  6440  003DEE                     _counterHall_callback:
  6441                           	callstack 18
  6442  003DEE                     
  6443                           ;main.c: 107:     Counter = Counter + 1;
  6444  003DEE  0E01               	movlw	1
  6445  003DF0  0100               	movlb	0	; () banked
  6446  003DF2  257C               	addwf	_Counter& (0+255),w,b
  6447  003DF4  6F7C               	movwf	_Counter& (0+255),b
  6448  003DF6  0E00               	movlw	0
  6449  003DF8  217D               	addwfc	(_Counter+1)& (0+255),w,b
  6450  003DFA  6F7D               	movwf	(_Counter+1)& (0+255),b
  6451  003DFC                     
  6452                           ; BSR set to: 0
  6453  003DFC  0012               	return		;funcret
  6454  003DFE                     __end_of_counterHall_callback:
  6455                           	callstack 0
  6456                           
  6457                           ;
  6458                           ; Interrupt Vector Table @ 0x8
  6459                           ;
  6460                           
  6461                           	psect	ivt0x8
  6462  000008                     __pivt0x8:
  6463                           	callstack 0
  6464  000008                     ivt0x8_base:
  6465                           	callstack 0
  6466                           
  6467                           ; high-priority vector
  6468  000008  EF5C  F01D         	goto	_INTERRUPT_InterruptManager
  6469  000018                     	org	16
  6470                           
  6471                           ; low-priority vector
  6472  000018  00FF               	reset	
  6473                           
  6474                           	psect	text39
  6475  000000                     __ptext39:
  6476                           	callstack 0
  6477  000000                     
  6478                           	psect	rparam
  6479  0000                     
  6480                           	psect	idloc
  6481                           
  6482                           ;Config register IDLOC0 @ 0x200000
  6483                           ;	unspecified, using default values
  6484  200000                     	org	2097152
  6485  200000  0FFF               	dw	4095
  6486                           
  6487                           ;Config register IDLOC1 @ 0x200002
  6488                           ;	unspecified, using default values
  6489  200002                     	org	2097154
  6490  200002  0FFF               	dw	4095
  6491                           
  6492                           ;Config register IDLOC2 @ 0x200004
  6493                           ;	unspecified, using default values
  6494  200004                     	org	2097156
  6495  200004  0FFF               	dw	4095
  6496                           
  6497                           ;Config register IDLOC3 @ 0x200006
  6498                           ;	unspecified, using default values
  6499  200006                     	org	2097158
  6500  200006  0FFF               	dw	4095
  6501                           
  6502                           ;Config register IDLOC4 @ 0x200008
  6503                           ;	unspecified, using default values
  6504  200008                     	org	2097160
  6505  200008  0FFF               	dw	4095
  6506                           
  6507                           ;Config register IDLOC5 @ 0x20000A
  6508                           ;	unspecified, using default values
  6509  20000A                     	org	2097162
  6510  20000A  0FFF               	dw	4095
  6511                           
  6512                           ;Config register IDLOC6 @ 0x20000C
  6513                           ;	unspecified, using default values
  6514  20000C                     	org	2097164
  6515  20000C  0FFF               	dw	4095
  6516                           
  6517                           ;Config register IDLOC7 @ 0x20000E
  6518                           ;	unspecified, using default values
  6519  20000E                     	org	2097166
  6520  20000E  0FFF               	dw	4095
  6521                           
  6522                           	psect	config
  6523                           
  6524                           ;Config register CONFIG1L @ 0x300000
  6525                           ;	External Oscillator Selection
  6526                           ;	FEXTOSC = OFF, Oscillator not enabled
  6527                           ;	Reset Oscillator Selection
  6528                           ;	RSTOSC = HFINTOSC_1MHZ, HFINTOSC with HFFRQ = 4 MHz and CDIV = 4:1
  6529  300000                     	org	3145728
  6530  300000  EC                 	db	236
  6531                           
  6532                           ;Config register CONFIG1H @ 0x300001
  6533                           ;	Clock out Enable bit
  6534                           ;	CLKOUTEN = OFF, CLKOUT function is disabled
  6535                           ;	PRLOCKED One-Way Set Enable bit
  6536                           ;	PR1WAY = ON, PRLOCK bit can be cleared and set only once
  6537                           ;	Clock Switch Enable bit
  6538                           ;	CSWEN = ON, Writing to NOSC and NDIV is allowed
  6539                           ;	Fail-Safe Clock Monitor Enable bit
  6540                           ;	FCMEN = ON, Fail-Safe Clock Monitor enabled
  6541  300001                     	org	3145729
  6542  300001  FF                 	db	255
  6543                           
  6544                           ;Config register CONFIG2L @ 0x300002
  6545                           ;	MCLR Enable bit
  6546                           ;	MCLRE = EXTMCLR, If LVP = 0, MCLR pin is MCLR; If LVP = 1, RE3 pin function is MCLR
  6547                           ;	Power-up timer selection bits
  6548                           ;	PWRTS = PWRT_OFF, PWRT is disabled
  6549                           ;	Multi-vector enable bit
  6550                           ;	MVECEN = OFF, Interrupt contoller does not use vector table to prioritze interrupts
  6551                           ;	IVTLOCK bit One-way set enable bit
  6552                           ;	IVT1WAY = ON, IVTLOCK bit can be cleared and set only once
  6553                           ;	Low Power BOR Enable bit
  6554                           ;	LPBOREN = OFF, ULPBOR disabled
  6555                           ;	Brown-out Reset Enable bits
  6556                           ;	BOREN = SBORDIS, Brown-out Reset enabled , SBOREN bit is ignored
  6557  300002                     	org	3145730
  6558  300002  F7                 	db	247
  6559                           
  6560                           ;Config register CONFIG2H @ 0x300003
  6561                           ;	Brown-out Reset Voltage Selection bits
  6562                           ;	BORV = VBOR_2P45, Brown-out Reset Voltage (VBOR) set to 2.45V
  6563                           ;	ZCD Disable bit
  6564                           ;	ZCD = OFF, ZCD disabled. ZCD can be enabled by setting the ZCDSEN bit of ZCDCON
  6565                           ;	PPSLOCK bit One-Way Set Enable bit
  6566                           ;	PPS1WAY = ON, PPSLOCK bit can be cleared and set only once; PPS registers remain locke
      +                          d after one clear/set cycle
  6567                           ;	Stack Full/Underflow Reset Enable bit
  6568                           ;	STVREN = ON, Stack full/underflow will cause Reset
  6569                           ;	Debugger Enable bit
  6570                           ;	DEBUG = OFF, Background debugger disabled
  6571                           ;	Extended Instruction Set Enable bit
  6572                           ;	XINST = OFF, Extended Instruction Set and Indexed Addressing Mode disabled
  6573  300003                     	org	3145731
  6574  300003  FF                 	db	255
  6575                           
  6576                           ;Config register CONFIG3L @ 0x300004
  6577                           ;	WDT Period selection bits
  6578                           ;	WDTCPS = WDTCPS_31, Divider ratio 1:65536; software control of WDTPS
  6579                           ;	WDT operating mode
  6580                           ;	WDTE = OFF, WDT Disabled; SWDTEN is ignored
  6581  300004                     	org	3145732
  6582  300004  9F                 	db	159
  6583                           
  6584                           ;Config register CONFIG3H @ 0x300005
  6585                           ;	WDT Window Select bits
  6586                           ;	WDTCWS = WDTCWS_7, window always open (100%); software control; keyed access not requi
      +                          red
  6587                           ;	WDT input clock selector
  6588                           ;	WDTCCS = SC, Software Control
  6589  300005                     	org	3145733
  6590  300005  FF                 	db	255
  6591                           
  6592                           ;Config register CONFIG4L @ 0x300006
  6593                           ;	Boot Block Size selection bits
  6594                           ;	BBSIZE = BBSIZE_512, Boot Block size is 512 words
  6595                           ;	Boot Block enable bit
  6596                           ;	BBEN = OFF, Boot block disabled
  6597                           ;	Storage Area Flash enable bit
  6598                           ;	SAFEN = OFF, SAF disabled
  6599                           ;	Application Block write protection bit
  6600                           ;	WRTAPP = OFF, Application Block not write protected
  6601  300006                     	org	3145734
  6602  300006  FF                 	db	255
  6603                           
  6604                           ;Config register CONFIG4H @ 0x300007
  6605                           ;	Configuration Register Write Protection bit
  6606                           ;	WRTB = OFF, Configuration registers (300000-30000Bh) not write-protected
  6607                           ;	Boot Block Write Protection bit
  6608                           ;	WRTC = OFF, Boot Block (000000-0007FFh) not write-protected
  6609                           ;	Data EEPROM Write Protection bit
  6610                           ;	WRTD = OFF, Data EEPROM not write-protected
  6611                           ;	SAF Write protection bit
  6612                           ;	WRTSAF = OFF, SAF not Write Protected
  6613                           ;	Low Voltage Programming Enable bit
  6614                           ;	LVP = ON, Low voltage programming enabled. MCLR/VPP pin function is MCLR. MCLRE config
      +                          uration bit is ignored
  6615  300007                     	org	3145735
  6616  300007  FF                 	db	255
  6617                           
  6618                           ;Config register CONFIG5L @ 0x300008
  6619                           ;	PFM and Data EEPROM Code Protection bit
  6620                           ;	CP = OFF, PFM and Data EEPROM code protection disabled
  6621  300008                     	org	3145736
  6622  300008  FF                 	db	255
  6623                           
  6624                           ;Config register CONFIG5H @ 0x300009
  6625                           ;	unspecified, using default values
  6626  300009                     	org	3145737
  6627  300009  FF                 	db	255
  6628                           tosu	equ	0x3FFF
  6629                           tosh	equ	0x3FFE
  6630                           tosl	equ	0x3FFD
  6631                           stkptr	equ	0x3FFC
  6632                           pclatu	equ	0x3FFB
  6633                           pclath	equ	0x3FFA
  6634                           pcl	equ	0x3FF9
  6635                           tblptru	equ	0x3FF8
  6636                           tblptrh	equ	0x3FF7
  6637                           tblptrl	equ	0x3FF6
  6638                           tablat	equ	0x3FF5
  6639                           prodh	equ	0x3FF4
  6640                           prodl	equ	0x3FF3
  6641                           indf0	equ	0x3FEF
  6642                           postinc0	equ	0x3FEE
  6643                           postdec0	equ	0x3FED
  6644                           preinc0	equ	0x3FEC
  6645                           plusw0	equ	0x3FEB
  6646                           fsr0h	equ	0x3FEA
  6647                           fsr0l	equ	0x3FE9
  6648                           wreg	equ	0x3FE8
  6649                           indf1	equ	0x3FE7
  6650                           postinc1	equ	0x3FE6
  6651                           postdec1	equ	0x3FE5
  6652                           preinc1	equ	0x3FE4
  6653                           plusw1	equ	0x3FE3
  6654                           fsr1h	equ	0x3FE2
  6655                           fsr1l	equ	0x3FE1
  6656                           bsr	equ	0x3FE0
  6657                           indf2	equ	0x3FDF
  6658                           postinc2	equ	0x3FDE
  6659                           postdec2	equ	0x3FDD
  6660                           preinc2	equ	0x3FDC
  6661                           plusw2	equ	0x3FDB
  6662                           fsr2h	equ	0x3FDA
  6663                           fsr2l	equ	0x3FD9
  6664                           status	equ	0x3FD8

Data Sizes:
    Strings     168
    Constant    0
    Data        8
    BSS         77
    Persistent  12
    Stack       0

Auto Spaces:
    Space          Size  Autos    Used
    COMRAM           95     94      95
    BANK0           160      8     104
    BANK1           256      0       0
    BANK2           256      0       0
    BANK3           256      0       0
    BANK4           256      0       0
    BANK5           256      0       0
    BANK6           256      0       0
    BANK7           256      0       0
    BANK8           256      0       0
    BANK9           256      0       0
    BANK10          256      0       0
    BANK11          256      0       0
    BANK12          256      0       0
    BANK13          256      0       0
    BANK14          256      0       0
    BANK15          256      0       0
    BANK16          256      0       0
    BANK17          256      0       0
    BANK18          256      0       0
    BANK19          256      0       0
    BANK20          256      0       0
    BANK21          256      0       0
    BANK22          256      0       0
    BANK23          256      0       0
    BANK24          256      0       0
    BANK25          256      0       0
    BANK26          256      0       0
    BANK27          256      0       0
    BANK28          256      0       0
    BANK29          256      0       0
    BANK30          256      0       0
    BANK31          256      0       0

Pointer List with Targets:

    strlen@s	PTR const unsigned char  size(2) Largest target is 32
		 -> dbuf(BANK0[32]), 

    strlen@a	PTR const unsigned char  size(2) Largest target is 32
		 -> dbuf(BANK0[32]), 

    fputs@s	PTR const unsigned char  size(2) Largest target is 32
		 -> dbuf(BANK0[32]), 

    fputs@fp	PTR struct _IO_FILE size(2) Largest target is 0
		 -> NULL(NULL[0]), 

    S1923_IO_FILE$buffer	PTR unsigned char  size(2) Largest target is 0

    fputc@fp.buffer	PTR unsigned char  size(2) Largest target is 0

    fputc@fp	PTR struct _IO_FILE size(2) Largest target is 0
		 -> NULL(NULL[0]), 

    vfprintf@ap	PTR PTR void  size(2) Largest target is 2
		 -> printf@ap(COMRAM[2]), 

    vfprintf@fp	PTR struct _IO_FILE size(2) Largest target is 0
		 -> NULL(NULL[0]), 

    vfprintf@fmt	PTR const unsigned char  size(2) Largest target is 62
		 -> STR_4(CODE[55]), STR_3(CODE[51]), STR_2(CODE[62]), STR_1(CODE[4]), 

    vfprintf@cfmt	PTR unsigned char  size(2) Largest target is 62
		 -> STR_4(CODE[55]), STR_3(CODE[51]), STR_2(CODE[62]), STR_1(CODE[4]), 

    vfpfcnvrt@fp	PTR struct _IO_FILE size(2) Largest target is 0
		 -> NULL(NULL[0]), 

    vfpfcnvrt@ap	PTR PTR void  size(2) Largest target is 2
		 -> printf@ap(COMRAM[2]), 

    vfpfcnvrt@fmt	PTR PTR unsigned char  size(2) Largest target is 2
		 -> vfprintf@cfmt(COMRAM[2]), 

    dtoa@fp	PTR struct _IO_FILE size(2) Largest target is 0
		 -> NULL(NULL[0]), 

    pad@fp	PTR struct _IO_FILE size(2) Largest target is 0
		 -> NULL(NULL[0]), 

    pad@buf	PTR unsigned char  size(2) Largest target is 32
		 -> dbuf(BANK0[32]), 

    printf@fmt	PTR const unsigned char  size(2) Largest target is 62
		 -> STR_4(CODE[55]), STR_3(CODE[51]), STR_2(CODE[62]), STR_1(CODE[4]), 

    printf@ap	PTR void [1] size(2) Largest target is 2
		 -> ?_printf(BANK0[2]), 

    INT0_SetInterruptHandler@InterruptHandler	PTR FTN()void  size(3) Largest target is 1
		 -> counterHall_callback(), INT0_DefaultInterruptHandler(), 

    INT0_InterruptHandler	PTR FTN()void  size(3) Largest target is 1
		 -> counterHall_callback(), INT0_DefaultInterruptHandler(), Absolute function(), 

    UART1_SetErrorHandler@interruptHandler	PTR FTN()void  size(3) Largest target is 1
		 -> UART1_DefaultErrorHandler(), 

    UART1_SetOverrunErrorHandler@interruptHandler	PTR FTN()void  size(3) Largest target is 1
		 -> UART1_DefaultOverrunErrorHandler(), 

    UART1_SetFramingErrorHandler@interruptHandler	PTR FTN()void  size(3) Largest target is 1
		 -> UART1_DefaultFramingErrorHandler(), 

    UART1_ErrorHandler	PTR FTN()void  size(3) Largest target is 1
		 -> Absolute function(), UART1_DefaultErrorHandler(), 

    UART1_OverrunErrorHandler	PTR FTN()void  size(3) Largest target is 1
		 -> Absolute function(), UART1_DefaultOverrunErrorHandler(), 

    UART1_FramingErrorHandler	PTR FTN()void  size(3) Largest target is 1
		 -> Absolute function(), UART1_DefaultFramingErrorHandler(), 


Critical Paths under _main in COMRAM

    _main->_printf
    _printf->_vfprintf
    _vfprintf->_vfpfcnvrt
    _vfpfcnvrt->_dtoa
    _dtoa->_pad
    _pad->_fputs
    _fputs->_fputc
    _fputc->_putch
    _putch->_UART1_Write
    _abs->___aomod
    ___fltol->___fladd
    ___fldiv->___xxtofl
    ___fladd->___fldiv
    _UART1_Initialize->_UART1_SetErrorHandler
    _UART1_Initialize->_UART1_SetFramingErrorHandler
    _UART1_Initialize->_UART1_SetOverrunErrorHandler
    _EXT_INT_Initialize->_INT0_SetInterruptHandler

Critical Paths under _INTERRUPT_InterruptManager in COMRAM

    None.

Critical Paths under _main in BANK0

    _main->_printf

Critical Paths under _INTERRUPT_InterruptManager in BANK0

    None.

Critical Paths under _main in BANK1

    None.

Critical Paths under _INTERRUPT_InterruptManager in BANK1

    None.

Critical Paths under _main in BANK2

    None.

Critical Paths under _INTERRUPT_InterruptManager in BANK2

    None.

Critical Paths under _main in BANK3

    None.

Critical Paths under _INTERRUPT_InterruptManager in BANK3

    None.

Critical Paths under _main in BANK4

    None.

Critical Paths under _INTERRUPT_InterruptManager in BANK4

    None.

Critical Paths under _main in BANK5

    None.

Critical Paths under _INTERRUPT_InterruptManager in BANK5

    None.

Critical Paths under _main in BANK6

    None.

Critical Paths under _INTERRUPT_InterruptManager in BANK6

    None.

Critical Paths under _main in BANK7

    None.

Critical Paths under _INTERRUPT_InterruptManager in BANK7

    None.

Critical Paths under _main in BANK8

    None.

Critical Paths under _INTERRUPT_InterruptManager in BANK8

    None.

Critical Paths under _main in BANK9

    None.

Critical Paths under _INTERRUPT_InterruptManager in BANK9

    None.

Critical Paths under _main in BANK10

    None.

Critical Paths under _INTERRUPT_InterruptManager in BANK10

    None.

Critical Paths under _main in BANK11

    None.

Critical Paths under _INTERRUPT_InterruptManager in BANK11

    None.

Critical Paths under _main in BANK12

    None.

Critical Paths under _INTERRUPT_InterruptManager in BANK12

    None.

Critical Paths under _main in BANK13

    None.

Critical Paths under _INTERRUPT_InterruptManager in BANK13

    None.

Critical Paths under _main in BANK14

    None.

Critical Paths under _INTERRUPT_InterruptManager in BANK14

    None.

Critical Paths under _main in BANK15

    None.

Critical Paths under _INTERRUPT_InterruptManager in BANK15

    None.

Critical Paths under _main in BANK16

    None.

Critical Paths under _INTERRUPT_InterruptManager in BANK16

    None.

Critical Paths under _main in BANK17

    None.

Critical Paths under _INTERRUPT_InterruptManager in BANK17

    None.

Critical Paths under _main in BANK18

    None.

Critical Paths under _INTERRUPT_InterruptManager in BANK18

    None.

Critical Paths under _main in BANK19

    None.

Critical Paths under _INTERRUPT_InterruptManager in BANK19

    None.

Critical Paths under _main in BANK20

    None.

Critical Paths under _INTERRUPT_InterruptManager in BANK20

    None.

Critical Paths under _main in BANK21

    None.

Critical Paths under _INTERRUPT_InterruptManager in BANK21

    None.

Critical Paths under _main in BANK22

    None.

Critical Paths under _INTERRUPT_InterruptManager in BANK22

    None.

Critical Paths under _main in BANK23

    None.

Critical Paths under _INTERRUPT_InterruptManager in BANK23

    None.

Critical Paths under _main in BANK24

    None.

Critical Paths under _INTERRUPT_InterruptManager in BANK24

    None.

Critical Paths under _main in BANK25

    None.

Critical Paths under _INTERRUPT_InterruptManager in BANK25

    None.

Critical Paths under _main in BANK26

    None.

Critical Paths under _INTERRUPT_InterruptManager in BANK26

    None.

Critical Paths under _main in BANK27

    None.

Critical Paths under _INTERRUPT_InterruptManager in BANK27

    None.

Critical Paths under _main in BANK28

    None.

Critical Paths under _INTERRUPT_InterruptManager in BANK28

    None.

Critical Paths under _main in BANK29

    None.

Critical Paths under _INTERRUPT_InterruptManager in BANK29

    None.

Critical Paths under _main in BANK30

    None.

Critical Paths under _INTERRUPT_InterruptManager in BANK30

    None.

Critical Paths under _main in BANK31

    None.

Critical Paths under _INTERRUPT_InterruptManager in BANK31

    None.

Call Graph Tables:

 ---------------------------------------------------------------------------------
 (Depth) Function   	        Calls       Base Space   Used Autos Params    Refs
 ---------------------------------------------------------------------------------
 (0) _main                                                 3     3      0   12441
                                             91 COMRAM     3     3      0
           _INT0_SetInterruptHandler
                  _SYSTEM_Initialize
                            ___fladd
                            ___fldiv
                            ___fltol
                           ___xxtofl
                             _printf
 ---------------------------------------------------------------------------------
 (1) _printf                                              12     4      8    6397
                                             89 COMRAM     2     2      0
                                              0 BANK0      8     0      8
                           _vfprintf
 ---------------------------------------------------------------------------------
 (2) _vfprintf                                             8     2      6    6039
                                             81 COMRAM     8     2      6
                          _vfpfcnvrt
 ---------------------------------------------------------------------------------
 (3) _vfpfcnvrt                                           42    36      6    5685
                                             65 COMRAM    16    10      6
                               _dtoa
                              _fputc
 ---------------------------------------------------------------------------------
 (4) _dtoa                                                36    26     10    4314
                                             29 COMRAM    36    26     10
                            ___aodiv
                            ___aomod
                                _abs
                                _pad
 ---------------------------------------------------------------------------------
 (5) _pad                                                 11     5      6    2665
                                             18 COMRAM    11     5      6
                              _fputc
                              _fputs
                             _strlen
 ---------------------------------------------------------------------------------
 (6) _strlen                                               4     2      2     166
                                              0 COMRAM     4     2      2
 ---------------------------------------------------------------------------------
 (6) _fputs                                                7     3      4    1213
                                             11 COMRAM     7     3      4
                              _fputc
 ---------------------------------------------------------------------------------
 (4) _fputc                                                9     5      4     812
                                              2 COMRAM     9     5      4
                              _putch
 ---------------------------------------------------------------------------------
 (5) _putch                                                1     1      0      44
                                              1 COMRAM     1     1      0
                        _UART1_Write
 ---------------------------------------------------------------------------------
 (6) _UART1_Write                                          1     1      0      22
                                              0 COMRAM     1     1      0
 ---------------------------------------------------------------------------------
 (5) _abs                                                  4     2      2     142
                                             18 COMRAM     4     2      2
                            ___aomod (ARG)
 ---------------------------------------------------------------------------------
 (5) ___aomod                                             18     2     16     448
                                              0 COMRAM    18     2     16
 ---------------------------------------------------------------------------------
 (5) ___aodiv                                             26    10     16     452
                                              0 COMRAM    26    10     16
 ---------------------------------------------------------------------------------
 (1) ___xxtofl                                            14    10      4     550
                                              0 COMRAM    14    10      4
 ---------------------------------------------------------------------------------
 (1) ___fltol                                             10     6      4     457
                                             55 COMRAM    10     6      4
                            ___fladd (ARG)
                            ___fldiv (ARG)
                           ___xxtofl (ARG)
 ---------------------------------------------------------------------------------
 (1) ___fldiv                                             25    17      8    1703
                                             14 COMRAM    25    17      8
                           ___xxtofl (ARG)
 ---------------------------------------------------------------------------------
 (1) ___fladd                                             16     8      8    2692
                                             39 COMRAM    16     8      8
                            ___fldiv (ARG)
                           ___xxtofl (ARG)
 ---------------------------------------------------------------------------------
 (1) _SYSTEM_Initialize                                    0     0      0     468
                 _EXT_INT_Initialize
               _INTERRUPT_Initialize
              _OSCILLATOR_Initialize
             _PIN_MANAGER_Initialize
                     _PMD_Initialize
                    _SMT1_Initialize
                    _TMR2_Initialize
                    _TMR4_Initialize
                   _UART1_Initialize
 ---------------------------------------------------------------------------------
 (2) _UART1_Initialize                                     0     0      0     294
              _UART1_SetErrorHandler
       _UART1_SetFramingErrorHandler
       _UART1_SetOverrunErrorHandler
 ---------------------------------------------------------------------------------
 (3) _UART1_SetOverrunErrorHandler                         3     0      3      98
                                              0 COMRAM     3     0      3
 ---------------------------------------------------------------------------------
 (3) _UART1_SetFramingErrorHandler                         3     0      3      98
                                              0 COMRAM     3     0      3
 ---------------------------------------------------------------------------------
 (3) _UART1_SetErrorHandler                                3     0      3      98
                                              0 COMRAM     3     0      3
 ---------------------------------------------------------------------------------
 (2) _TMR4_Initialize                                      0     0      0       0
 ---------------------------------------------------------------------------------
 (2) _TMR2_Initialize                                      0     0      0       0
 ---------------------------------------------------------------------------------
 (2) _SMT1_Initialize                                      0     0      0       0
 ---------------------------------------------------------------------------------
 (2) _PMD_Initialize                                       0     0      0       0
 ---------------------------------------------------------------------------------
 (2) _PIN_MANAGER_Initialize                               0     0      0       0
 ---------------------------------------------------------------------------------
 (2) _OSCILLATOR_Initialize                                0     0      0       0
 ---------------------------------------------------------------------------------
 (2) _INTERRUPT_Initialize                                 0     0      0       0
 ---------------------------------------------------------------------------------
 (2) _EXT_INT_Initialize                                   0     0      0     174
           _INT0_SetInterruptHandler
 ---------------------------------------------------------------------------------
 (3) _INT0_SetInterruptHandler                             3     0      3     174
                                              0 COMRAM     3     0      3
 ---------------------------------------------------------------------------------
 Estimated maximum stack depth 6
 ---------------------------------------------------------------------------------
 (Depth) Function   	        Calls       Base Space   Used Autos Params    Refs
 ---------------------------------------------------------------------------------
 (10) _INTERRUPT_InterruptManager                          0     0      0       0
                           _INT0_ISR
                    _SMT1_PR_ACQ_ISR
                    _SMT1_PW_ACQ_ISR
 ---------------------------------------------------------------------------------
 (11) _SMT1_PW_ACQ_ISR                                     0     0      0       0
 ---------------------------------------------------------------------------------
 (11) _SMT1_PR_ACQ_ISR                                     0     0      0       0
 ---------------------------------------------------------------------------------
 (11) _INT0_ISR                                            0     0      0       0
                      _INT0_CallBack
 ---------------------------------------------------------------------------------
 (12) _INT0_CallBack                                       0     0      0       0
                   Absolute function *
       _INT0_DefaultInterruptHandler *
               _counterHall_callback *
 ---------------------------------------------------------------------------------
 (13) _counterHall_callback                                0     0      0       0
 ---------------------------------------------------------------------------------
 (13) _INT0_DefaultInterruptHandler                        0     0      0       0
 ---------------------------------------------------------------------------------
 (13) Absolute function(Fake)                              0     0      0       0
 ---------------------------------------------------------------------------------
 Estimated maximum stack depth 13
 ---------------------------------------------------------------------------------

 Call Graph Graphs:

 _main (ROOT)
   _INT0_SetInterruptHandler
   _SYSTEM_Initialize
     _EXT_INT_Initialize
       _INT0_SetInterruptHandler
     _INTERRUPT_Initialize
     _OSCILLATOR_Initialize
     _PIN_MANAGER_Initialize
     _PMD_Initialize
     _SMT1_Initialize
     _TMR2_Initialize
     _TMR4_Initialize
     _UART1_Initialize
       _UART1_SetErrorHandler
       _UART1_SetFramingErrorHandler
       _UART1_SetOverrunErrorHandler
   ___fladd
     ___fldiv (ARG)
       ___xxtofl (ARG)
     ___xxtofl (ARG)
   ___fldiv
   ___fltol
     ___fladd (ARG)
     ___fldiv (ARG)
     ___xxtofl (ARG)
   ___xxtofl
   _printf
     _vfprintf
       _vfpfcnvrt
         _dtoa
           ___aodiv
           ___aomod
           _abs
             ___aomod (ARG)
           _pad
             _fputc
               _putch
                 _UART1_Write
             _fputs
               _fputc
             _strlen
         _fputc

 _INTERRUPT_InterruptManager (ROOT)
   _INT0_ISR
     _INT0_CallBack
       Absolute function(Fake) *
       _INT0_DefaultInterruptHandler *
       _counterHall_callback *
   _SMT1_PR_ACQ_ISR
   _SMT1_PW_ACQ_ISR

 Address spaces:
Name               Size   Autos  Total    Cost      Usage
BIGRAM            1FFF      0       0      69        0.0%
EEDATA             400      0       0       0        0.0%
BITBANK31          100      0       0      67        0.0%
BANK31             100      0       0      68        0.0%
BITBANK30          100      0       0      65        0.0%
BANK30             100      0       0      66        0.0%
BITBANK29          100      0       0      63        0.0%
BANK29             100      0       0      64        0.0%
BITBANK28          100      0       0      61        0.0%
BANK28             100      0       0      62        0.0%
BITBANK27          100      0       0      59        0.0%
BANK27             100      0       0      60        0.0%
BITBANK26          100      0       0      56        0.0%
BANK26             100      0       0      57        0.0%
BITBANK25          100      0       0      54        0.0%
BANK25             100      0       0      55        0.0%
BITBANK24          100      0       0      52        0.0%
BANK24             100      0       0      53        0.0%
BITBANK23          100      0       0      50        0.0%
BANK23             100      0       0      51        0.0%
BITBANK22          100      0       0      48        0.0%
BANK22             100      0       0      49        0.0%
BITBANK21          100      0       0      46        0.0%
BANK21             100      0       0      47        0.0%
BITBANK20          100      0       0      44        0.0%
BANK20             100      0       0      45        0.0%
BITBANK19          100      0       0      42        0.0%
BANK19             100      0       0      43        0.0%
BITBANK18          100      0       0      40        0.0%
BANK18             100      0       0      41        0.0%
BITBANK17          100      0       0      38        0.0%
BANK17             100      0       0      39        0.0%
BITBANK16          100      0       0      36        0.0%
BANK16             100      0       0      37        0.0%
BITBANK15          100      0       0      34        0.0%
BANK15             100      0       0      35        0.0%
BITBANK14          100      0       0      32        0.0%
BANK14             100      0       0      33        0.0%
BITBANK13          100      0       0      30        0.0%
BANK13             100      0       0      31        0.0%
BITBANK12          100      0       0      28        0.0%
BANK12             100      0       0      29        0.0%
BITBANK11          100      0       0      26        0.0%
BANK11             100      0       0      27        0.0%
BITBANK10          100      0       0      24        0.0%
BANK10             100      0       0      25        0.0%
BITBANK9           100      0       0      22        0.0%
BANK9              100      0       0      23        0.0%
BITBANK8           100      0       0      20        0.0%
BANK8              100      0       0      21        0.0%
BITBANK7           100      0       0      18        0.0%
BANK7              100      0       0      19        0.0%
BITBANK6           100      0       0      16        0.0%
BANK6              100      0       0      17        0.0%
BITBANK5           100      0       0      14        0.0%
BANK5              100      0       0      15        0.0%
BITBANK4           100      0       0      12        0.0%
BANK4              100      0       0      13        0.0%
BITBANK3           100      0       0      10        0.0%
BANK3              100      0       0      11        0.0%
BITBANK2           100      0       0       8        0.0%
BANK2              100      0       0       9        0.0%
BITBANK1           100      0       0       6        0.0%
BANK1              100      0       0       7        0.0%
BITBANK0            A0      0       0       4        0.0%
BANK0               A0      8      68       5       65.0%
BITCOMRAM           5F      0       0       0        0.0%
COMRAM              5F     5E      5F       1      100.0%
BITSFR_8             0      0       0     200        0.0%
SFR_8                0      0       0     200        0.0%
BITSFR_7             0      0       0     200        0.0%
SFR_7                0      0       0     200        0.0%
BITSFR_6             0      0       0     200        0.0%
SFR_6                0      0       0     200        0.0%
BITSFR_5             0      0       0     200        0.0%
SFR_5                0      0       0     200        0.0%
BITSFR_4             0      0       0     200        0.0%
SFR_4                0      0       0     200        0.0%
BITSFR_3             0      0       0     200        0.0%
SFR_3                0      0       0     200        0.0%
BITSFR_2             0      0       0     200        0.0%
SFR_2                0      0       0     200        0.0%
BITSFR_1             0      0       0     200        0.0%
SFR_1                0      0       0     200        0.0%
BITSFR               0      0       0     200        0.0%
SFR                  0      0       0     200        0.0%
STACK                0      0       0       2        0.0%
NULL                 0      0       0       0        0.0%
ABS                  0      0      C7      58        0.0%
DATA                 0      0      C7       3        0.0%
CODE                 0      0       0       0        0.0%


Microchip Technology PIC18 Macro Assembler V2.32 build 20210201212658 
Symbol Table                                                                                   Thu Aug 26 08:57:53 2021

                                ___fldiv@aexp 0027                                  ___fldiv@bexp 0026  
                                ___fldiv@sign 001F                                            l95 39AC  
                                         l241 3DEC                                           l137 3CC2  
                                         l307 3AB6                                           l244 3D64  
                                         l413 3D82                                           l333 3DBE  
                                         l238 3D40                                           l342 3E3E  
                                         l360 3E26                                           l336 3DD4  
                                         l506 3D9E                                           l354 3E18  
                                         l357 3E0A                                           l375 3E60  
                                         l473 3E34                                           l479 3DBA  
                                         l770 373A                                           l940 3840  
                                         l757 35D6                                           _PR2 003FAB  
                                         _PR4 003F9F                    ??_INT0_SetInterruptHandler 0004  
                                         _abs 3C18                                           _pad 3842  
                     __size_of_PMD_Initialize 0024                               _TMR2_Initialize 3D66  
                                         tosl 003FFD                                           wreg 003FE8  
                               _INT0_CallBack 3CC4                                  ___fltol@exp1 0041  
                                        ?_abs 0013                                          l1301 344E  
                                        l1230 2BC6                                          l1312 33E6  
                                        l1400 3C56                                          l3000 3088  
                                        l1225 2DA2                                          l1305 338A  
                                        l1321 3D1A                                          l3010 3110  
                                        l3002 30B8                                          l1171 2298  
                                        l1227 2C02                                          l3100 3A92  
                                        l1180 2568                                          l1172 2286  
                                        l1236 2C48                                          l1412 3A42  
                                        l1420 3BD4                                          l3020 3204  
                                        l3012 3140                                          l3004 30CA  
                                        l1173 224C                                          l3102 3AA2  
                                        l1238 2CC0                                          l3030 3248  
                                        l3022 3216                                          l3014 319C  
                                        l3006 30DC                                          l3110 3B28  
                                        l1239 2CAE                                          l1351 38CA  
                                        l3104 3AB2                                          l3120 3D20  
                                        l3200 2140                                          l3024 322A  
                                        l3008 30E0                                          l3112 3B30  
                                        l1353 3906                                          l1361 2E4C  
                                        l3050 3980                                          l3042 3908  
                                        l3130 3D34                                          l3122 3D24  
                                        l3202 2150                                          l3210 217A  
                                        l1426 3C90                                          l3018 31D4  
                                        l3034 3254                                          l3114 3B3E  
                                        l3060 398E                                          l3052 3982  
                                        l3044 3928                                          l3132 3D38  
                                        l3124 3D28                                          l1188 23B2  
                                        l3300 2382                                          l3220 21B2  
                                        l3212 218A                                          l3204 2160  
                                        l1348 3888                                          l3036 3284  
                                        l3028 3236                                          l3116 3B64  
                                        l1197 2482                                          l3062 3990  
                                        l3054 3984                                          l3046 392A  
                                        l3070 3CBC                                          l3134 3D3C  
                                        l3126 3D2C                                          l3118 3D1C  
                                        l1198 2470                                          l3302 2392  
                                        l3230 21C6                                          l3222 21B6  
                                        l3214 219C                                          l3206 2170  
                                        l1359 2E44                                          l3064 3992  
                                        l3056 3986                                          l3048 392C  
                                        l3072 3CBE                                          l3080 3D84  
                                        l3128 3D30                                          l3320 2414  
                                        l3312 23EC                                          l3304 23A2  
                                        l3240 21DA                                          l3232 21CA  
                                        l3224 21BA                                          l3216 21AA  
                                        l3208 2172                                          l3400 2A9C  
                                        l1392 3B88                                          l1393 3B90  
                                        l3090 3DA0                                          l3074 3E5E  
                                        l3058 398C                                          l3066 3C92  
                                        l3082 3D90                                          l3322 241C  
                                        l3314 23F6                                          l3306 23C8  
                                        l3330 2440                                          l3250 21EE  
                                        l3242 21DE                                          l3234 21CE  
                                        l3226 21BE                                          l3218 21AE  
                                        l3170 20AA                                          l3410 2AD6  
                                        l3402 2AAC                                          l1298 32F2  
                                        l1386 329A                                          l1379 3086  
                                        l3092 3DA6                                          l3076 3D42  
                                        l3068 3CB8                                          l3084 3D96  
                                        l3340 2492                                          l3332 2444  
                                        l3324 2420                                          l3316 2404  
                                        l3308 23D8                                          l3260 2266  
                                        l3252 2218                                          l3244 21E2  
                                        l3236 21D2                                          l3228 21C2  
                                        l3180 20E6                                          l3172 20B6  
                                        l3500 2D96                                          l3412 2AEC  
                                        l3404 2ABC                                          l3164 3CF6  
                                        l1397 3C4E                                          l3094 3DB6  
                                        l3078 3DD6                                          l3086 3D66  
                                        l3350 24F8                                          l3342 249E  
                                        l3334 2452                                          l3326 2430  
                                        l3318 2406                                          l3270 22A6  
                                        l3262 226A                                          l3254 2234  
                                        l3246 21E6                                          l3238 21D6  
                                        l3190 2116                                          l3182 20F6  
                                        l3174 20C4                                          l3502 2D98  
                                        l3430 2B40                                          l3414 2AFC  
                                        l3422 2B1C                                          l3406 2ABE  
                                        l3510 373C                                          l3166 3CFE  
                                        l3088 3D7A                                          l3096 3A44  
                                        l3360 2540                                          l3352 2508  
                                        l3344 24AC                                          l3336 2468  
                                        l3328 2432                                          l3280 22E8  
                                        l3272 22B6                                          l3264 2278  
                                        l3256 2244                                          l3248 21EA  
                                        l3192 2128                                          l3184 20F8  
                                        l3176 20C6                                          l3440 2B92  
                                        l3432 2B5A                                          l3424 2B2C  
                                        l3416 2B04                                          l3408 2AC6  
                                        l3520 3792                                          l3512 3752  
                                        l2800 3A30                                          l3098 3A82  
                                        l3362 2542                                          l3354 2528  
                                        l3346 24E6                                          l3290 2316  
                                        l3282 22F6                                          l3266 227A  
                                        l3258 225A                                          l3194 212A  
                                        l3178 20D6                                          l3186 2100  
                                        l3450 2BEE                                          l3442 2BA2  
                                        l3434 2B6A                                          l3426 2B2C  
                                        l3418 2B08                                          l3522 37A2  
                                        l2810 3BB4                                          l3364 2548  
                                        l3356 252C                                          l3348 24E8  
                                        l3292 2320                                          l3284 2302  
                                        l3276 22CA                                          l3268 2284  
                                        l3196 2130                                          l3188 2110  
                                        l3460 2C2E                                          l3452 2BF0  
                                        l3444 2BB6                                          l3436 2B7A  
                                        l3380 2A36                                          l3372 2A0A  
                                        l3532 37CC                                          l3524 37A6  
                                        l3516 3766                                          l2804 3B92  
                                        l2812 3C58                                          l3700 2958  
                                        l3620 257E                                          l3366 2556  
                                        l3358 253A                                          l3286 2306  
                                        l3278 22DA                                          l3294 2326  
                                        l3198 213E                                          l3470 2C6A  
                                        l3462 2C38                                          l3454 2C00  
                                        l3446 2BC4                                          l3438 2B8A  
                                        l3390 2A70                                          l3382 2A46  
                                        l3374 2A16                                          l3550 3830  
                                        l3542 37F4                                          l3534 37D6  
                                        l3526 37B4                                          l3518 3790  
                                        l2830 3486                                          l2822 3450  
                                        l2806 3B9E                                          l2814 3C64  
                                        l2910 3880                                          l2902 3842  
                                        l3710 29CE                                          l3702 2976  
                                        l3630 2594                                          l3622 2580  
                                        l3368 2558                                          l3296 234C  
                                        l3288 2314                                          l3480 2CDC  
                                        l3472 2C78                                          l3464 2C46  
                                        l3456 2C12                                          l3448 2BD0  
                                        l3392 2A76                                          l3384 2A56  
                                        l3376 2A24                                          l3544 3800  
                                        l3536 37E0                                          l3560 3302  
                                        l2840 34E2                                          l2832 3494  
                                        l2824 3454                                          l2808 3BB0  
                                        l2816 3C68                                          l2920 38EE  
                                        l2912 3894                                          l2904 3852  
                                        l3712 29F2                                          l3704 29A4  
                                        l3640 25E0                                          l3632 2596  
                                        l3624 258E                                          l3298 2380  
                                        l3490 2D48                                          l3482 2CEA  
                                        l3474 2CA6                                          l3458 2C28  
                                        l3466 2C58                                          l3394 2A7C  
                                        l3386 2A58                                          l3378 2A26  
                                        l3546 3810                                          l3570 3340  
                                        l3562 3318                                          l3554 329E  
                                        l2850 354C                                          l2842 34EA  
                                        l2834 34B4                                          l2826 3462  
                                        l2818 3C84                                          l2914 38A8  
                                        l2906 3866                                          l2930 2DC4  
                                        l3706 29AC                                          l3650 2634  
                                        l3634 25A4                                          l3626 2590  
                                        l3618 256A                                          l3492 2D62  
                                        l3484 2D14                                          l3468 2C66  
                                        l3396 2A8A                                          l3388 2A60  
                                        l3548 3820                                          l3580 33C8  
                                        l3572 3372                                          l3556 32AE  
                                        l2860 3596                                          l2852 356C  
                                        l2844 34FE                                          l2836 34B8  
                                        l2828 3482                                          l2924 3C18  
                                        l2916 38AC                                          l2908 3874  
                                        l2940 2E38                                          l2932 2DEC  
                                        l3708 29C6                                          l3660 26D2  
                                        l3652 2642                                          l3636 25B2  
                                        l3628 2592                                          l3494 2D7E  
                                        l3478 2CD0                                          l3486 2D18  
                                        l3398 2A8C                                          l3590 341E  
                                        l3582 33D6                                          l3574 3374  
                                        l3566 332C                                          l3558 32BC  
                                        l2862 35B6                                          l2854 356E  
                                        l2846 350C                                          l2838 34C4  
                                        l2870 35EA                                          l2926 3C32  
                                        l2790 39AE                                          l2918 38DA  
                                        l2950 2E82                                          l2942 2E54  
                                        l2934 2E0C                                          l3670 26E6  
                                        l3638 25C4                                          l3646 25F2  
                                        ?_pad 0013                                          l3496 2D82  
                                        l3488 2D32                                          l3592 342E  
                                        l3584 33F4                                          l3576 3380  
                                        l3568 3334                                          l2856 3580  
                                        l2848 351E                                          l2880 365A  
                                        l2872 360A                                          l2784 3DBE  
                                        l2792 39C0                                          l2960 2F1E  
                                        l2952 2E8A                                          l2944 2E66  
                                        l2936 2E1C                                          l2928 2DA4  
                                        l3840 28B8                                          l3680 2894  
                                        l3672 2764                                          l3648 2626  
                                        l3656 2650                                          l3498 2D90  
                                        l3594 343C                                          l3586 33F6  
                                        l3578 33BC                                          l2858 3586  
                                        l2890 36D2                                          l2882 3662  
                                        l2874 360E                                          l2866 35D8  
                                        l2786 3DCE                                          l2794 39D2  
                                        l2970 2FEE                                          l2954 2E90  
                                        l2962 2F82                                          l2946 2E74  
                                        l2938 2E1E                                          l3842 2916  
                                        l3690 28F2                                          l3674 27E2  
                                        l3658 2684                                          l3834 2608  
                                        l3596 343E                                          l3588 33FA  
                                        l2892 36E4                                          l2884 3676  
                                        l2876 361C                                          l2868 35DC  
                                        l2788 3E38                                          l2796 39DC  
                                        l2980 3038                                          l2964 2F9C  
                                        l2972 2FFE                                          l2956 2F12  
                                        l2948 2E7A                                          l3684 28A2  
                                        l3668 26DA                                          l3836 2666  
                                        l2990 3E0C                                          l2886 3684  
                                        l2894 36EA                                          l2878 363C  
                                        l2798 39FA                                          l2982 3044  
                                        l2974 3010                                          l2966 2FBA  
                                        l2958 2F18                                          l3686 28D6  
                                        l3694 2900                                          l3838 2876  
                                        l3678 2860                                          l2992 3DFE  
                                        l2896 36FA                                          l2888 36B2  
                                        l2984 304C                                          l2976 3020  
                                        l2968 2FD4                                          l3688 28E4  
                                        l3696 2934                                          l2994 3E1A  
                                        l2898 371A                                          l2978 3026  
                                        l2986 305E                                          l3698 2950  
                                        l2996 3E28                                          STR_1 20A5  
                                        STR_2 2001                                          STR_3 2076  
                                        STR_4 203F                                          u2100 2160  
                                        u2101 215C                                          u2110 219C  
                                        u2111 2198                                          u2200 22B6  
                                        u2120 21AA                                          u2040 20C4  
                                        u2201 22B2                                          u2121 21A6  
                                        u2041 20C0                                          u2210 22E8  
                                        u2130 2218                                          u2050 20D6  
                                        u2211 22E4                                          u2131 2214  
                                        u2051 20D2                                          u2300 2430  
                                        u2220 22F6                                          u2140 2230  
                                        u2060 20E6                                          u1500 3DCE  
                                        u2301 242C                                          u2221 22F2  
                                        u2141 222A                                          u2061 20E2  
                                        u1501 3DCA                                          _LATA 003FBA  
                                        u2310 2440                                          u2230 2314  
                                        u2150 2232                                          u2070 2128  
                                        u1510 39C0                                          _LATB 003FBB  
                                        u2311 243C                                          u2231 2310  
                                        u2071 2124                                          u1511 39BC  
                                        _LATC 003FBC                                          u2400 2528  
                                        u2320 2452                                          u2240 234C  
                                        u2160 225A                                          u2080 213E  
                                        u1600 34E2                                          u1520 39D2  
                                        _LATD 003FBD                                          u2401 2524  
                                        u2321 244E                                          u2241 2348  
                                        u2161 2256                                          u2081 213A  
                                        u1601 34DE                                          u1521 39CE  
                                        _LATE 003FBE                                          u2410 253A  
                                        u2330 2468                                          u2250 2392  
                                        u2170 2278                                          u2090 2150  
                                        u1610 350C                                          u1530 39FA  
                                        u2411 2536                                          u2331 2464  
                                        u2251 238E                                          u2171 2274  
                                        u2091 214C                                          u1611 3508  
                                        u1531 39F6                                          u2420 2556  
                                        u2340 247E                                          u2260 23C8  
                                        u2180 2298                                          u2500 2B2C  
                                        u1620 354C                                          u1540 3A30  
                                        u1700 3852                                          u2421 2552  
                                        u2341 247A                                          u2261 23C4  
                                        u2181 2294                                          u2501 2B28  
                                        u1621 3548                                          u1541 3A2C  
                                        u1701 384E                                          u2350 2492  
                                        u2270 23D8                                          u2190 22A6  
                                        u2510 2BA2                                          u2430 2A24  
                                        u1630 3596                                          u1550 3BD4  
                                        u1710 3874                                          u2351 248E  
                                        u2271 23D4                                          u2191 22A2  
                                        u2511 2B9E                                          u2431 2A20  
                                        u1631 3592                                          u1551 3BD0  
                                        u1711 3870                                          u2360 24AC  
                                        u2280 2404                                          u2600 2CBC  
                                        u2520 2BC4                                          u2440 2A36  
                                        u1640 35EA                                          u1560 3C84  
                                        u1720 38CA                                          u1800 2E66  
                                        u2361 24A8                                          u2281 2400  
                                        u2601 2CB8                                          u2521 2BC0  
                                        u2441 2A32                                          u1641 35E6  
                                        u1561 3C80                                          u1721 38C6  
                                        u1801 2E62                                          u2370 24E6  
                                        u2290 2414                                          u2610 2CD0  
                                        u2530 2BEE                                          u2450 2A46  
                                        u1570 3462                                          u1650 361C  
                                        u1730 38DA                                          u1810 2E74  
                                        _T2PR 003FAB                                          u2371 24E2  
                                        u2291 2410                                          u2611 2CCC  
                                        u2531 2BEA                                          u2451 2A42  
                                        u1571 345E                                          u1651 3618  
                                        u1731 38D6                                          u1811 2E70  
                                        u2380 24F8                                          u2620 2CEA  
                                        u2540 2C12                                          u2460 2A8A  
                                        u2700 37F0                                          u1580 3494  
                                        u1660 365A                                          u1740 3C32  
                                        u1820 2F9C                                          u1900 30B8  
                                        u2381 24F4                                          u2621 2CE6  
                                        u2541 2C0E                                          u2461 2A86  
                                        u2701 37EC                                          u1581 3490  
                                        u1661 3656                                          u1741 3C2E  
                                        u1821 2F98                                          u1901 30B4  
                                        u2390 2508                                          u2630 2D32  
                                        u2550 2C28                                          u2470 2A9C  
                                        u2710 3810                                          u1670 3684  
                                        u1830 2FBA                                          u1750 2DD4  
                                        u1910 3110                                          u2391 2504  
                                        u2631 2D2E                                          u2551 2C24  
                                        u2471 2A98                                          u2711 380C  
                                        u1591 34BE                                          u1671 3680  
                                        u1831 2FB6                                          u1751 2DCE  
                                        u1911 310C                                          u2640 2D62  
                                        u2560 2C46                                          u2480 2AAC  
                                        u2720 3820                                          u2800 33F4  
                                        u1680 36B2                                          u1840 2FD4  
                                        u1760 2DD6                                          u1920 3140  
                                        u2641 2D5E                                          u2561 2C42  
                                        u2481 2AA8                                          u2721 381C  
                                        u2801 33F0                                          u1681 36AE  
                                        u1841 2FD0                                          u1921 313C  
                                        u2650 2D90                                          u2570 2C66  
                                        u2490 2AEC                                          u2810 342E  
                                        u2730 32AE                                          u1690 36FA  
                                        u1850 2FEE                                          u1770 2DEC  
                                        u1930 3204                                          _T4PR 003F9F  
                                        u2651 2D8C                                          u2571 2C62  
                                        u2491 2AE8                                          u2811 342A  
                                        u2731 32AA                                          u1691 36F6  
                                        u1851 2FEA                                          u1771 2DE8  
                                        u1931 3200                                          u2580 2C78  
                                        u2660 3752                                          u2820 343C  
                                        u2740 32BC                                          u1860 2FFE  
                                        u1780 2E1C                                          u2900 2976  
                                        u2581 2C74                                          u2661 374E  
                                        u2821 3438                                          u2741 32B8  
                                        u1861 2FFA                                          u1781 2E18  
                                        u2901 2972                                          u2590 2CA6  
                                        u2670 3786                                          u2750 3318  
                                        u1870 3010                                          u1790 2E38  
                                        u2910 29A4                                          u2591 2CA2  
                                        u2751 3314                                          u1871 300C  
                                        u1791 2E34                                          u2911 29A0  
                                        u2680 37B4                                          u2760 336E  
                                        u1880 3020                                          u1960 3B88  
                                        u2920 29C6                                          u2681 37B0  
                                        u2761 336A                                          u1881 301C  
                                        u1961 3B84                                          u2921 29C2  
                                        u2690 37C8                                          u2770 33B8  
                                        u1890 3038                                          u2691 37C4  
                                        u2675 377C                                          u2771 33B4  
                                        u1891 3034                                          u2780 33D6  
                                        _PMD0 0039C0                                          u2781 33D2  
                                        _PMD1 0039C1                                          u2790 33E6  
                                        _PMD2 0039C2                                          u2791 33E2  
                                        _PMD3 0039C3                                          _PMD4 0039C4  
                                        u2937 2586                                          _PMD5 0039C5  
                                        u2890 2950                                          _PMD6 0039C6  
                                        u2891 294C                                          u2947 25CE  
                                        _PMD7 0039C7                                          u2957 25E6  
                                        u2967 29F8                                          _TMR2 003FAA  
                                        _TMR4 003F9E                                          _WPUA 003A41  
                                        _WPUB 003A51                                          _WPUC 003A61  
                                        _WPUD 003A71                                          _WPUE 003A81  
                                        _band 0088                                          abs@a 0013  
                                        _dbuf 008C                                          _main 256A  
                                        _dtoa 2DA4                                          _mody 008A  
                                        _prec 0078                                          _nout 0074  
                                        pad@i 001A                                          pad@p 0017  
                                        fsr1h 003FE2                                          fsr2h 003FDA  
                                        indf2 003FDF                                          fsr1l 003FE1  
                                        pad@w 001C                                          fsr2l 003FD9  
                                        start 001A                               ___fldiv@new_exp 0020  
                                ___param_bank 000000                                         ??_abs 0015  
                                       ??_pad 0019                              __end_of_INT0_ISR 3E4A  
              __size_of_OSCILLATOR_Initialize 0018                 __end_of_OSCILLATOR_Initialize 3DEE  
                               ___fltol@sign1 0040                               __end_of___aodiv 35D8  
                             __end_of___fladd 256A                                         ?_main 0001  
                                       ?_dtoa 001E                               __end_of___aomod 373C  
                             __end_of___fldiv 2DA4                               __end_of___fltol 3842  
                                       _U1P1H 003DED                                         _U1P2H 003DEF  
                                       _U1P1L 003DEC                                         _U1P3H 003DF1  
                                       _T2CON 003FAC                                         _U1P2L 003DEE  
                                       _U1P3L 003DF0                                         _T4CON 003FA0  
                                       _T2HLT 003FAD                                         _T4HLT 003FA1  
                                       _T2TMR 003FAA                                         _U1UIR 003DF8  
                                       _T2RST 003FAF                                         _U1RXB 003DE8  
                                       _U1TXB 003DEA                                         _T4TMR 003F9E  
                                       _T4RST 003FA3                                         i2l191 3E56  
                                       i2l601 3DFC                                         i2l188 3E5C  
                                       i2l380 3ADE                                         i2l470 3CF4  
                                       i2l382 3B02                                         i2l383 3B26  
                                       i2l466 3E48                                         i2l386 3B26  
                                       i2l476 3E62                                         _OSCEN 0039DD  
                                vfpfcnvrt@fmt 0044                                         _TRISA 003FC2  
                                       _TRISB 003FC3                                ?_INT0_CallBack 0001  
                                       _TRISC 003FC4                                         _TRISD 003FC5  
                                       _TRISE 003FC6                               _TMR4_Initialize 3D84  
                                       _Timer 0060                                         _Width 00B8  
                                       _flags 007A                                         _count 007E  
                                       _fputc 39AE                                         _fputs 3B92  
                                       pad@fp 0013                                         _width 0076  
                                       _state 0082                                         _putch 3E36  
                                       dtoa@d 0020                                         dtoa@i 0040  
                                       dtoa@n 0038                                         dtoa@p 0032  
                                       dtoa@s 0036                                         dtoa@w 0034  
                            ?_SMT1_Initialize 0001                                         pclath 003FFA  
                                       tablat 003FF5                                         status 003FD8  
            _UART1_DefaultFramingErrorHandler 000000                               __initialization 3BD6  
                                __end_of_main 2A0A                                  __end_of_dtoa 3088  
                     __end_of_TMR2_Initialize 3D84                   ?_INTERRUPT_InterruptManager 0001  
                                ?_UART1_Write 0001                                        ??_main 005C  
                                      ??_dtoa 0028                                 __activetblptr 000003  
                            _UART1_Initialize 3A44                                        ?_fputc 0003  
                                      ?_fputs 000C                                        _ANSELA 003A40  
                                      ?_putch 0001                                        _ANSELB 003A50  
                                      _ANSELC 003A60                                        _ANSELD 003A70  
                                      _ANSELE 003A80                                        _RB1I2C 003A5A  
                                      _RB2I2C 003A5B                                        _RD0I2C 003A7A  
                                      _U1CON0 003DF2                                        _U1CON1 003DF3  
                                      _U1CON2 003DF4                                        _RC3I2C 003A6A  
                                      _RD1I2C 003A7B                                        _RC4I2C 003A6B  
                                      _U1BRGH 003DF6                                        _U1FIFO 003DF7  
                                      _U1BRGL 003DF5                                        _RB2PPS 003A0A  
                                      _ODCONA 003A42                                        _ODCONB 003A52  
                                      _ODCONC 003A62                                        _ODCOND 003A72  
                                      _ODCONE 003A82                                        i2l3106 3CC4  
                                      i2l3108 3CDA                                        i2l3160 3E40  
                                      i2l3162 3E44                                        i2l1762 3E58  
                                      i2l3610 3AEC                                        i2l1764 3E52  
                                      i2l3612 3AFA                                        i2l3604 3AB8  
                                      i2l3614 3B10                                        i2l3606 3AC8  
                                      i2l3616 3B1E                                        i2l3608 3AD6  
                                      _INLVLA 003A44                                        _INLVLB 003A54  
                                      _INLVLC 003A64                                        _INLVLD 003A74  
                                      _INLVLE 003A84                                        i2l2998 3DEE  
                                      _OSCFRQ 0039DF                                        _SMT1PR 003F1B  
                       _UART1_SetErrorHandler 3E1A                              __end_of___xxtofl 3450  
                     fp__counterHall_callback 0000                                        _Period 0064  
                                vfprintf@cfmt 0058                                     ??___aodiv 0011  
                                   ??___fladd 0030                                     ??___aomod 0011  
                                   ??___fldiv 0017                                     ??___fltol 003C  
                                      _analog 0068                                        _errsig 0084  
                     __end_of_TMR4_Initialize 3DA0                                        clear_0 3BFE  
                                      isa$std 000001                                        _printf 3CF6  
                                      pad@buf 0015                               ??_INT0_CallBack 0001  
                                      dtoa@fp 001E                                        _strlen 3C58  
                                      fputc@c 0003                                _PMD_Initialize 3D42  
                                      fputs@c 0010                                        fputs@i 0011  
                                      fputs@s 000C                                  __mediumconst 0000  
                                      tblptrh 003FF7                                        tblptrl 003FF6  
                                      tblptru 003FF8                              __end_of_vfprintf 3B92  
    INT0_SetInterruptHandler@InterruptHandler 0001          __end_of_UART1_SetOverrunErrorHandler 3E0C  
       __size_of_UART1_SetOverrunErrorHandler 000E                  _UART1_SetOverrunErrorHandler 3DFE  
                   _UART1_DefaultErrorHandler 000000                 __size_of_INTERRUPT_Initialize 0004  
                                ___xxtofl@arg 000B                                  ___xxtofl@exp 000A  
                           _SYSTEM_Initialize 3D1C                                  ___xxtofl@val 0001  
                                  __accesstop 0060                       __end_of__initialization 3C12  
                                   ?_INT0_ISR 0001                            ?_SYSTEM_Initialize 0001  
                               ___rparam_used 000001                                    ___fltol@f1 0038  
                              __pcstackCOMRAM 0001                                  __pidataBANK0 3E4A  
                         ??_SYSTEM_Initialize 0004                                 __end_of_fputc 3A44  
                               __end_of_fputs 3BD6                                 __end_of_putch 3E40  
                            ?_TMR2_Initialize 0001                        __end_of_PMD_Initialize 3D66  
                 __size_of_EXT_INT_Initialize 001C                     _UART1_FramingErrorHandler 00B5  
                    __size_of_SMT1_PR_ACQ_ISR 0006                                _failsafe_count 00BC  
                                     ??_fputc 0007                     __end_of_SYSTEM_Initialize 3D42  
                                     ??_fputs 0010                                       ??_putch 0002  
                                  __pbssBANK0 0060                 ?_UART1_SetOverrunErrorHandler 0001  
                      ?_UART1_SetErrorHandler 0001                         _INT0_InterruptHandler 00AC  
                                  ??_INT0_ISR 0001                 __size_of_counterHall_callback 0010  
                    __size_of_SMT1_PW_ACQ_ISR 0006                                       IVTBASEH 003FD6  
                                     IVTBASEL 003FD5                                       IVTBASEU 003FD7  
                            ?_TMR4_Initialize 0001                                       ?_printf 00C0  
                             ?_PMD_Initialize 0001                                       ?_strlen 0001  
                                     _U1ERRIE 003DFA                                       _U1ERRIR 003DF9  
                                     _INT0PPS 003AC0                          __size_of_UART1_Write 001A  
                                     _U1RXPPS 003AE5                                     ?___xxtofl 0001  
                                     _OSCCON1 0039D9                                       _OSCCON3 0039DB  
                          __size_of_vfpfcnvrt 0214                                       _SMT1CLK 003F21  
                                     _OSCTUNE 0039DE                                       _SMT1CPR 003F15  
                                     _SMT1CPW 003F18                                       _SMT1SIG 003F22  
                                     _SMT1PRH 003F1C                                       _SMT1PRL 003F1B  
                                     _SMT1PRU 003F1D                                       _SMT1WIN 003F23  
                                     _SMT1TMR 003F12                                       _SLRCONA 003A43  
                                     _SLRCONB 003A53                                       _SLRCONC 003A63  
                                     _SLRCOND 003A73                                       _SLRCONE 003A83  
           __size_of_INT0_SetInterruptHandler 000E                     ?_INT0_SetInterruptHandler 0001  
                                     _Counter 007C                                       __Hparam 0000  
                                     __Lparam 0000                      __end_of_UART1_Initialize 3AB8  
                                     ___aodiv 3450                                       ___fladd 20AA  
                                     ___aomod 35D8                                       ___fldiv 2A0A  
                                     ___fltol 373C                                     ?_vfprintf 0052  
                                __psmallconst 2000                                       __pcinit 3BD6  
                                     __ramtop 2000                                       __ptext0 256A  
                                     __ptext1 3CF6                                       __ptext2 3B28  
                                     __ptext3 3088                                       __ptext4 2DA4  
                                     __ptext5 3842                                       __ptext6 3C58  
                                     __ptext7 3B92                                       __ptext8 39AE  
                                     __ptext9 3E36                               __size_of_printf 0026  
                             __size_of_strlen 003A                         _OSCILLATOR_Initialize 3DD6  
                                   _T2CONbits 003FAC                                  __size_of_abs 0040  
                                __size_of_pad 00C6                                    ??___xxtofl 0005  
                                   _T4CONbits 003FA0                      ??_PIN_MANAGER_Initialize 0001  
                                   _T2HLTbits 003FAD                                       _reverse 00BE  
                                   _T4HLTbits 003FA1                    __size_of_SYSTEM_Initialize 0026  
                        end_of_initialization 3C12                                     _T2RSTbits 003FAF  
                                   _T4RSTbits 003FA3                                       fputc@fp 0005  
                           ??_SMT1_PR_ACQ_ISR 0001                                       fputs@fp 000E  
              ??_UART1_SetOverrunErrorHandler 0004                      __size_of_SMT1_Initialize 0032  
                           __end_of_vfpfcnvrt 329C                                       postdec1 003FE5  
                                     postdec2 003FDD                             ??_SMT1_PW_ACQ_ISR 0001  
                                     postinc0 003FEE                                       postinc1 003FE6  
                                     postinc2 003FDE                                    ??_vfprintf 0058  
                           UART1_Write@txData 0001                                       strlen@a 0003  
                                     strlen@s 0001                                   ___fladd@grs 0037  
                               ___xxtofl@sign 0009                                   ___fldiv@grs 0022  
                                 ___fldiv@rem 001B                             __size_of_INT0_ISR 000A  
                __end_of_INTERRUPT_Initialize 3E62          __end_of_INT0_DefaultInterruptHandler 3E64  
       __size_of_INT0_DefaultInterruptHandler 0002                  _INT0_DefaultInterruptHandler 3E62  
                                 vfpfcnvrt@ap 0046                                   vfpfcnvrt@fp 0042  
                                 vfpfcnvrt@ll 004A                        ?_OSCILLATOR_Initialize 0001  
                              __end_of_printf 3D1C                         __end_of_INT0_CallBack 3CF6  
                              __end_of_strlen 3C92                           start_initialization 3BD6  
             __size_of_PIN_MANAGER_Initialize 00A6                                   __end_of_abs 3C58  
                                 __end_of_pad 3908                       ??_UART1_SetErrorHandler 0004  
                                 putch@txData 0002                                    ivt0x8_base 0008  
                                 vfprintf@fmt 0054                              ??_PMD_Initialize 0001  
                                 __pdataBANK0 00B8                    __end_of_EXT_INT_Initialize 3DBC  
                           ??_SMT1_Initialize 0001                  __end_of_counterHall_callback 3DFE  
             fp__INT0_DefaultInterruptHandler 0000                 ?_INT0_DefaultInterruptHandler 0001  
                                    ??_printf 005A                                      ??_strlen 0003  
                                   ___fladd@a 002C                                     ___fladd@b 0028  
                                   ___fldiv@a 0013                                     ___fldiv@b 000F  
                                 __pbssCOMRAM 005F              __end_of_INT0_SetInterruptHandler 3E36  
                          _UART1_ErrorHandler 00AF                                 __pcstackBANK0 00C0  
                            ___aodiv@dividend 0001                      __size_of_TMR2_Initialize 001E  
                           __size_of___xxtofl 01B4                                     __pnvBANK0 00AC  
                      _PIN_MANAGER_Initialize 3908                                     _dtoa$1987 0030  
                           ?_UART1_Initialize 0001          __end_of_UART1_SetFramingErrorHandler 3E1A  
       __size_of_UART1_SetFramingErrorHandler 000E                  _UART1_SetFramingErrorHandler 3E0C  
                                    ?___aodiv 0001                                      ?___fladd 0028  
                                    ?___aomod 0001                                      ?___fldiv 000F  
                            ___aodiv@quotient 0013                                      ?___fltol 0038  
                          ??_UART1_Initialize 0004                              _uart1RxLastError 005F  
                               ??_UART1_Write 0001                  ??_INTERRUPT_InterruptManager 0001  
                           __size_of_vfprintf 006A                                   __smallconst 2000  
            _UART1_DefaultOverrunErrorHandler 000000                               _SMT1_PR_ACQ_ISR 3E58  
                                   _lastState 0080                      __size_of_TMR4_Initialize 001C  
                                   _duration1 0070                                __size_of_fputc 0096  
                                    _T2CLKCON 003FAE                                __size_of_fputs 0044  
                                 _U1ERRIRbits 003DF9                                      _T4CLKCON 003FA2  
                              __size_of_putch 000A                          _INTERRUPT_Initialize 3E5E  
                             _SMT1_PW_ACQ_ISR 3E52                                      _INT0_ISR 3E40  
                                    _LATAbits 003FBA         UART1_SetErrorHandler@interruptHandler 0001  
                                    _LATEbits 003FBE                                      _PIE1bits 003991  
         __size_of_INTERRUPT_InterruptManager 0070                                      _PIR1bits 0039A1  
                                    i2u194_40 3CDA                                      i2u194_41 3CD6  
                                    i2u283_40 3AC8                                      i2u283_41 3AC4  
                                    i2u195_48 3CE0                                      i2u284_40 3AD6  
                                    i2u195_49 3CF4                                      i2u284_41 3AD2  
                                    i2u285_40 3AEC                                      i2u285_41 3AE8  
                                    _PIR3bits 0039A3                                      i2u286_40 3AFA  
                                    i2u286_41 3AF6                                      i2u287_40 3B10  
                                    i2u287_41 3B0C                                      _PIR4bits 0039A4  
                                    i2u288_40 3B1E                                      i2u288_41 3B1A  
                                    _PIR7bits 0039A7                                      _SMT1CON0 003F1E  
                                    _SMT1CON1 003F1F                                      _SMT1STAT 003F20  
               ?_UART1_SetFramingErrorHandler 0001                                     _vfpfcnvrt 3088  
              ??_INT0_DefaultInterruptHandler 0001                           __end_of_UART1_Write 3DD6  
                                _SMT1CON0bits 003F1E                                  _SMT1CON1bits 003F1F  
                                 _INTCON0bits 003FD2                                     copy_data0 3BEA  
                       ?_INTERRUPT_Initialize 0001                      _INT0_SetInterruptHandler 3E28  
                           ??_TMR2_Initialize 0001                          _counterHall_callback 3DEE  
                                    __Hrparam 0000                                    vfprintf@ap 0056  
                                    __Lrparam 0000                                    vfprintf@fp 0052  
                     ??_OSCILLATOR_Initialize 0001                              __size_of___aodiv 0188  
                            __size_of___fladd 04C0                              __size_of___aomod 0164  
                            __size_of___fldiv 039A                              __size_of___fltol 0106  
                                _SMT1STATbits 003F20                       __end_of_SMT1_PR_ACQ_ISR 3E5E  
                                  ?_vfpfcnvrt 0042                               ___aodiv@divisor 0009  
                             ___aodiv@counter 0011                                      ___xxtofl 329C  
                                    __pivt0x8 0008                       __end_of_SMT1_PW_ACQ_ISR 3E58  
                                    __ptext10 3DBC                                      __ptext11 3C18  
                                    __ptext20 3DFE                                      __ptext12 35D8  
                                    __ptext21 3E0C                                      __ptext13 3450  
                                    __ptext30 3DA0                                      __ptext22 3E1A  
                                    __ptext14 329C                                      __ptext31 3E28  
                                    __ptext23 3D84                                      __ptext15 373C  
                                    __ptext32 3AB8                                      __ptext24 3D66  
                                    __ptext16 2A0A                                      __ptext33 3E52  
                                    __ptext25 3C92                                      __ptext17 20AA  
                                    __ptext34 3E58                                      __ptext26 3D42  
                                    __ptext18 3D1C                                      __ptext35 3E40  
                                    __ptext27 3908                                      __ptext19 3A44  
                                    __ptext36 3CC4                                      __ptext28 3DD6  
                                    __ptext37 3E62                                      __ptext29 3E5E  
                                    __ptext38 3DEE                                      __ptext39 0000  
                                  _U1CON0bits 003DF2                __size_of_UART1_SetErrorHandler 000E  
               __end_of_UART1_SetErrorHandler 3E28                         ?_counterHall_callback 0001  
                                    _ip_pulse 0086                             ??_TMR4_Initialize 0001  
                                    _duration 006C                                 __size_of_main 04A0  
                               __size_of_dtoa 02E4                               _SMT1_Initialize 3C92  
                   _UART1_OverrunErrorHandler 00B2  UART1_SetOverrunErrorHandler@interruptHandler 0001  
                                    isa$xinst 000000                                      _vfprintf 3B28  
          __end_of_INTERRUPT_InterruptManager 3B28                    _INTERRUPT_InterruptManager 3AB8  
                                   printf@fmt 00C0                                   _UART1_Write 3DBC  
                            ___aomod@dividend 0001                ??_UART1_SetFramingErrorHandler 0004  
                      ??_INTERRUPT_Initialize 0001                            _EXT_INT_Initialize 3DA0  
                                    intlevel2 0000                       ?_PIN_MANAGER_Initialize 0001  
                         ?_EXT_INT_Initialize 0001                        __size_of_INT0_CallBack 0032  
                                    printf@ap 005A  UART1_SetFramingErrorHandler@interruptHandler 0001  
                             ___aomod@divisor 0009                                   ??_vfpfcnvrt 0048  
                             ___aomod@counter 0011                              ?_SMT1_PR_ACQ_ISR 0001  
                                  _SMT1SIGPPS 003AD2                                    _SMT1WINPPS 003AD1  
                        ??_EXT_INT_Initialize 0004                     __size_of_UART1_Initialize 0074  
                            ?_SMT1_PW_ACQ_ISR 0001                                 ___fladd@signs 0034  
                     __end_of_SMT1_Initialize 3CC4                        ??_counterHall_callback 0001  
                                ___aodiv@sign 0012                __end_of_PIN_MANAGER_Initialize 39AE  
                                ___fladd@aexp 0035                                  ___fladd@bexp 0036  
                                ___aomod@sign 0012  
