

Microchip MPLAB XC8 Assembler V2.32 build 20210201212658 
                                                                                               Thu Sep 23 09:10:20 2021

Microchip MPLAB XC8 C Compiler v2.32 (Free license) build 20210201212658 Og1 
     1                           	processor	18F47K42
     2                           	fnconf	rparam,??,?,0
     3                           	pagewidth 120
     4                           	opt	flic
     5                           	psect	idataBANK0,global,class=CODE,delta=1,noexec
     6                           	psect	nvBANK0,global,class=BANK0,space=1,delta=1,lowdata,noexec
     7                           	psect	smallconst,global,reloc=2,class=SMALLCONST,delta=1,noexec
     8                           	psect	cinit,global,reloc=2,class=CODE,delta=1
     9                           	psect	bssCOMRAM,global,class=COMRAM,space=1,delta=1,lowdata,noexec
    10                           	psect	bssBANK0,global,class=BANK0,space=1,delta=1,lowdata,noexec
    11                           	psect	dataBANK0,global,class=BANK0,space=1,delta=1,lowdata,noexec
    12                           	psect	cstackBANK0,global,class=BANK0,space=1,delta=1,lowdata,noexec
    13                           	psect	cstackCOMRAM,global,class=COMRAM,space=1,delta=1,lowdata,noexec
    14                           	psect	text0,global,reloc=2,class=CODE,delta=1
    15                           	psect	text1,global,reloc=2,class=CODE,delta=1,group=3
    16                           	psect	text2,global,reloc=2,class=CODE,delta=1,group=1
    17                           	psect	text3,global,reloc=2,class=CODE,delta=1,group=1
    18                           	psect	text4,global,reloc=2,class=CODE,delta=1,group=1
    19                           	psect	text5,global,reloc=2,class=CODE,delta=1,group=1
    20                           	psect	text6,global,reloc=2,class=CODE,delta=1,group=3
    21                           	psect	text7,global,reloc=2,class=CODE,delta=1,group=3
    22                           	psect	text8,global,reloc=2,class=CODE,delta=1,group=3
    23                           	psect	text9,global,reloc=2,class=CODE,delta=1
    24                           	psect	text10,global,reloc=2,class=CODE,delta=1
    25                           	psect	text11,global,reloc=2,class=CODE,delta=1,group=3
    26                           	psect	text12,global,reloc=2,class=CODE,delta=1,group=2
    27                           	psect	text13,global,reloc=2,class=CODE,delta=1,group=2
    28                           	psect	text14,global,reloc=2,class=CODE,delta=1,group=2
    29                           	psect	text15,global,reloc=2,class=CODE,delta=1,group=2
    30                           	psect	text16,global,reloc=2,class=CODE,delta=1,group=2
    31                           	psect	text17,global,reloc=2,class=CODE,delta=1
    32                           	psect	text18,global,reloc=2,class=CODE,delta=1
    33                           	psect	text19,global,reloc=2,class=CODE,delta=1
    34                           	psect	text20,global,reloc=2,class=CODE,delta=1
    35                           	psect	text21,global,reloc=2,class=CODE,delta=1
    36                           	psect	text22,global,reloc=2,class=CODE,delta=1
    37                           	psect	text23,global,reloc=2,class=CODE,delta=1
    38                           	psect	text24,global,reloc=2,class=CODE,delta=1
    39                           	psect	text25,global,reloc=2,class=CODE,delta=1
    40                           	psect	text26,global,reloc=2,class=CODE,delta=1
    41                           	psect	text27,global,reloc=2,class=CODE,delta=1
    42                           	psect	text28,global,reloc=2,class=CODE,delta=1
    43                           	psect	text29,global,reloc=2,class=CODE,delta=1
    44                           	psect	text30,global,reloc=2,class=CODE,delta=1
    45                           	psect	text31,global,reloc=2,class=CODE,delta=1
    46                           	psect	text32,global,reloc=2,class=CODE,delta=1
    47                           	psect	text33,global,reloc=2,class=CODE,delta=1
    48                           	psect	text34,global,reloc=2,class=CODE,delta=1
    49                           	psect	text35,global,reloc=2,class=CODE,delta=1
    50                           	psect	text36,global,reloc=2,class=CODE,delta=1
    51                           	psect	text37,global,reloc=2,class=CODE,delta=1
    52                           	psect	ivt0x8,global,reloc=2,class=CODE,delta=1,noexec,keep,optim=
    53                           	psect	intsave_regs,global,class=BIGRAM,space=1,delta=1,noexec
    54                           	psect	text38,global,reloc=2,class=CODE,delta=1
    55                           	psect	rparam,global,class=COMRAM,space=1,delta=1,noexec
    56                           	psect	idloc,global,abs,ovrld,class=IDLOC,space=5,delta=1,noexec
    57                           	psect	config,global,abs,ovrld,class=CONFIG,space=4,delta=1,noexec
    58  0000                     
    59                           ; Version 2.20
    60                           ; Generated 05/05/2020 GMT
    61                           ; 
    62                           ; Copyright © 2020, Microchip Technology Inc. and its subsidiaries ("Microchip")
    63                           ; All rights reserved.
    64                           ; 
    65                           ; This software is developed by Microchip Technology Inc. and its subsidiaries ("Microch
      +                          ip").
    66                           ; 
    67                           ; Redistribution and use in source and binary forms, with or without modification, are
    68                           ; permitted provided that the following conditions are met:
    69                           ; 
    70                           ;     1. Redistributions of source code must retain the above copyright notice, this lis
      +                          t of
    71                           ;        conditions and the following disclaimer.
    72                           ; 
    73                           ;     2. Redistributions in binary form must reproduce the above copyright notice, this 
      +                          list
    74                           ;        of conditions and the following disclaimer in the documentation and/or other
    75                           ;        materials provided with the distribution.
    76                           ; 
    77                           ;     3. Microchip's name may not be used to endorse or promote products derived from th
      +                          is
    78                           ;        software without specific prior written permission.
    79                           ; 
    80                           ; THIS SOFTWARE IS PROVIDED BY MICROCHIP "AS IS" AND ANY EXPRESS OR IMPLIED WARRANTIES,
    81                           ; INCLUDING, BUT NOT LIMITED TO, THE IMPLIED WARRANTIES OF MERCHANTABILITY AND FITNESS F
      +                          OR
    82                           ; PURPOSE ARE DISCLAIMED.  IN NO EVENT SHALL MICROCHIP BE LIABLE FOR ANY DIRECT, INDIREC
      +                          T,
    83                           ; INCIDENTAL, SPECIAL, EXEMPLARY, OR CONSEQUENTIAL DAMAGES (INCLUDING BUT NOT LIMITED TO
    84                           ; PROCUREMENT OF SUBSTITUTE GOODS OR SERVICES; LOSS OF USE, DATA OR PROFITS; OR BUSINESS
    85                           ; INTERRUPTION) HOWSOEVER CAUSED AND ON ANY THEORY OF LIABILITY, WHETHER IN CONTRACT, ST
      +                          RICT
    86                           ; LIABILITY, OR TORT (INCLUDING NEGLIGENCE OR OTHERWISE) ARISING IN ANY WAY OUT OF THE U
      +                          SE OF
    87                           ; THIS SOFTWARE, EVEN IF ADVISED OF THE POSSIBILITY OF SUCH DAMAGE.
    88                           ; 
    89                           ; 
    90                           ; Code-generator required, PIC18F47K42 Definitions
    91                           ; 
    92                           ; SFR Addresses
    93  0000                     
    94 ;; Function _UART1_DefaultFramingErrorHandler is unused but had its address taken
    95  0000                     
    96 ;; Function _UART1_DefaultOverrunErrorHandler is unused but had its address taken
    97  0000                     
    98 ;; Function _UART1_DefaultErrorHandler is unused but had its address taken
    99  0000                     
   100                           	psect	idataBANK0
   101  003A84                     __pidataBANK0:
   102                           	callstack 0
   103                           
   104                           ;initializer for _Width
   105  003A84  0003               	dw	3
   106  003A86  0000               	dw	0
   107                           
   108                           ;initializer for _failsafe_count
   109  003A88  0001               	dw	1
   110                           
   111                           ;initializer for _reverse
   112  003A8A  0001               	dw	1
   113                           
   114                           	psect	nvBANK0
   115  0000AC                     __pnvBANK0:
   116                           	callstack 0
   117  0000AC                     _INT0_InterruptHandler:
   118                           	callstack 0
   119  0000AC                     	ds	3
   120  0000AF                     _UART1_ErrorHandler:
   121                           	callstack 0
   122  0000AF                     	ds	3
   123  0000B2                     _UART1_OverrunErrorHandler:
   124                           	callstack 0
   125  0000B2                     	ds	3
   126  0000B5                     _UART1_FramingErrorHandler:
   127                           	callstack 0
   128  0000B5                     	ds	3
   129  0000                     _PIR7bits	set	14759
   130  0000                     _PIR4bits	set	14756
   131  0000                     _PIR3bits	set	14755
   132  0000                     _PMD7	set	14791
   133  0000                     _PMD6	set	14790
   134  0000                     _PMD5	set	14789
   135  0000                     _PMD4	set	14788
   136  0000                     _PMD3	set	14787
   137  0000                     _PMD2	set	14786
   138  0000                     _PMD1	set	14785
   139  0000                     _PMD0	set	14784
   140  0000                     _OSCTUNE	set	14814
   141  0000                     _OSCFRQ	set	14815
   142  0000                     _OSCEN	set	14813
   143  0000                     _OSCCON3	set	14811
   144  0000                     _OSCCON1	set	14809
   145  0000                     _PIR1bits	set	14753
   146  0000                     _PIE1bits	set	14737
   147  0000                     _U1RXPPS	set	15077
   148  0000                     _SMT1SIGPPS	set	15058
   149  0000                     _RB2PPS	set	14858
   150  0000                     _SMT1WINPPS	set	15057
   151  0000                     _INT0PPS	set	15040
   152  0000                     _INLVLE	set	14980
   153  0000                     _INLVLD	set	14964
   154  0000                     _INLVLC	set	14948
   155  0000                     _INLVLB	set	14932
   156  0000                     _INLVLA	set	14916
   157  0000                     _SLRCONE	set	14979
   158  0000                     _SLRCOND	set	14963
   159  0000                     _SLRCONC	set	14947
   160  0000                     _SLRCONB	set	14931
   161  0000                     _SLRCONA	set	14915
   162  0000                     _ODCOND	set	14962
   163  0000                     _ODCONC	set	14946
   164  0000                     _ODCONB	set	14930
   165  0000                     _ODCONA	set	14914
   166  0000                     _ODCONE	set	14978
   167  0000                     _RD1I2C	set	14971
   168  0000                     _RD0I2C	set	14970
   169  0000                     _RC4I2C	set	14955
   170  0000                     _RC3I2C	set	14954
   171  0000                     _RB2I2C	set	14939
   172  0000                     _RB1I2C	set	14938
   173  0000                     _WPUC	set	14945
   174  0000                     _WPUA	set	14913
   175  0000                     _WPUB	set	14929
   176  0000                     _WPUE	set	14977
   177  0000                     _WPUD	set	14961
   178  0000                     _ANSELA	set	14912
   179  0000                     _ANSELE	set	14976
   180  0000                     _ANSELB	set	14928
   181  0000                     _ANSELC	set	14944
   182  0000                     _ANSELD	set	14960
   183  0000                     _U1TXB	set	15850
   184  0000                     _U1RXB	set	15848
   185  0000                     _U1ERRIRbits	set	15865
   186  0000                     _U1CON0bits	set	15858
   187  0000                     _U1ERRIE	set	15866
   188  0000                     _U1ERRIR	set	15865
   189  0000                     _U1UIR	set	15864
   190  0000                     _U1FIFO	set	15863
   191  0000                     _U1BRGH	set	15862
   192  0000                     _U1BRGL	set	15861
   193  0000                     _U1CON2	set	15860
   194  0000                     _U1CON1	set	15859
   195  0000                     _U1CON0	set	15858
   196  0000                     _U1P3H	set	15857
   197  0000                     _U1P3L	set	15856
   198  0000                     _U1P2H	set	15855
   199  0000                     _U1P2L	set	15854
   200  0000                     _U1P1H	set	15853
   201  0000                     _U1P1L	set	15852
   202  0000                     _SMT1TMR	set	16146
   203  0000                     _SMT1CPR	set	16149
   204  0000                     _SMT1CPW	set	16152
   205  0000                     _SMT1PR	set	16155
   206  0000                     _SMT1STATbits	set	16160
   207  0000                     _SMT1CON0bits	set	16158
   208  0000                     _SMT1CON1bits	set	16159
   209  0000                     _SMT1PRL	set	16155
   210  0000                     _SMT1PRH	set	16156
   211  0000                     _SMT1PRU	set	16157
   212  0000                     _SMT1SIG	set	16162
   213  0000                     _SMT1WIN	set	16163
   214  0000                     _SMT1CLK	set	16161
   215  0000                     _SMT1STAT	set	16160
   216  0000                     _SMT1CON1	set	16159
   217  0000                     _SMT1CON0	set	16158
   218  0000                     _LATEbits	set	16318
   219  0000                     _LATAbits	set	16314
   220  0000                     _PR4	set	16287
   221  0000                     _TMR4	set	16286
   222  0000                     _T4CONbits	set	16288
   223  0000                     _T4RSTbits	set	16291
   224  0000                     _T4HLTbits	set	16289
   225  0000                     _T4CON	set	16288
   226  0000                     _T4TMR	set	16286
   227  0000                     _T4PR	set	16287
   228  0000                     _T4RST	set	16291
   229  0000                     _T4HLT	set	16289
   230  0000                     _T4CLKCON	set	16290
   231  0000                     _PR2	set	16299
   232  0000                     _TMR2	set	16298
   233  0000                     _T2CONbits	set	16300
   234  0000                     _T2RSTbits	set	16303
   235  0000                     _T2HLTbits	set	16301
   236  0000                     _T2CON	set	16300
   237  0000                     _T2TMR	set	16298
   238  0000                     _T2PR	set	16299
   239  0000                     _T2RST	set	16303
   240  0000                     _T2HLT	set	16301
   241  0000                     _T2CLKCON	set	16302
   242  0000                     _INTCON0bits	set	16338
   243  0000                     _TRISD	set	16325
   244  0000                     _TRISC	set	16324
   245  0000                     _TRISB	set	16323
   246  0000                     _TRISA	set	16322
   247  0000                     _TRISE	set	16326
   248  0000                     _LATC	set	16316
   249  0000                     _LATB	set	16315
   250  0000                     _LATA	set	16314
   251  0000                     _LATD	set	16317
   252  0000                     _LATE	set	16318
   253                           
   254                           	psect	smallconst
   255  002000                     __psmallconst:
   256                           	callstack 0
   257  002000  00                 	db	0
   258  002001                     STR_4:
   259  002001  49                 	db	73	;'I'
   260  002002  6E                 	db	110	;'n'
   261  002003  70                 	db	112	;'p'
   262  002004  75                 	db	117	;'u'
   263  002005  74                 	db	116	;'t'
   264  002006  20                 	db	32
   265  002007  70                 	db	112	;'p'
   266  002008  75                 	db	117	;'u'
   267  002009  6C                 	db	108	;'l'
   268  00200A  73                 	db	115	;'s'
   269  00200B  65                 	db	101	;'e'
   270  00200C  20                 	db	32
   271  00200D  3D                 	db	61	;'='
   272  00200E  25                 	db	37
   273  00200F  64                 	db	100	;'d'
   274  002010  20                 	db	32
   275  002011  20                 	db	32
   276  002012  20                 	db	32
   277  002013  48                 	db	72	;'H'
   278  002014  61                 	db	97	;'a'
   279  002015  6C                 	db	108	;'l'
   280  002016  6C                 	db	108	;'l'
   281  002017  20                 	db	32
   282  002018  63                 	db	99	;'c'
   283  002019  6F                 	db	111	;'o'
   284  00201A  75                 	db	117	;'u'
   285  00201B  6E                 	db	110	;'n'
   286  00201C  74                 	db	116	;'t'
   287  00201D  65                 	db	101	;'e'
   288  00201E  72                 	db	114	;'r'
   289  00201F  20                 	db	32
   290  002020  3D                 	db	61	;'='
   291  002021  25                 	db	37
   292  002022  64                 	db	100	;'d'
   293  002023  20                 	db	32
   294  002024  20                 	db	32
   295  002025  20                 	db	32
   296  002026  45                 	db	69	;'E'
   297  002027  72                 	db	114	;'r'
   298  002028  72                 	db	114	;'r'
   299  002029  6F                 	db	111	;'o'
   300  00202A  72                 	db	114	;'r'
   301  00202B  20                 	db	32
   302  00202C  73                 	db	115	;'s'
   303  00202D  69                 	db	105	;'i'
   304  00202E  67                 	db	103	;'g'
   305  00202F  6E                 	db	110	;'n'
   306  002030  61                 	db	97	;'a'
   307  002031  6C                 	db	108	;'l'
   308  002032  3D                 	db	61	;'='
   309  002033  25                 	db	37
   310  002034  64                 	db	100	;'d'
   311  002035  20                 	db	32
   312  002036  20                 	db	32
   313  002037  20                 	db	32
   314  002038  52                 	db	82	;'R'
   315  002039  65                 	db	101	;'e'
   316  00203A  76                 	db	118	;'v'
   317  00203B  65                 	db	101	;'e'
   318  00203C  72                 	db	114	;'r'
   319  00203D  73                 	db	115	;'s'
   320  00203E  65                 	db	101	;'e'
   321  00203F  20                 	db	32
   322  002040  3D                 	db	61	;'='
   323  002041  25                 	db	37
   324  002042  64                 	db	100	;'d'
   325  002043  20                 	db	32
   326  002044  0D                 	db	13
   327  002045  0A                 	db	10
   328  002046  00                 	db	0
   329  002047                     STR_2:
   330  002047  53                 	db	83	;'S'
   331  002048  74                 	db	116	;'t'
   332  002049  61                 	db	97	;'a'
   333  00204A  72                 	db	114	;'r'
   334  00204B  74                 	db	116	;'t'
   335  00204C  20                 	db	32
   336  00204D  75                 	db	117	;'u'
   337  00204E  70                 	db	112	;'p'
   338  00204F  20                 	db	32
   339  002050  64                 	db	100	;'d'
   340  002051  65                 	db	101	;'e'
   341  002052  6C                 	db	108	;'l'
   342  002053  61                 	db	97	;'a'
   343  002054  79                 	db	121	;'y'
   344  002055  2E                 	db	46
   345  002056  20                 	db	32
   346  002057  42                 	db	66	;'B'
   347  002058  65                 	db	101	;'e'
   348  002059  67                 	db	103	;'g'
   349  00205A  69                 	db	105	;'i'
   350  00205B  6E                 	db	110	;'n'
   351  00205C  20                 	db	32
   352  00205D  77                 	db	119	;'w'
   353  00205E  61                 	db	97	;'a'
   354  00205F  69                 	db	105	;'i'
   355  002060  74                 	db	116	;'t'
   356  002061  69                 	db	105	;'i'
   357  002062  6E                 	db	110	;'n'
   358  002063  67                 	db	103	;'g'
   359  002064  20                 	db	32
   360  002065  66                 	db	102	;'f'
   361  002066  6F                 	db	111	;'o'
   362  002067  72                 	db	114	;'r'
   363  002068  20                 	db	32
   364  002069  72                 	db	114	;'r'
   365  00206A  2F                 	db	47
   366  00206B  63                 	db	99	;'c'
   367  00206C  20                 	db	32
   368  00206D  70                 	db	112	;'p'
   369  00206E  75                 	db	117	;'u'
   370  00206F  6C                 	db	108	;'l'
   371  002070  73                 	db	115	;'s'
   372  002071  65                 	db	101	;'e'
   373  002072  73                 	db	115	;'s'
   374  002073  20                 	db	32
   375  002074  6F                 	db	111	;'o'
   376  002075  6E                 	db	110	;'n'
   377  002076  20                 	db	32
   378  002077  69                 	db	105	;'i'
   379  002078  6E                 	db	110	;'n'
   380  002079  70                 	db	112	;'p'
   381  00207A  75                 	db	117	;'u'
   382  00207B  74                 	db	116	;'t'
   383  00207C  20                 	db	32
   384  00207D  70                 	db	112	;'p'
   385  00207E  69                 	db	105	;'i'
   386  00207F  6E                 	db	110	;'n'
   387  002080  2E                 	db	46
   388  002081  20                 	db	32
   389  002082  0D                 	db	13
   390  002083  0A                 	db	10
   391  002084  00                 	db	0
   392  002085                     STR_3:
   393  002085  44                 	db	68	;'D'
   394  002086  61                 	db	97	;'a'
   395  002087  74                 	db	116	;'t'
   396  002088  61                 	db	97	;'a'
   397  002089  20                 	db	32
   398  00208A  77                 	db	119	;'w'
   399  00208B  69                 	db	105	;'i'
   400  00208C  6C                 	db	108	;'l'
   401  00208D  6C                 	db	108	;'l'
   402  00208E  20                 	db	32
   403  00208F  62                 	db	98	;'b'
   404  002090  65                 	db	101	;'e'
   405  002091  20                 	db	32
   406  002092  70                 	db	112	;'p'
   407  002093  72                 	db	114	;'r'
   408  002094  69                 	db	105	;'i'
   409  002095  6E                 	db	110	;'n'
   410  002096  74                 	db	116	;'t'
   411  002097  65                 	db	101	;'e'
   412  002098  64                 	db	100	;'d'
   413  002099  20                 	db	32
   414  00209A  61                 	db	97	;'a'
   415  00209B  66                 	db	102	;'f'
   416  00209C  74                 	db	116	;'t'
   417  00209D  65                 	db	101	;'e'
   418  00209E  72                 	db	114	;'r'
   419  00209F  20                 	db	32
   420  0020A0  70                 	db	112	;'p'
   421  0020A1  75                 	db	117	;'u'
   422  0020A2  6C                 	db	108	;'l'
   423  0020A3  73                 	db	115	;'s'
   424  0020A4  65                 	db	101	;'e'
   425  0020A5  73                 	db	115	;'s'
   426  0020A6  20                 	db	32
   427  0020A7  61                 	db	97	;'a'
   428  0020A8  72                 	db	114	;'r'
   429  0020A9  65                 	db	101	;'e'
   430  0020AA  20                 	db	32
   431  0020AB  72                 	db	114	;'r'
   432  0020AC  65                 	db	101	;'e'
   433  0020AD  63                 	db	99	;'c'
   434  0020AE  65                 	db	101	;'e'
   435  0020AF  69                 	db	105	;'i'
   436  0020B0  76                 	db	118	;'v'
   437  0020B1  65                 	db	101	;'e'
   438  0020B2  64                 	db	100	;'d'
   439  0020B3  2E                 	db	46
   440  0020B4  20                 	db	32
   441  0020B5  0D                 	db	13
   442  0020B6  0A                 	db	10
   443  0020B7  00                 	db	0
   444  0020B8  00                 	db	0	; dummy byte at the end
   445  0000                     
   446                           ; #config settings
   447                           
   448                           	psect	cinit
   449  0037F4                     __pcinit:
   450                           	callstack 0
   451  0037F4                     start_initialization:
   452                           	callstack 0
   453  0037F4                     __initialization:
   454                           	callstack 0
   455                           
   456                           ; Initialize objects allocated to BANK0 (8 bytes)
   457                           ; load TBLPTR registers with __pidataBANK0
   458  0037F4  0E84               	movlw	low __pidataBANK0
   459  0037F6  6EF6               	movwf	tblptrl,c
   460  0037F8  0E3A               	movlw	high __pidataBANK0
   461  0037FA  6EF7               	movwf	tblptrh,c
   462  0037FC  0E00               	movlw	low (__pidataBANK0 shr (0+16))
   463  0037FE  6EF8               	movwf	tblptru,c
   464  003800  EE00  F0B8         	lfsr	0,__pdataBANK0
   465  003804  EE10 F008          	lfsr	1,8
   466  003808                     copy_data0:
   467  003808  0009               	tblrd		*+
   468  00380A  006F FFD7 FFEE     	movff	tablat,postinc0
   469  003810  50E5               	movf	postdec1,w,c
   470  003812  50E1               	movf	fsr1l,w,c
   471  003814  E1F9               	bnz	copy_data0
   472                           
   473                           ; Clear objects allocated to BANK0 (62 bytes)
   474  003816  EE00  F060         	lfsr	0,__pbssBANK0
   475  00381A  0E3E               	movlw	62
   476  00381C                     clear_0:
   477  00381C  6AEE               	clrf	postinc0,c
   478  00381E  06E8               	decf	wreg,f,c
   479  003820  E1FD               	bnz	clear_0
   480                           
   481                           ; Clear objects allocated to COMRAM (1 bytes)
   482  003822  6A5F               	clrf	__pbssCOMRAM& (0+255),c
   483                           
   484                           ;
   485                           ; Setup IVTBASE
   486                           ;
   487  003824  0E08               	movlw	(ivt0x8_base shr 0)& (0+255)
   488  003826  6ED5               	movwf	213,c
   489  003828  0E00               	movlw	(ivt0x8_base shr (0+8))& (0+255)
   490  00382A  6ED6               	movwf	214,c
   491  00382C  0E00               	movlw	(ivt0x8_base shr (0+16))& (0+255)
   492  00382E  6ED7               	movwf	215,c
   493  003830                     end_of_initialization:
   494                           	callstack 0
   495  003830                     __end_of__initialization:
   496                           	callstack 0
   497  003830  0100               	movlb	0
   498  003832  EF5D  F010         	goto	_main	;jump to C main() function
   499                           
   500                           	psect	bssCOMRAM
   501  00005F                     __pbssCOMRAM:
   502                           	callstack 0
   503  00005F                     _uart1RxLastError:
   504                           	callstack 0
   505  00005F                     	ds	1
   506                           
   507                           	psect	bssBANK0
   508  000060                     __pbssBANK0:
   509                           	callstack 0
   510  000060                     _Timer:
   511                           	callstack 0
   512  000060                     	ds	4
   513  000064                     _Period:
   514                           	callstack 0
   515  000064                     	ds	4
   516  000068                     _analog:
   517                           	callstack 0
   518  000068                     	ds	4
   519  00006C                     _nout:
   520                           	callstack 0
   521  00006C                     	ds	2
   522  00006E                     _width:
   523                           	callstack 0
   524  00006E                     	ds	2
   525  000070                     _prec:
   526                           	callstack 0
   527  000070                     	ds	2
   528  000072                     _flags:
   529                           	callstack 0
   530  000072                     	ds	2
   531  000074                     _count:
   532                           	callstack 0
   533  000074                     	ds	2
   534  000076                     _errsig:
   535                           	callstack 0
   536  000076                     	ds	2
   537  000078                     _ip_pulse:
   538                           	callstack 0
   539  000078                     	ds	2
   540  00007A                     _band:
   541                           	callstack 0
   542  00007A                     	ds	2
   543  00007C                     _mody:
   544                           	callstack 0
   545  00007C                     	ds	2
   546  00007E                     _dbuf:
   547                           	callstack 0
   548  00007E                     	ds	32
   549                           
   550                           	psect	dataBANK0
   551  0000B8                     __pdataBANK0:
   552                           	callstack 0
   553  0000B8                     _Width:
   554                           	callstack 0
   555  0000B8                     	ds	4
   556  0000BC                     _failsafe_count:
   557                           	callstack 0
   558  0000BC                     	ds	2
   559  0000BE                     _reverse:
   560                           	callstack 0
   561  0000BE                     	ds	2
   562                           
   563                           	psect	cstackBANK0
   564  00009E                     __pcstackBANK0:
   565                           	callstack 0
   566  00009E                     ?_printf:
   567                           	callstack 0
   568  00009E                     printf@fmt:
   569                           	callstack 0
   570                           
   571                           ; 2 bytes @ 0x0
   572  00009E                     	ds	10
   573  0000A8                     main@j:
   574                           	callstack 0
   575                           
   576                           ; 2 bytes @ 0xA
   577  0000A8                     	ds	2
   578  0000AA                     main@j_1477:
   579                           	callstack 0
   580                           
   581                           ; 2 bytes @ 0xC
   582  0000AA                     	ds	2
   583                           
   584                           	psect	cstackCOMRAM
   585  000001                     __pcstackCOMRAM:
   586                           	callstack 0
   587  000001                     ?_strlen:
   588                           	callstack 0
   589  000001                     ?___xxtofl:
   590                           	callstack 0
   591  000001                     ?___aodiv:
   592                           	callstack 0
   593  000001                     ?___aomod:
   594                           	callstack 0
   595  000001                     UART1_Write@txData:
   596                           	callstack 0
   597  000001                     strlen@s:
   598                           	callstack 0
   599  000001                     UART1_SetFramingErrorHandler@interruptHandler:
   600                           	callstack 0
   601  000001                     UART1_SetOverrunErrorHandler@interruptHandler:
   602                           	callstack 0
   603  000001                     UART1_SetErrorHandler@interruptHandler:
   604                           	callstack 0
   605  000001                     INT0_SetInterruptHandler@InterruptHandler:
   606                           	callstack 0
   607  000001                     ___xxtofl@val:
   608                           	callstack 0
   609  000001                     ___aodiv@dividend:
   610                           	callstack 0
   611  000001                     ___aomod@dividend:
   612                           	callstack 0
   613                           
   614                           ; 8 bytes @ 0x0
   615  000001                     	ds	1
   616  000002                     putch@txData:
   617                           	callstack 0
   618                           
   619                           ; 1 bytes @ 0x1
   620  000002                     	ds	1
   621  000003                     fputc@c:
   622                           	callstack 0
   623  000003                     strlen@a:
   624                           	callstack 0
   625                           
   626                           ; 2 bytes @ 0x2
   627  000003                     	ds	1
   628  000004                     
   629                           ; 1 bytes @ 0x3
   630  000004                     	ds	1
   631  000005                     ??___xxtofl:
   632  000005                     fputc@fp:
   633                           	callstack 0
   634                           
   635                           ; 2 bytes @ 0x4
   636  000005                     	ds	2
   637  000007                     ??_fputc:
   638                           
   639                           ; 1 bytes @ 0x6
   640  000007                     	ds	2
   641  000009                     ___xxtofl@sign:
   642                           	callstack 0
   643  000009                     ___aodiv@divisor:
   644                           	callstack 0
   645  000009                     ___aomod@divisor:
   646                           	callstack 0
   647                           
   648                           ; 8 bytes @ 0x8
   649  000009                     	ds	1
   650  00000A                     ___xxtofl@exp:
   651                           	callstack 0
   652                           
   653                           ; 1 bytes @ 0x9
   654  00000A                     	ds	1
   655  00000B                     ___xxtofl@arg:
   656                           	callstack 0
   657                           
   658                           ; 4 bytes @ 0xA
   659  00000B                     	ds	1
   660  00000C                     fputs@s:
   661                           	callstack 0
   662                           
   663                           ; 2 bytes @ 0xB
   664  00000C                     	ds	2
   665  00000E                     fputs@fp:
   666                           	callstack 0
   667                           
   668                           ; 2 bytes @ 0xD
   669  00000E                     	ds	1
   670  00000F                     ?___flmul:
   671                           	callstack 0
   672  00000F                     ___flmul@b:
   673                           	callstack 0
   674                           
   675                           ; 4 bytes @ 0xE
   676  00000F                     	ds	1
   677  000010                     fputs@c:
   678                           	callstack 0
   679                           
   680                           ; 1 bytes @ 0xF
   681  000010                     	ds	1
   682  000011                     ___aodiv@counter:
   683                           	callstack 0
   684  000011                     ___aomod@counter:
   685                           	callstack 0
   686  000011                     fputs@i:
   687                           	callstack 0
   688                           
   689                           ; 2 bytes @ 0x10
   690  000011                     	ds	1
   691  000012                     ___aodiv@sign:
   692                           	callstack 0
   693  000012                     ___aomod@sign:
   694                           	callstack 0
   695                           
   696                           ; 1 bytes @ 0x11
   697  000012                     	ds	1
   698  000013                     ?_abs:
   699                           	callstack 0
   700  000013                     ?_pad:
   701                           	callstack 0
   702  000013                     pad@fp:
   703                           	callstack 0
   704  000013                     abs@a:
   705                           	callstack 0
   706  000013                     ___flmul@a:
   707                           	callstack 0
   708  000013                     ___aodiv@quotient:
   709                           	callstack 0
   710                           
   711                           ; 8 bytes @ 0x12
   712  000013                     	ds	2
   713  000015                     ??_abs:
   714  000015                     pad@buf:
   715                           	callstack 0
   716                           
   717                           ; 2 bytes @ 0x14
   718  000015                     	ds	2
   719  000017                     ??___flmul:
   720  000017                     pad@p:
   721                           	callstack 0
   722                           
   723                           ; 2 bytes @ 0x16
   724  000017                     	ds	2
   725  000019                     ??_pad:
   726                           
   727                           ; 1 bytes @ 0x18
   728  000019                     	ds	1
   729  00001A                     pad@i:
   730                           	callstack 0
   731                           
   732                           ; 2 bytes @ 0x19
   733  00001A                     	ds	1
   734  00001B                     ___flmul@sign:
   735                           	callstack 0
   736                           
   737                           ; 1 bytes @ 0x1A
   738  00001B                     	ds	1
   739  00001C                     pad@w:
   740                           	callstack 0
   741  00001C                     ___flmul@grs:
   742                           	callstack 0
   743                           
   744                           ; 4 bytes @ 0x1B
   745  00001C                     	ds	2
   746  00001E                     ?_dtoa:
   747                           	callstack 0
   748  00001E                     dtoa@fp:
   749                           	callstack 0
   750                           
   751                           ; 2 bytes @ 0x1D
   752  00001E                     	ds	2
   753  000020                     ___flmul@aexp:
   754                           	callstack 0
   755  000020                     dtoa@d:
   756                           	callstack 0
   757                           
   758                           ; 8 bytes @ 0x1F
   759  000020                     	ds	1
   760  000021                     ___flmul@bexp:
   761                           	callstack 0
   762                           
   763                           ; 1 bytes @ 0x20
   764  000021                     	ds	1
   765  000022                     ___flmul@prod:
   766                           	callstack 0
   767                           
   768                           ; 4 bytes @ 0x21
   769  000022                     	ds	4
   770  000026                     ___flmul@temp:
   771                           	callstack 0
   772                           
   773                           ; 2 bytes @ 0x25
   774  000026                     	ds	2
   775  000028                     ??_dtoa:
   776  000028                     ?___fltol:
   777                           	callstack 0
   778  000028                     ___fltol@f1:
   779                           	callstack 0
   780                           
   781                           ; 4 bytes @ 0x27
   782  000028                     	ds	4
   783  00002C                     ??___fltol:
   784                           
   785                           ; 1 bytes @ 0x2B
   786  00002C                     	ds	4
   787  000030                     ___fltol@sign1:
   788                           	callstack 0
   789  000030                     _dtoa$1984:
   790                           	callstack 0
   791                           
   792                           ; 2 bytes @ 0x2F
   793  000030                     	ds	1
   794  000031                     ___fltol@exp1:
   795                           	callstack 0
   796                           
   797                           ; 1 bytes @ 0x30
   798  000031                     	ds	1
   799  000032                     dtoa@p:
   800                           	callstack 0
   801                           
   802                           ; 2 bytes @ 0x31
   803  000032                     	ds	2
   804  000034                     dtoa@w:
   805                           	callstack 0
   806                           
   807                           ; 2 bytes @ 0x33
   808  000034                     	ds	2
   809  000036                     dtoa@s:
   810                           	callstack 0
   811                           
   812                           ; 2 bytes @ 0x35
   813  000036                     	ds	2
   814  000038                     dtoa@n:
   815                           	callstack 0
   816                           
   817                           ; 8 bytes @ 0x37
   818  000038                     	ds	8
   819  000040                     dtoa@i:
   820                           	callstack 0
   821                           
   822                           ; 2 bytes @ 0x3F
   823  000040                     	ds	2
   824  000042                     ?_vfpfcnvrt:
   825                           	callstack 0
   826  000042                     vfpfcnvrt@fp:
   827                           	callstack 0
   828                           
   829                           ; 2 bytes @ 0x41
   830  000042                     	ds	2
   831  000044                     vfpfcnvrt@fmt:
   832                           	callstack 0
   833                           
   834                           ; 2 bytes @ 0x43
   835  000044                     	ds	2
   836  000046                     vfpfcnvrt@ap:
   837                           	callstack 0
   838                           
   839                           ; 2 bytes @ 0x45
   840  000046                     	ds	2
   841  000048                     ??_vfpfcnvrt:
   842                           
   843                           ; 1 bytes @ 0x47
   844  000048                     	ds	2
   845  00004A                     vfpfcnvrt@ll:
   846                           	callstack 0
   847                           
   848                           ; 8 bytes @ 0x49
   849  00004A                     	ds	8
   850  000052                     ?_vfprintf:
   851                           	callstack 0
   852  000052                     vfprintf@fp:
   853                           	callstack 0
   854                           
   855                           ; 2 bytes @ 0x51
   856  000052                     	ds	2
   857  000054                     vfprintf@fmt:
   858                           	callstack 0
   859                           
   860                           ; 2 bytes @ 0x53
   861  000054                     	ds	2
   862  000056                     vfprintf@ap:
   863                           	callstack 0
   864                           
   865                           ; 2 bytes @ 0x55
   866  000056                     	ds	2
   867  000058                     vfprintf@cfmt:
   868                           	callstack 0
   869                           
   870                           ; 2 bytes @ 0x57
   871  000058                     	ds	2
   872  00005A                     printf@ap:
   873                           	callstack 0
   874                           
   875                           ; 2 bytes @ 0x59
   876  00005A                     	ds	2
   877  00005C                     ??_main:
   878                           
   879                           ; 1 bytes @ 0x5B
   880  00005C                     	ds	3
   881                           
   882 ;;
   883 ;;Main: autosize = 0, tempsize = 3, incstack = 0, save=0
   884 ;;
   885 ;; *************** function _main *****************
   886 ;; Defined at:
   887 ;;		line 159 in file "main.c"
   888 ;; Parameters:    Size  Location     Type
   889 ;;		None
   890 ;; Auto vars:     Size  Location     Type
   891 ;;  j               2   12[BANK0 ] int 
   892 ;;  j               2   10[BANK0 ] int 
   893 ;; Return value:  Size  Location     Type
   894 ;;                  1    wreg      void 
   895 ;; Registers used:
   896 ;;		wreg, fsr1l, fsr1h, fsr2l, fsr2h, status,2, status,0, tblptrl, tblptrh, tblptru, prodl, prodh, cstack
   897 ;; Tracked objects:
   898 ;;		On entry : 0/0
   899 ;;		On exit  : 0/0
   900 ;;		Unchanged: 0/0
   901 ;; Data sizes:     COMRAM   BANK0   BANK1   BANK2   BANK3   BANK4   BANK5   BANK6   BANK7   BANK8   BANK9  BANK10  BANK1
      +1  BANK12  BANK13  BANK14  BANK15  BANK16  BANK17  BANK18  BANK19  BANK20  BANK21  BANK22  BANK23  BANK24  BANK25  BANK2
      +6  BANK27  BANK28  BANK29  BANK30  BANK31
   902 ;;      Params:         0       0       0       0       0       0       0       0       0       0       0       0       
      +0       0       0       0       0       0       0       0       0       0       0       0       0       0       0       
      +0       0       0       0       0       0
   903 ;;      Locals:         0       4       0       0       0       0       0       0       0       0       0       0       
      +0       0       0       0       0       0       0       0       0       0       0       0       0       0       0       
      +0       0       0       0       0       0
   904 ;;      Temps:          3       0       0       0       0       0       0       0       0       0       0       0       
      +0       0       0       0       0       0       0       0       0       0       0       0       0       0       0       
      +0       0       0       0       0       0
   905 ;;      Totals:         3       4       0       0       0       0       0       0       0       0       0       0       
      +0       0       0       0       0       0       0       0       0       0       0       0       0       0       0       
      +0       0       0       0       0       0
   906 ;;Total ram usage:        7 bytes
   907 ;; Hardware stack levels required when called: 13
   908 ;; This function calls:
   909 ;;		_INT0_SetInterruptHandler
   910 ;;		_SYSTEM_Initialize
   911 ;;		___flmul
   912 ;;		___fltol
   913 ;;		___xxtofl
   914 ;;		_printf
   915 ;; This function is called by:
   916 ;;		Startup code after reset
   917 ;; This function uses a non-reentrant model
   918 ;;
   919                           
   920                           	psect	text0
   921  0020BA                     __ptext0:
   922                           	callstack 0
   923  0020BA                     _main:
   924                           	callstack 18
   925  0020BA                     
   926                           ;main.c: 161:     SYSTEM_Initialize();
   927  0020BA  ECB3  F01C         	call	_SYSTEM_Initialize	;wreg free
   928                           
   929                           ;main.c: 162:     INT0_SetInterruptHandler(counterHall_callback);
   930  0020BE  0E14               	movlw	low _counterHall_callback
   931  0020C0  6E01               	movwf	INT0_SetInterruptHandler@InterruptHandler^0,c
   932  0020C2  0E39               	movlw	high _counterHall_callback
   933  0020C4  6E02               	movwf	(INT0_SetInterruptHandler@InterruptHandler+1)^0,c
   934  0020C6  0E00               	movlw	low (_counterHall_callback shr (0+16))
   935  0020C8  6E03               	movwf	(INT0_SetInterruptHandler@InterruptHandler+2)^0,c
   936  0020CA  EC31  F01D         	call	_INT0_SetInterruptHandler	;wreg free
   937  0020CE                     
   938                           ;main.c: 168:     (INTCON0bits.GIE = 1);
   939  0020CE  8ED2               	bsf	210,7,c	;volatile
   940  0020D0                     
   941                           ;main.c: 175:     _delay((unsigned long)((500)*(500000/4000.0)));
   942  0020D0  0E52               	movlw	82
   943  0020D2  6E5C               	movwf	??_main^0,c
   944  0020D4  0E2A               	movlw	42
   945  0020D6                     u2157:
   946  0020D6  2EE8               	decfsz	wreg,f,c
   947  0020D8  D7FE               	bra	u2157
   948  0020DA  2E5C               	decfsz	??_main^0,f,c
   949  0020DC  D7FC               	bra	u2157
   950  0020DE                     
   951                           ;main.c: 177:     LATAbits.LATA0 = 0;
   952  0020DE  90BA               	bcf	186,0,c	;volatile
   953  0020E0                     
   954                           ;main.c: 178:     LATAbits.LATA1 = 1;
   955  0020E0  82BA               	bsf	186,1,c	;volatile
   956  0020E2                     
   957                           ;main.c: 179:     LATAbits.LATA2 = 1;
   958  0020E2  84BA               	bsf	186,2,c	;volatile
   959  0020E4                     
   960                           ;main.c: 180:     LATEbits.LATE2 = 0;
   961  0020E4  94BE               	bcf	190,2,c	;volatile
   962  0020E6                     
   963                           ;main.c: 182:     printf(" \r\n");
   964  0020E6  0EB4               	movlw	low (STR_3+47)
   965  0020E8  0100               	movlb	0	; () banked
   966  0020EA  6F9E               	movwf	printf@fmt& (0+255),b
   967  0020EC  0E20               	movlw	high (STR_3+47)
   968  0020EE  6F9F               	movwf	(printf@fmt+1)& (0+255),b
   969  0020F0  ECA0  F01C         	call	_printf	;wreg free
   970  0020F4                     
   971                           ;main.c: 183:     printf("Start up delay. Begin waiting for r/c pulses on input pin. \r\
      +                          n");
   972  0020F4  0E47               	movlw	low STR_2
   973  0020F6  0100               	movlb	0	; () banked
   974  0020F8  6F9E               	movwf	printf@fmt& (0+255),b
   975  0020FA  0E20               	movlw	high STR_2
   976  0020FC  6F9F               	movwf	(printf@fmt+1)& (0+255),b
   977  0020FE  ECA0  F01C         	call	_printf	;wreg free
   978  002102                     
   979                           ;main.c: 184:     printf("Data will be printed after pulses are received. \r\n");
   980  002102  0E85               	movlw	low STR_3
   981  002104  0100               	movlb	0	; () banked
   982  002106  6F9E               	movwf	printf@fmt& (0+255),b
   983  002108  0E20               	movlw	high STR_3
   984  00210A  6F9F               	movwf	(printf@fmt+1)& (0+255),b
   985  00210C  ECA0  F01C         	call	_printf	;wreg free
   986                           
   987                           ;main.c: 187:     switch (mody) {
   988  002110  EFF1  F010         	goto	l3277
   989  002114                     l3241:
   990  002114  0E00               	movlw	0
   991  002116  0100               	movlb	0	; () banked
   992  002118  6FA9               	movwf	(main@j+1)& (0+255),b
   993  00211A  0E00               	movlw	0
   994  00211C  6FA8               	movwf	main@j& (0+255),b
   995  00211E                     l3247:
   996                           
   997                           ; BSR set to: 0
   998                           ;main.c: 189:                 _delay((unsigned long)((100)*(500000/4000.0)));
   999  00211E  0E11               	movlw	17
  1000  002120  6E5C               	movwf	??_main^0,c
  1001  002122  0E3A               	movlw	58
  1002  002124                     u2167:
  1003  002124  2EE8               	decfsz	wreg,f,c
  1004  002126  D7FE               	bra	u2167
  1005  002128  2E5C               	decfsz	??_main^0,f,c
  1006  00212A  D7FC               	bra	u2167
  1007  00212C  D000               	nop2	
  1008  00212E                     
  1009                           ;main.c: 190:                 LATEbits.LATE2 = 1;
  1010  00212E  84BE               	bsf	190,2,c	;volatile
  1011                           
  1012                           ;main.c: 191:                 _delay((unsigned long)((100)*(500000/4000.0)));
  1013  002130  0E11               	movlw	17
  1014  002132  6E5C               	movwf	??_main^0,c
  1015  002134  0E3A               	movlw	58
  1016  002136                     u2177:
  1017  002136  2EE8               	decfsz	wreg,f,c
  1018  002138  D7FE               	bra	u2177
  1019  00213A  2E5C               	decfsz	??_main^0,f,c
  1020  00213C  D7FC               	bra	u2177
  1021  00213E  D000               	nop2	
  1022  002140                     
  1023                           ;main.c: 192:                 LATEbits.LATE2 = 0;
  1024  002140  94BE               	bcf	190,2,c	;volatile
  1025  002142                     
  1026                           ;main.c: 193:             }
  1027  002142  0100               	movlb	0	; () banked
  1028  002144  4BA8               	infsnz	main@j& (0+255),f,b
  1029  002146  2BA9               	incf	(main@j+1)& (0+255),f,b
  1030  002148  BFA9               	btfsc	(main@j+1)& (0+255),7,b
  1031  00214A  EFB0  F010         	goto	u2081
  1032  00214E  51A9               	movf	(main@j+1)& (0+255),w,b
  1033  002150  E109               	bnz	u2080
  1034  002152  0E06               	movlw	6
  1035  002154  5DA8               	subwf	main@j& (0+255),w,b
  1036  002156  A0D8               	btfss	status,0,c
  1037  002158  EFB0  F010         	goto	u2081
  1038  00215C  EFB2  F010         	goto	u2080
  1039  002160                     u2081:
  1040  002160  EF8F  F010         	goto	l3247
  1041  002164                     u2080:
  1042  002164                     
  1043                           ; BSR set to: 0
  1044                           ;main.c: 194:             _delay((unsigned long)((35000)*(500000/4000.0)));
  1045  002164  0E17               	movlw	23
  1046  002166  6E5D               	movwf	(??_main+1)^0,c
  1047  002168  0E32               	movlw	50
  1048  00216A  6E5C               	movwf	??_main^0,c
  1049  00216C  0EC0               	movlw	192
  1050  00216E                     u2187:
  1051  00216E  2EE8               	decfsz	wreg,f,c
  1052  002170  D7FE               	bra	u2187
  1053  002172  2E5C               	decfsz	??_main^0,f,c
  1054  002174  D7FC               	bra	u2187
  1055  002176  2E5D               	decfsz	(??_main+1)^0,f,c
  1056  002178  D7FA               	bra	u2187
  1057  00217A  D000               	nop2	
  1058  00217C                     
  1059                           ;main.c: 196:             for (int j = 0; j <= 5; j++) {
  1060  00217C  0E00               	movlw	0
  1061  00217E  0100               	movlb	0	; () banked
  1062  002180  6FAB               	movwf	(main@j_1477+1)& (0+255),b
  1063  002182  0E00               	movlw	0
  1064  002184  6FAA               	movwf	main@j_1477& (0+255),b
  1065  002186                     l3263:
  1066                           
  1067                           ; BSR set to: 0
  1068                           ;main.c: 197:                 _delay((unsigned long)((100)*(500000/4000.0)));
  1069  002186  0E11               	movlw	17
  1070  002188  6E5C               	movwf	??_main^0,c
  1071  00218A  0E3A               	movlw	58
  1072  00218C                     u2197:
  1073  00218C  2EE8               	decfsz	wreg,f,c
  1074  00218E  D7FE               	bra	u2197
  1075  002190  2E5C               	decfsz	??_main^0,f,c
  1076  002192  D7FC               	bra	u2197
  1077  002194  D000               	nop2	
  1078  002196                     
  1079                           ;main.c: 198:                 LATEbits.LATE2 = 1;
  1080  002196  84BE               	bsf	190,2,c	;volatile
  1081                           
  1082                           ;main.c: 199:                 _delay((unsigned long)((100)*(500000/4000.0)));
  1083  002198  0E11               	movlw	17
  1084  00219A  6E5C               	movwf	??_main^0,c
  1085  00219C  0E3A               	movlw	58
  1086  00219E                     u2207:
  1087  00219E  2EE8               	decfsz	wreg,f,c
  1088  0021A0  D7FE               	bra	u2207
  1089  0021A2  2E5C               	decfsz	??_main^0,f,c
  1090  0021A4  D7FC               	bra	u2207
  1091  0021A6  D000               	nop2	
  1092  0021A8                     
  1093                           ;main.c: 200:                 LATEbits.LATE2 = 0;
  1094  0021A8  94BE               	bcf	190,2,c	;volatile
  1095  0021AA                     
  1096                           ;main.c: 201:             }
  1097  0021AA  0100               	movlb	0	; () banked
  1098  0021AC  4BAA               	infsnz	main@j_1477& (0+255),f,b
  1099  0021AE  2BAB               	incf	(main@j_1477+1)& (0+255),f,b
  1100  0021B0  BFAB               	btfsc	(main@j_1477+1)& (0+255),7,b
  1101  0021B2  EFE4  F010         	goto	u2091
  1102  0021B6  51AB               	movf	(main@j_1477+1)& (0+255),w,b
  1103  0021B8  E109               	bnz	u2090
  1104  0021BA  0E06               	movlw	6
  1105  0021BC  5DAA               	subwf	main@j_1477& (0+255),w,b
  1106  0021BE  A0D8               	btfss	status,0,c
  1107  0021C0  EFE4  F010         	goto	u2091
  1108  0021C4  EFE6  F010         	goto	u2090
  1109  0021C8                     u2091:
  1110  0021C8  EFC3  F010         	goto	l3263
  1111  0021CC                     u2090:
  1112  0021CC  EF20  F011         	goto	l3287
  1113  0021D0                     l3271:
  1114  0021D0  0E52               	movlw	82
  1115  0021D2  6E5C               	movwf	??_main^0,c
  1116  0021D4  0E2A               	movlw	42
  1117  0021D6                     u2217:
  1118  0021D6  2EE8               	decfsz	wreg,f,c
  1119  0021D8  D7FE               	bra	u2217
  1120  0021DA  2E5C               	decfsz	??_main^0,f,c
  1121  0021DC  D7FC               	bra	u2217
  1122                           
  1123                           ;main.c: 204:             break;
  1124  0021DE  EF20  F011         	goto	l3287
  1125  0021E2                     l3277:
  1126  0021E2  C07C  F05C         	movff	_mody,??_main
  1127  0021E6  C07D  F05D         	movff	_mody+1,??_main+1
  1128                           
  1129                           ; Switch on 2 bytes has been partitioned into a top level switch of size 1, and 1 sub-sw
      +                          itches
  1130                           ; Switch size 1, requested type "simple"
  1131                           ; Number of cases is 1, Range of values is 0 to 0
  1132                           ; switch strategies available:
  1133                           ; Name         Instructions Cycles
  1134                           ; simple_byte            4     3 (average)
  1135                           ;	Chosen strategy is simple_byte
  1136  0021EA  505D               	movf	(??_main+1)^0,w,c
  1137  0021EC  0A00               	xorlw	0	; case 0
  1138  0021EE  B4D8               	btfsc	status,2,c
  1139  0021F0  EFFC  F010         	goto	l3459
  1140  0021F4  EF20  F011         	goto	l3287
  1141  0021F8                     l3459:
  1142                           
  1143                           ; Switch size 1, requested type "simple"
  1144                           ; Number of cases is 3, Range of values is 0 to 2
  1145                           ; switch strategies available:
  1146                           ; Name         Instructions Cycles
  1147                           ; simple_byte           10     6 (average)
  1148                           ;	Chosen strategy is simple_byte
  1149  0021F8  505C               	movf	??_main^0,w,c
  1150  0021FA  0A00               	xorlw	0	; case 0
  1151  0021FC  B4D8               	btfsc	status,2,c
  1152  0021FE  EF8A  F010         	goto	l3241
  1153  002202  0A01               	xorlw	1	; case 1
  1154  002204  B4D8               	btfsc	status,2,c
  1155  002206  EFE8  F010         	goto	l3271
  1156  00220A  0A03               	xorlw	3	; case 2
  1157  00220C  B4D8               	btfsc	status,2,c
  1158  00220E  EFE8  F010         	goto	l3271
  1159  002212  EF20  F011         	goto	l3287
  1160  002216                     l3279:
  1161  002216  0E00               	movlw	0
  1162  002218  0100               	movlb	0	; () banked
  1163  00221A  6F75               	movwf	(_count+1)& (0+255),b
  1164  00221C  0E00               	movlw	0
  1165  00221E  6F74               	movwf	_count& (0+255),b
  1166                           
  1167                           ;main.c: 213:             break;
  1168  002220  EF3A  F011         	goto	l3289
  1169  002224                     l3281:
  1170  002224  0E00               	movlw	0
  1171  002226  0100               	movlb	0	; () banked
  1172  002228  6F75               	movwf	(_count+1)& (0+255),b
  1173  00222A  0E32               	movlw	50
  1174  00222C  6F74               	movwf	_count& (0+255),b
  1175                           
  1176                           ;main.c: 215:             break;
  1177  00222E  EF3A  F011         	goto	l3289
  1178  002232                     l3283:
  1179  002232  0E00               	movlw	0
  1180  002234  0100               	movlb	0	; () banked
  1181  002236  6F75               	movwf	(_count+1)& (0+255),b
  1182  002238  0E05               	movlw	5
  1183  00223A  6F74               	movwf	_count& (0+255),b
  1184                           
  1185                           ;main.c: 217:             break;
  1186  00223C  EF3A  F011         	goto	l3289
  1187  002240                     l3287:
  1188  002240  C07C  F05C         	movff	_mody,??_main
  1189  002244  C07D  F05D         	movff	_mody+1,??_main+1
  1190                           
  1191                           ; Switch on 2 bytes has been partitioned into a top level switch of size 1, and 1 sub-sw
      +                          itches
  1192                           ; Switch size 1, requested type "simple"
  1193                           ; Number of cases is 1, Range of values is 0 to 0
  1194                           ; switch strategies available:
  1195                           ; Name         Instructions Cycles
  1196                           ; simple_byte            4     3 (average)
  1197                           ;	Chosen strategy is simple_byte
  1198  002248  505D               	movf	(??_main+1)^0,w,c
  1199  00224A  0A00               	xorlw	0	; case 0
  1200  00224C  B4D8               	btfsc	status,2,c
  1201  00224E  EF2B  F011         	goto	l3461
  1202  002252  EF3A  F011         	goto	l3289
  1203  002256                     l3461:
  1204                           
  1205                           ; Switch size 1, requested type "simple"
  1206                           ; Number of cases is 3, Range of values is 0 to 2
  1207                           ; switch strategies available:
  1208                           ; Name         Instructions Cycles
  1209                           ; simple_byte           10     6 (average)
  1210                           ;	Chosen strategy is simple_byte
  1211  002256  505C               	movf	??_main^0,w,c
  1212  002258  0A00               	xorlw	0	; case 0
  1213  00225A  B4D8               	btfsc	status,2,c
  1214  00225C  EF0B  F011         	goto	l3279
  1215  002260  0A01               	xorlw	1	; case 1
  1216  002262  B4D8               	btfsc	status,2,c
  1217  002264  EF12  F011         	goto	l3281
  1218  002268  0A03               	xorlw	3	; case 2
  1219  00226A  B4D8               	btfsc	status,2,c
  1220  00226C  EF19  F011         	goto	l3283
  1221  002270  EF3A  F011         	goto	l3289
  1222  002274                     l3289:
  1223                           
  1224                           ;main.c: 225:         Width = SMT1CPW;
  1225  002274  013F               	movlb	63	; () banked
  1226  002276  5118               	movf	24,w,b	;volatile
  1227  002278  0100               	movlb	0	; () banked
  1228  00227A  6FB8               	movwf	_Width& (0+255),b
  1229  00227C  013F               	movlb	63	; () banked
  1230  00227E  5119               	movf	25,w,b	;volatile
  1231  002280  0100               	movlb	0	; () banked
  1232  002282  6FB9               	movwf	(_Width+1)& (0+255),b
  1233  002284  013F               	movlb	63	; () banked
  1234  002286  511A               	movf	26,w,b	;volatile
  1235  002288  0100               	movlb	0	; () banked
  1236  00228A  6FBA               	movwf	(_Width+2)& (0+255),b
  1237  00228C  6BBB               	clrf	(_Width+3)& (0+255),b
  1238                           
  1239                           ;main.c: 226:         Period = SMT1CPR;
  1240  00228E  013F               	movlb	63	; () banked
  1241  002290  5115               	movf	21,w,b	;volatile
  1242  002292  0100               	movlb	0	; () banked
  1243  002294  6F64               	movwf	_Period& (0+255),b
  1244  002296  013F               	movlb	63	; () banked
  1245  002298  5116               	movf	22,w,b	;volatile
  1246  00229A  0100               	movlb	0	; () banked
  1247  00229C  6F65               	movwf	(_Period+1)& (0+255),b
  1248  00229E  013F               	movlb	63	; () banked
  1249  0022A0  5117               	movf	23,w,b	;volatile
  1250  0022A2  0100               	movlb	0	; () banked
  1251  0022A4  6F66               	movwf	(_Period+2)& (0+255),b
  1252  0022A6  6B67               	clrf	(_Period+3)& (0+255),b
  1253                           
  1254                           ;main.c: 227:         Timer = SMT1TMR;
  1255  0022A8  013F               	movlb	63	; () banked
  1256  0022AA  5112               	movf	18,w,b	;volatile
  1257  0022AC  0100               	movlb	0	; () banked
  1258  0022AE  6F60               	movwf	_Timer& (0+255),b
  1259  0022B0  013F               	movlb	63	; () banked
  1260  0022B2  5113               	movf	19,w,b	;volatile
  1261  0022B4  0100               	movlb	0	; () banked
  1262  0022B6  6F61               	movwf	(_Timer+1)& (0+255),b
  1263  0022B8  013F               	movlb	63	; () banked
  1264  0022BA  5114               	movf	20,w,b	;volatile
  1265  0022BC  0100               	movlb	0	; () banked
  1266  0022BE  6F62               	movwf	(_Timer+2)& (0+255),b
  1267  0022C0  6B63               	clrf	(_Timer+3)& (0+255),b
  1268                           
  1269                           ;main.c: 232:         switch (mody) {
  1270  0022C2  EFD4  F011         	goto	l3299
  1271  0022C6                     l3291:
  1272                           
  1273                           ; BSR set to: 0
  1274  0022C6  C0B8  F05C         	movff	_Width,??_main
  1275  0022CA  C0B9  F05D         	movff	_Width+1,??_main+1
  1276  0022CE  90D8               	bcf	status,0,c
  1277  0022D0  365C               	rlcf	??_main^0,f,c
  1278  0022D2  365D               	rlcf	(??_main+1)^0,f,c
  1279  0022D4  0ED4               	movlw	212
  1280  0022D6  245C               	addwf	??_main^0,w,c
  1281  0022D8  6F78               	movwf	_ip_pulse& (0+255),b
  1282  0022DA  0EFE               	movlw	254
  1283  0022DC  205D               	addwfc	(??_main+1)^0,w,c
  1284  0022DE  6F79               	movwf	(_ip_pulse+1)& (0+255),b
  1285                           
  1286                           ;main.c: 236:                 break;
  1287  0022E0  EFF5  F011         	goto	l3305
  1288  0022E4                     l3293:
  1289                           
  1290                           ; BSR set to: 0
  1291  0022E4  0E00               	movlw	0
  1292  0022E6  6E13               	movwf	___flmul@a^0,c
  1293  0022E8  0E00               	movlw	0
  1294  0022EA  6E14               	movwf	(___flmul@a+1)^0,c
  1295  0022EC  0E90               	movlw	144
  1296  0022EE  6E15               	movwf	(___flmul@a+2)^0,c
  1297  0022F0  0E40               	movlw	64
  1298  0022F2  6E16               	movwf	(___flmul@a+3)^0,c
  1299  0022F4  0E57               	movlw	87
  1300  0022F6  25B8               	addwf	_Width& (0+255),w,b
  1301  0022F8  6E01               	movwf	___xxtofl@val^0,c
  1302  0022FA  0EFF               	movlw	255
  1303  0022FC  21B9               	addwfc	(_Width+1)& (0+255),w,b
  1304  0022FE  6E02               	movwf	(___xxtofl@val+1)^0,c
  1305  002300  0EFF               	movlw	255
  1306  002302  21BA               	addwfc	(_Width+2)& (0+255),w,b
  1307  002304  6E03               	movwf	(___xxtofl@val+2)^0,c
  1308  002306  0EFF               	movlw	255
  1309  002308  21BB               	addwfc	(_Width+3)& (0+255),w,b
  1310  00230A  6E04               	movwf	(___xxtofl@val+3)^0,c
  1311  00230C  0E00               	movlw	0
  1312  00230E  EC5D  F017         	call	___xxtofl
  1313  002312  C001  F00F         	movff	?___xxtofl,___flmul@b
  1314  002316  C002  F010         	movff	?___xxtofl+1,___flmul@b+1
  1315  00231A  C003  F011         	movff	?___xxtofl+2,___flmul@b+2
  1316  00231E  C004  F012         	movff	?___xxtofl+3,___flmul@b+3
  1317  002322  ECBA  F012         	call	___flmul	;wreg free
  1318  002326  C00F  F028         	movff	?___flmul,___fltol@f1
  1319  00232A  C010  F029         	movff	?___flmul+1,___fltol@f1+1
  1320  00232E  C011  F02A         	movff	?___flmul+2,___fltol@f1+2
  1321  002332  C012  F02B         	movff	?___flmul+3,___fltol@f1+3
  1322  002336  ECAD  F019         	call	___fltol	;wreg free
  1323  00233A  C028  F078         	movff	?___fltol,_ip_pulse
  1324  00233E  C029  F079         	movff	?___fltol+1,_ip_pulse+1
  1325                           
  1326                           ;main.c: 238:                 break;
  1327  002342  EFF5  F011         	goto	l3305
  1328  002346                     l3295:
  1329                           
  1330                           ; BSR set to: 0
  1331  002346  0E00               	movlw	0
  1332  002348  6E13               	movwf	___flmul@a^0,c
  1333  00234A  0E00               	movlw	0
  1334  00234C  6E14               	movwf	(___flmul@a+1)^0,c
  1335  00234E  0E90               	movlw	144
  1336  002350  6E15               	movwf	(___flmul@a+2)^0,c
  1337  002352  0E40               	movlw	64
  1338  002354  6E16               	movwf	(___flmul@a+3)^0,c
  1339  002356  0E57               	movlw	87
  1340  002358  25B8               	addwf	_Width& (0+255),w,b
  1341  00235A  6E01               	movwf	___xxtofl@val^0,c
  1342  00235C  0EFF               	movlw	255
  1343  00235E  21B9               	addwfc	(_Width+1)& (0+255),w,b
  1344  002360  6E02               	movwf	(___xxtofl@val+1)^0,c
  1345  002362  0EFF               	movlw	255
  1346  002364  21BA               	addwfc	(_Width+2)& (0+255),w,b
  1347  002366  6E03               	movwf	(___xxtofl@val+2)^0,c
  1348  002368  0EFF               	movlw	255
  1349  00236A  21BB               	addwfc	(_Width+3)& (0+255),w,b
  1350  00236C  6E04               	movwf	(___xxtofl@val+3)^0,c
  1351  00236E  0E00               	movlw	0
  1352  002370  EC5D  F017         	call	___xxtofl
  1353  002374  C001  F00F         	movff	?___xxtofl,___flmul@b
  1354  002378  C002  F010         	movff	?___xxtofl+1,___flmul@b+1
  1355  00237C  C003  F011         	movff	?___xxtofl+2,___flmul@b+2
  1356  002380  C004  F012         	movff	?___xxtofl+3,___flmul@b+3
  1357  002384  ECBA  F012         	call	___flmul	;wreg free
  1358  002388  C00F  F028         	movff	?___flmul,___fltol@f1
  1359  00238C  C010  F029         	movff	?___flmul+1,___fltol@f1+1
  1360  002390  C011  F02A         	movff	?___flmul+2,___fltol@f1+2
  1361  002394  C012  F02B         	movff	?___flmul+3,___fltol@f1+3
  1362  002398  ECAD  F019         	call	___fltol	;wreg free
  1363  00239C  C028  F078         	movff	?___fltol,_ip_pulse
  1364  0023A0  C029  F079         	movff	?___fltol+1,_ip_pulse+1
  1365                           
  1366                           ;main.c: 241:                 break;
  1367  0023A4  EFF5  F011         	goto	l3305
  1368  0023A8                     l3299:
  1369                           
  1370                           ; BSR set to: 0
  1371  0023A8  C07C  F05C         	movff	_mody,??_main
  1372  0023AC  C07D  F05D         	movff	_mody+1,??_main+1
  1373                           
  1374                           ; Switch on 2 bytes has been partitioned into a top level switch of size 1, and 1 sub-sw
      +                          itches
  1375                           ; Switch size 1, requested type "simple"
  1376                           ; Number of cases is 1, Range of values is 0 to 0
  1377                           ; switch strategies available:
  1378                           ; Name         Instructions Cycles
  1379                           ; simple_byte            4     3 (average)
  1380                           ;	Chosen strategy is simple_byte
  1381  0023B0  505D               	movf	(??_main+1)^0,w,c
  1382  0023B2  0A00               	xorlw	0	; case 0
  1383  0023B4  B4D8               	btfsc	status,2,c
  1384  0023B6  EFDF  F011         	goto	l3463
  1385  0023BA  EFF5  F011         	goto	l3305
  1386  0023BE                     l3463:
  1387                           
  1388                           ; BSR set to: 0
  1389                           ; Switch size 1, requested type "simple"
  1390                           ; Number of cases is 3, Range of values is 0 to 2
  1391                           ; switch strategies available:
  1392                           ; Name         Instructions Cycles
  1393                           ; simple_byte           10     6 (average)
  1394                           ;	Chosen strategy is simple_byte
  1395  0023BE  505C               	movf	??_main^0,w,c
  1396  0023C0  0A00               	xorlw	0	; case 0
  1397  0023C2  B4D8               	btfsc	status,2,c
  1398  0023C4  EF63  F011         	goto	l3291
  1399  0023C8  0A01               	xorlw	1	; case 1
  1400  0023CA  B4D8               	btfsc	status,2,c
  1401  0023CC  EF72  F011         	goto	l3293
  1402  0023D0  0A03               	xorlw	3	; case 2
  1403  0023D2  B4D8               	btfsc	status,2,c
  1404  0023D4  EFA3  F011         	goto	l3295
  1405  0023D8  EFF5  F011         	goto	l3305
  1406  0023DC                     l3301:
  1407  0023DC  0E00               	movlw	0
  1408  0023DE  0100               	movlb	0	; () banked
  1409  0023E0  6F75               	movwf	(_count+1)& (0+255),b
  1410  0023E2  0E32               	movlw	50
  1411  0023E4  6F74               	movwf	_count& (0+255),b
  1412                           
  1413                           ;main.c: 249:                 break;
  1414  0023E6  EF24  F012         	goto	l3315
  1415  0023EA                     l3305:
  1416  0023EA  C07C  F05C         	movff	_mody,??_main
  1417  0023EE  C07D  F05D         	movff	_mody+1,??_main+1
  1418                           
  1419                           ; Switch on 2 bytes has been partitioned into a top level switch of size 1, and 1 sub-sw
      +                          itches
  1420                           ; Switch size 1, requested type "simple"
  1421                           ; Number of cases is 1, Range of values is 0 to 0
  1422                           ; switch strategies available:
  1423                           ; Name         Instructions Cycles
  1424                           ; simple_byte            4     3 (average)
  1425                           ;	Chosen strategy is simple_byte
  1426  0023F2  505D               	movf	(??_main+1)^0,w,c
  1427  0023F4  0A00               	xorlw	0	; case 0
  1428  0023F6  B4D8               	btfsc	status,2,c
  1429  0023F8  EF00  F012         	goto	l3465
  1430  0023FC  EF24  F012         	goto	l3315
  1431  002400                     l3465:
  1432                           
  1433                           ; Switch size 1, requested type "simple"
  1434                           ; Number of cases is 3, Range of values is 0 to 2
  1435                           ; switch strategies available:
  1436                           ; Name         Instructions Cycles
  1437                           ; simple_byte           10     6 (average)
  1438                           ;	Chosen strategy is simple_byte
  1439  002400  505C               	movf	??_main^0,w,c
  1440  002402  0A00               	xorlw	0	; case 0
  1441  002404  B4D8               	btfsc	status,2,c
  1442  002406  EF24  F012         	goto	l3315
  1443  00240A  0A01               	xorlw	1	; case 1
  1444  00240C  B4D8               	btfsc	status,2,c
  1445  00240E  EFEE  F011         	goto	l3301
  1446  002412  0A03               	xorlw	3	; case 2
  1447  002414  B4D8               	btfsc	status,2,c
  1448  002416  EF24  F012         	goto	l3315
  1449  00241A  EF24  F012         	goto	l3315
  1450  00241E                     l3307:
  1451  00241E  0E00               	movlw	0
  1452  002420  0100               	movlb	0	; () banked
  1453  002422  6F7B               	movwf	(_band+1)& (0+255),b
  1454  002424  0E05               	movlw	5
  1455  002426  6F7A               	movwf	_band& (0+255),b
  1456                           
  1457                           ;main.c: 257:                 break;
  1458  002428  EF3E  F012         	goto	l3317
  1459  00242C                     l3309:
  1460  00242C  0E00               	movlw	0
  1461  00242E  0100               	movlb	0	; () banked
  1462  002430  6F7B               	movwf	(_band+1)& (0+255),b
  1463  002432  0E1E               	movlw	30
  1464  002434  6F7A               	movwf	_band& (0+255),b
  1465                           
  1466                           ;main.c: 259:                 break;
  1467  002436  EF3E  F012         	goto	l3317
  1468  00243A                     l3311:
  1469  00243A  0E00               	movlw	0
  1470  00243C  0100               	movlb	0	; () banked
  1471  00243E  6F7B               	movwf	(_band+1)& (0+255),b
  1472  002440  0E02               	movlw	2
  1473  002442  6F7A               	movwf	_band& (0+255),b
  1474                           
  1475                           ;main.c: 261:                 break;
  1476  002444  EF3E  F012         	goto	l3317
  1477  002448                     l3315:
  1478  002448  C07C  F05C         	movff	_mody,??_main
  1479  00244C  C07D  F05D         	movff	_mody+1,??_main+1
  1480                           
  1481                           ; Switch on 2 bytes has been partitioned into a top level switch of size 1, and 1 sub-sw
      +                          itches
  1482                           ; Switch size 1, requested type "simple"
  1483                           ; Number of cases is 1, Range of values is 0 to 0
  1484                           ; switch strategies available:
  1485                           ; Name         Instructions Cycles
  1486                           ; simple_byte            4     3 (average)
  1487                           ;	Chosen strategy is simple_byte
  1488  002450  505D               	movf	(??_main+1)^0,w,c
  1489  002452  0A00               	xorlw	0	; case 0
  1490  002454  B4D8               	btfsc	status,2,c
  1491  002456  EF2F  F012         	goto	l3467
  1492  00245A  EF3E  F012         	goto	l3317
  1493  00245E                     l3467:
  1494                           
  1495                           ; Switch size 1, requested type "simple"
  1496                           ; Number of cases is 3, Range of values is 0 to 2
  1497                           ; switch strategies available:
  1498                           ; Name         Instructions Cycles
  1499                           ; simple_byte           10     6 (average)
  1500                           ;	Chosen strategy is simple_byte
  1501  00245E  505C               	movf	??_main^0,w,c
  1502  002460  0A00               	xorlw	0	; case 0
  1503  002462  B4D8               	btfsc	status,2,c
  1504  002464  EF0F  F012         	goto	l3307
  1505  002468  0A01               	xorlw	1	; case 1
  1506  00246A  B4D8               	btfsc	status,2,c
  1507  00246C  EF16  F012         	goto	l3309
  1508  002470  0A03               	xorlw	3	; case 2
  1509  002472  B4D8               	btfsc	status,2,c
  1510  002474  EF1D  F012         	goto	l3311
  1511  002478  EF3E  F012         	goto	l3317
  1512  00247C                     l3317:
  1513                           
  1514                           ;main.c: 264:         errsig = count - ip_pulse;
  1515  00247C  0100               	movlb	0	; () banked
  1516  00247E  5178               	movf	_ip_pulse& (0+255),w,b
  1517  002480  5D74               	subwf	_count& (0+255),w,b
  1518  002482  6F76               	movwf	_errsig& (0+255),b
  1519  002484  5179               	movf	(_ip_pulse+1)& (0+255),w,b
  1520  002486  5975               	subwfb	(_count+1)& (0+255),w,b
  1521  002488  6F77               	movwf	(_errsig+1)& (0+255),b
  1522                           
  1523                           ;main.c: 267:         if (errsig < 0) {
  1524  00248A  BF77               	btfsc	(_errsig+1)& (0+255),7,b
  1525  00248C  EF4C  F012         	goto	u2100
  1526  002490  EF4A  F012         	goto	u2101
  1527  002494                     u2101:
  1528  002494  EF53  F012         	goto	l3323
  1529  002498                     u2100:
  1530  002498                     
  1531                           ; BSR set to: 0
  1532                           ;main.c: 268:             LATAbits.LATA0 = 1;
  1533  002498  80BA               	bsf	186,0,c	;volatile
  1534                           
  1535                           ;main.c: 269:             LATAbits.LATA1 = 0;
  1536  00249A  92BA               	bcf	186,1,c	;volatile
  1537                           
  1538                           ;main.c: 270:             LATAbits.LATA2 = 1;
  1539  00249C  84BA               	bsf	186,2,c	;volatile
  1540  00249E                     
  1541                           ; BSR set to: 0
  1542                           ;main.c: 271:             reverse = +1;
  1543  00249E  0E00               	movlw	0
  1544  0024A0  6FBF               	movwf	(_reverse+1)& (0+255),b
  1545  0024A2  0E01               	movlw	1
  1546  0024A4  6FBE               	movwf	_reverse& (0+255),b
  1547  0024A6                     l3323:
  1548                           
  1549                           ; BSR set to: 0
  1550                           ;main.c: 275:         if ((errsig < band) && (errsig > -band))
  1551  0024A6  517A               	movf	_band& (0+255),w,b
  1552  0024A8  5D76               	subwf	_errsig& (0+255),w,b
  1553  0024AA  5177               	movf	(_errsig+1)& (0+255),w,b
  1554  0024AC  0A80               	xorlw	128
  1555  0024AE  6E5C               	movwf	??_main^0,c
  1556  0024B0  517B               	movf	(_band+1)& (0+255),w,b
  1557  0024B2  0A80               	xorlw	128
  1558  0024B4  585C               	subwfb	??_main^0,w,c
  1559  0024B6  B0D8               	btfsc	status,0,c
  1560  0024B8  EF60  F012         	goto	u2111
  1561  0024BC  EF62  F012         	goto	u2110
  1562  0024C0                     u2111:
  1563  0024C0  EF80  F012         	goto	l3331
  1564  0024C4                     u2110:
  1565  0024C4                     
  1566                           ; BSR set to: 0
  1567  0024C4  C07A  F05C         	movff	_band,??_main
  1568  0024C8  C07B  F05D         	movff	_band+1,??_main+1
  1569  0024CC  1E5C               	comf	??_main^0,f,c
  1570  0024CE  1E5D               	comf	(??_main+1)^0,f,c
  1571  0024D0  4A5C               	infsnz	??_main^0,f,c
  1572  0024D2  2A5D               	incf	(??_main+1)^0,f,c
  1573  0024D4  5176               	movf	_errsig& (0+255),w,b
  1574  0024D6  5C5C               	subwf	??_main^0,w,c
  1575  0024D8  505D               	movf	(??_main+1)^0,w,c
  1576  0024DA  0A80               	xorlw	128
  1577  0024DC  6E5E               	movwf	(??_main+2)^0,c
  1578  0024DE  5177               	movf	(_errsig+1)& (0+255),w,b
  1579  0024E0  0A80               	xorlw	128
  1580  0024E2  585E               	subwfb	(??_main+2)^0,w,c
  1581  0024E4  B0D8               	btfsc	status,0,c
  1582  0024E6  EF77  F012         	goto	u2121
  1583  0024EA  EF79  F012         	goto	u2120
  1584  0024EE                     u2121:
  1585  0024EE  EF80  F012         	goto	l3331
  1586  0024F2                     u2120:
  1587  0024F2                     
  1588                           ; BSR set to: 0
  1589                           ;main.c: 276:         {;main.c: 277:             LATAbits.LATA0 = 1;
  1590  0024F2  80BA               	bsf	186,0,c	;volatile
  1591                           
  1592                           ;main.c: 278:             LATAbits.LATA1 = 0;
  1593  0024F4  92BA               	bcf	186,1,c	;volatile
  1594                           
  1595                           ;main.c: 279:             LATAbits.LATA2 = 0;
  1596  0024F6  94BA               	bcf	186,2,c	;volatile
  1597  0024F8                     
  1598                           ; BSR set to: 0
  1599                           ;main.c: 280:             reverse = 0;
  1600  0024F8  0E00               	movlw	0
  1601  0024FA  6FBF               	movwf	(_reverse+1)& (0+255),b
  1602  0024FC  0E00               	movlw	0
  1603  0024FE  6FBE               	movwf	_reverse& (0+255),b
  1604  002500                     l3331:
  1605                           
  1606                           ; BSR set to: 0
  1607                           ;main.c: 284:         if (errsig > 0) {
  1608  002500  BF77               	btfsc	(_errsig+1)& (0+255),7,b
  1609  002502  EF8B  F012         	goto	u2131
  1610  002506  5177               	movf	(_errsig+1)& (0+255),w,b
  1611  002508  E108               	bnz	u2130
  1612  00250A  0576               	decf	_errsig& (0+255),w,b
  1613  00250C  A0D8               	btfss	status,0,c
  1614  00250E  EF8B  F012         	goto	u2131
  1615  002512  EF8D  F012         	goto	u2130
  1616  002516                     u2131:
  1617  002516  EF92  F012         	goto	l630
  1618  00251A                     u2130:
  1619  00251A                     
  1620                           ; BSR set to: 0
  1621                           ;main.c: 285:             LATAbits.LATA0 = 0;
  1622  00251A  90BA               	bcf	186,0,c	;volatile
  1623                           
  1624                           ;main.c: 286:             LATAbits.LATA1 = 1;
  1625  00251C  82BA               	bsf	186,1,c	;volatile
  1626                           
  1627                           ;main.c: 287:             LATAbits.LATA2 = 1;
  1628  00251E  84BA               	bsf	186,2,c	;volatile
  1629                           
  1630                           ;main.c: 288:             reverse = -1;
  1631  002520  69BE               	setf	_reverse& (0+255),b
  1632  002522  69BF               	setf	(_reverse+1)& (0+255),b
  1633  002524                     l630:
  1634                           
  1635                           ; BSR set to: 0
  1636                           ;main.c: 291:         LATEbits.LATE2 = reverse;
  1637  002524  B1BE               	btfsc	_reverse& (0+255),0,b
  1638  002526  D002               	bra	u2145
  1639  002528  94BE               	bcf	190,2,c	;volatile
  1640  00252A  D001               	bra	u2146
  1641  00252C                     u2145:
  1642  00252C  84BE               	bsf	190,2,c	;volatile
  1643  00252E                     u2146:
  1644  00252E                     
  1645                           ;main.c: 293:         printf("Input pulse =%d   Hall counter =%d   Error signal=%d   Rev
      +                          erse =%d \r\n", ip_pulse, count, errsig, reverse);
  1646  00252E  0E01               	movlw	low STR_4
  1647  002530  0100               	movlb	0	; () banked
  1648  002532  6F9E               	movwf	printf@fmt& (0+255),b
  1649  002534  0E20               	movlw	high STR_4
  1650  002536  6F9F               	movwf	(printf@fmt+1)& (0+255),b
  1651  002538  C078  F0A0         	movff	_ip_pulse,?_printf+2
  1652  00253C  C079  F0A1         	movff	_ip_pulse+1,?_printf+3
  1653  002540  C074  F0A2         	movff	_count,?_printf+4
  1654  002544  C075  F0A3         	movff	_count+1,?_printf+5
  1655  002548  C076  F0A4         	movff	_errsig,?_printf+6
  1656  00254C  C077  F0A5         	movff	_errsig+1,?_printf+7
  1657  002550  C0BE  F0A6         	movff	_reverse,?_printf+8
  1658  002554  C0BF  F0A7         	movff	_reverse+1,?_printf+9
  1659  002558  ECA0  F01C         	call	_printf	;wreg free
  1660  00255C                     
  1661                           ;main.c: 294:         _delay((unsigned long)((200)*(500000/4000.0)));
  1662  00255C  0E21               	movlw	33
  1663  00255E  6E5C               	movwf	??_main^0,c
  1664  002560  0E76               	movlw	118
  1665  002562                     u2227:
  1666  002562  2EE8               	decfsz	wreg,f,c
  1667  002564  D7FE               	bra	u2227
  1668  002566  2E5C               	decfsz	??_main^0,f,c
  1669  002568  D7FC               	bra	u2227
  1670  00256A  D000               	nop2	
  1671  00256C  EF3A  F011         	goto	l3289
  1672  002570  EF0D  F000         	goto	start
  1673  002574                     __end_of_main:
  1674                           	callstack 0
  1675                           
  1676 ;; *************** function _printf *****************
  1677 ;; Defined at:
  1678 ;;		line 5 in file "C:\Program Files\Microchip\xc8\v2.32\pic\sources\c99\common\printf.c"
  1679 ;; Parameters:    Size  Location     Type
  1680 ;;  fmt             2    0[BANK0 ] PTR const unsigned char 
  1681 ;;		 -> STR_4(70), STR_3(51), STR_2(62), STR_1(4), 
  1682 ;; Auto vars:     Size  Location     Type
  1683 ;;  ap              2   89[COMRAM] PTR void [1]
  1684 ;;		 -> ?_printf(2), 
  1685 ;;  ret             2    0        int 
  1686 ;; Return value:  Size  Location     Type
  1687 ;;                  2    0[BANK0 ] int 
  1688 ;; Registers used:
  1689 ;;		wreg, fsr1l, fsr1h, fsr2l, fsr2h, status,2, status,0, tblptrl, tblptrh, tblptru, cstack
  1690 ;; Tracked objects:
  1691 ;;		On entry : 0/0
  1692 ;;		On exit  : 0/0
  1693 ;;		Unchanged: 0/0
  1694 ;; Data sizes:     COMRAM   BANK0   BANK1   BANK2   BANK3   BANK4   BANK5   BANK6   BANK7   BANK8   BANK9  BANK10  BANK1
      +1  BANK12  BANK13  BANK14  BANK15  BANK16  BANK17  BANK18  BANK19  BANK20  BANK21  BANK22  BANK23  BANK24  BANK25  BANK2
      +6  BANK27  BANK28  BANK29  BANK30  BANK31
  1695 ;;      Params:         0      10       0       0       0       0       0       0       0       0       0       0       
      +0       0       0       0       0       0       0       0       0       0       0       0       0       0       0       
      +0       0       0       0       0       0
  1696 ;;      Locals:         2       0       0       0       0       0       0       0       0       0       0       0       
      +0       0       0       0       0       0       0       0       0       0       0       0       0       0       0       
      +0       0       0       0       0       0
  1697 ;;      Temps:          0       0       0       0       0       0       0       0       0       0       0       0       
      +0       0       0       0       0       0       0       0       0       0       0       0       0       0       0       
      +0       0       0       0       0       0
  1698 ;;      Totals:         2      10       0       0       0       0       0       0       0       0       0       0       
      +0       0       0       0       0       0       0       0       0       0       0       0       0       0       0       
      +0       0       0       0       0       0
  1699 ;;Total ram usage:       12 bytes
  1700 ;; Hardware stack levels used: 1
  1701 ;; Hardware stack levels required when called: 12
  1702 ;; This function calls:
  1703 ;;		_vfprintf
  1704 ;; This function is called by:
  1705 ;;		_main
  1706 ;; This function uses a non-reentrant model
  1707 ;;
  1708                           
  1709                           	psect	text1
  1710  003940                     __ptext1:
  1711                           	callstack 0
  1712  003940                     _printf:
  1713                           	callstack 18
  1714  003940  0EA0               	movlw	low (?_printf+2)
  1715  003942  6E5A               	movwf	printf@ap^0,c
  1716  003944  0E00               	movlw	high (?_printf+2)
  1717  003946  6E5B               	movwf	(printf@ap+1)^0,c
  1718  003948  0E00               	movlw	0
  1719  00394A  6E52               	movwf	vfprintf@fp^0,c
  1720  00394C  0E00               	movlw	0
  1721  00394E  6E53               	movwf	(vfprintf@fp+1)^0,c
  1722  003950  C09E  F054         	movff	printf@fmt,vfprintf@fmt
  1723  003954  C09F  F055         	movff	printf@fmt+1,vfprintf@fmt+1
  1724  003958  0E5A               	movlw	low printf@ap
  1725  00395A  6E56               	movwf	vfprintf@ap^0,c
  1726  00395C  0E00               	movlw	high printf@ap
  1727  00395E  6E57               	movwf	(vfprintf@ap+1)^0,c
  1728  003960  ECA3  F01B         	call	_vfprintf	;wreg free
  1729  003964  0012               	return		;funcret
  1730  003966                     __end_of_printf:
  1731                           	callstack 0
  1732                           
  1733 ;; *************** function _vfprintf *****************
  1734 ;; Defined at:
  1735 ;;		line 1390 in file "C:\Program Files\Microchip\xc8\v2.32\pic\sources\c99\common\doprnt.c"
  1736 ;; Parameters:    Size  Location     Type
  1737 ;;  fp              2   81[COMRAM] PTR struct _IO_FILE
  1738 ;;		 -> NULL(0), 
  1739 ;;  fmt             2   83[COMRAM] PTR const unsigned char 
  1740 ;;		 -> STR_4(70), STR_3(51), STR_2(62), STR_1(4), 
  1741 ;;  ap              2   85[COMRAM] PTR PTR void 
  1742 ;;		 -> printf@ap(2), 
  1743 ;; Auto vars:     Size  Location     Type
  1744 ;;  cfmt            2   87[COMRAM] PTR unsigned char 
  1745 ;;		 -> STR_4(70), STR_3(51), STR_2(62), STR_1(4), 
  1746 ;; Return value:  Size  Location     Type
  1747 ;;                  2   81[COMRAM] int 
  1748 ;; Registers used:
  1749 ;;		wreg, fsr1l, fsr1h, fsr2l, fsr2h, status,2, status,0, tblptrl, tblptrh, tblptru, cstack
  1750 ;; Tracked objects:
  1751 ;;		On entry : 0/0
  1752 ;;		On exit  : 0/0
  1753 ;;		Unchanged: 0/0
  1754 ;; Data sizes:     COMRAM   BANK0   BANK1   BANK2   BANK3   BANK4   BANK5   BANK6   BANK7   BANK8   BANK9  BANK10  BANK1
      +1  BANK12  BANK13  BANK14  BANK15  BANK16  BANK17  BANK18  BANK19  BANK20  BANK21  BANK22  BANK23  BANK24  BANK25  BANK2
      +6  BANK27  BANK28  BANK29  BANK30  BANK31
  1755 ;;      Params:         6       0       0       0       0       0       0       0       0       0       0       0       
      +0       0       0       0       0       0       0       0       0       0       0       0       0       0       0       
      +0       0       0       0       0       0
  1756 ;;      Locals:         2       0       0       0       0       0       0       0       0       0       0       0       
      +0       0       0       0       0       0       0       0       0       0       0       0       0       0       0       
      +0       0       0       0       0       0
  1757 ;;      Temps:          0       0       0       0       0       0       0       0       0       0       0       0       
      +0       0       0       0       0       0       0       0       0       0       0       0       0       0       0       
      +0       0       0       0       0       0
  1758 ;;      Totals:         8       0       0       0       0       0       0       0       0       0       0       0       
      +0       0       0       0       0       0       0       0       0       0       0       0       0       0       0       
      +0       0       0       0       0       0
  1759 ;;Total ram usage:        8 bytes
  1760 ;; Hardware stack levels used: 1
  1761 ;; Hardware stack levels required when called: 11
  1762 ;; This function calls:
  1763 ;;		_vfpfcnvrt
  1764 ;; This function is called by:
  1765 ;;		_printf
  1766 ;; This function uses a non-reentrant model
  1767 ;;
  1768                           
  1769                           	psect	text2
  1770  003746                     __ptext2:
  1771                           	callstack 0
  1772  003746                     _vfprintf:
  1773                           	callstack 18
  1774  003746                     
  1775                           ;C:\Program Files\Microchip\xc8\v2.32\pic\sources\c99\common\doprnt.c: 1390: int vfprint
      +                          f(FILE *fp, const char *fmt, va_list ap);C:\Program Files\Microchip\xc8\v2.32\pic\source
      +                          s\c99\common\doprnt.c: 1391: {;C:\Program Files\Microchip\xc8\v2.32\pic\sources\c99\comm
      +                          on\doprnt.c: 1393:     char *cfmt;;C:\Program Files\Microchip\xc8\v2.32\pic\sources\c99\
      +                          common\doprnt.c: 1395:     cfmt = (char *)fmt;
  1776  003746  C054  F058         	movff	vfprintf@fmt,vfprintf@cfmt
  1777  00374A  C055  F059         	movff	vfprintf@fmt+1,vfprintf@cfmt+1
  1778  00374E                     
  1779                           ;C:\Program Files\Microchip\xc8\v2.32\pic\sources\c99\common\doprnt.c: 1396:     nout = 
      +                          0;
  1780  00374E  0E00               	movlw	0
  1781  003750  0100               	movlb	0	; () banked
  1782  003752  6F6D               	movwf	(_nout+1)& (0+255),b
  1783  003754  0E00               	movlw	0
  1784  003756  6F6C               	movwf	_nout& (0+255),b
  1785                           
  1786                           ;C:\Program Files\Microchip\xc8\v2.32\pic\sources\c99\common\doprnt.c: 1397:     while (
      +                          *cfmt) {
  1787  003758  EFC1  F01B         	goto	l2929
  1788  00375C                     l2927:
  1789                           
  1790                           ; BSR set to: 0
  1791                           ;C:\Program Files\Microchip\xc8\v2.32\pic\sources\c99\common\doprnt.c: 1398:         nou
      +                          t += vfpfcnvrt(fp, &cfmt, ap);
  1792  00375C  C052  F042         	movff	vfprintf@fp,vfpfcnvrt@fp
  1793  003760  C053  F043         	movff	vfprintf@fp+1,vfpfcnvrt@fp+1
  1794  003764  0E58               	movlw	low vfprintf@cfmt
  1795  003766  6E44               	movwf	vfpfcnvrt@fmt^0,c
  1796  003768  0E00               	movlw	high vfprintf@cfmt
  1797  00376A  6E45               	movwf	(vfpfcnvrt@fmt+1)^0,c
  1798  00376C  C056  F046         	movff	vfprintf@ap,vfpfcnvrt@ap
  1799  003770  C057  F047         	movff	vfprintf@ap+1,vfpfcnvrt@ap+1
  1800  003774  EC53  F016         	call	_vfpfcnvrt	;wreg free
  1801  003778  5042               	movf	?_vfpfcnvrt^0,w,c
  1802  00377A  0100               	movlb	0	; () banked
  1803  00377C  276C               	addwf	_nout& (0+255),f,b
  1804  00377E  5043               	movf	(?_vfpfcnvrt+1)^0,w,c
  1805  003780  236D               	addwfc	(_nout+1)& (0+255),f,b
  1806  003782                     l2929:
  1807                           
  1808                           ; BSR set to: 0
  1809                           ;C:\Program Files\Microchip\xc8\v2.32\pic\sources\c99\common\doprnt.c: 1397:     while (
      +                          *cfmt) {
  1810  003782  0060  F163  FFF6   	movff	vfprintf@cfmt,tblptrl
  1811  003788  0060  F167  FFF7   	movff	vfprintf@cfmt+1,tblptrh
  1812  00378E                     	if	0	;tblptru may be non-zero
  1813  00378E                     	endif
  1814  00378E                     	if	1	;Program memory is > 0xFFFF, there are 3 active tblptr bytes
  1815  00378E  0E00               	movlw	low (__mediumconst shr (0+16))
  1816  003790  6EF8               	movwf	tblptru,c
  1817  003792                     	endif
  1818  003792  0008               	tblrd		*
  1819  003794  50F5               	movf	tablat,w,c
  1820  003796  0900               	iorlw	0
  1821  003798  A4D8               	btfss	status,2,c
  1822  00379A  EFD1  F01B         	goto	u1581
  1823  00379E  EFD3  F01B         	goto	u1580
  1824  0037A2                     u1581:
  1825  0037A2  EFAE  F01B         	goto	l2927
  1826  0037A6                     u1580:
  1827  0037A6                     
  1828                           ; BSR set to: 0
  1829                           ;C:\Program Files\Microchip\xc8\v2.32\pic\sources\c99\common\doprnt.c: 1400:     return 
      +                          nout;
  1830  0037A6  C06C  F052         	movff	_nout,?_vfprintf
  1831  0037AA  C06D  F053         	movff	_nout+1,?_vfprintf+1
  1832  0037AE                     
  1833                           ; BSR set to: 0
  1834  0037AE  0012               	return		;funcret
  1835  0037B0                     __end_of_vfprintf:
  1836                           	callstack 0
  1837                           
  1838 ;; *************** function _vfpfcnvrt *****************
  1839 ;; Defined at:
  1840 ;;		line 692 in file "C:\Program Files\Microchip\xc8\v2.32\pic\sources\c99\common\doprnt.c"
  1841 ;; Parameters:    Size  Location     Type
  1842 ;;  fp              2   65[COMRAM] PTR struct _IO_FILE
  1843 ;;		 -> NULL(0), 
  1844 ;;  fmt             2   67[COMRAM] PTR PTR unsigned char 
  1845 ;;		 -> vfprintf@cfmt(2), 
  1846 ;;  ap              2   69[COMRAM] PTR PTR void 
  1847 ;;		 -> printf@ap(2), 
  1848 ;; Auto vars:     Size  Location     Type
  1849 ;;  ll              8   73[COMRAM] long long 
  1850 ;;  llu             8    0        unsigned long long 
  1851 ;;  f               4    0        unsigned long long 
  1852 ;;  vp              3    0        PTR void 
  1853 ;;  ct              3    0        unsigned char [3]
  1854 ;;  cp              3    0        PTR unsigned char 
  1855 ;;  i               2    0        int 
  1856 ;;  done            2    0        int 
  1857 ;;  c               1    0        unsigned char 
  1858 ;; Return value:  Size  Location     Type
  1859 ;;                  2   65[COMRAM] int 
  1860 ;; Registers used:
  1861 ;;		wreg, fsr1l, fsr1h, fsr2l, fsr2h, status,2, status,0, tblptrl, tblptrh, tblptru, cstack
  1862 ;; Tracked objects:
  1863 ;;		On entry : 0/0
  1864 ;;		On exit  : 0/0
  1865 ;;		Unchanged: 0/0
  1866 ;; Data sizes:     COMRAM   BANK0   BANK1   BANK2   BANK3   BANK4   BANK5   BANK6   BANK7   BANK8   BANK9  BANK10  BANK1
      +1  BANK12  BANK13  BANK14  BANK15  BANK16  BANK17  BANK18  BANK19  BANK20  BANK21  BANK22  BANK23  BANK24  BANK25  BANK2
      +6  BANK27  BANK28  BANK29  BANK30  BANK31
  1867 ;;      Params:         6       0       0       0       0       0       0       0       0       0       0       0       
      +0       0       0       0       0       0       0       0       0       0       0       0       0       0       0       
      +0       0       0       0       0       0
  1868 ;;      Locals:         8       0       0       0       0       0       0       0       0       0       0       0       
      +0       0       0       0       0       0       0       0       0       0       0       0       0       0       0       
      +0       0       0       0       0       0
  1869 ;;      Temps:          2       0       0       0       0       0       0       0       0       0       0       0       
      +0       0       0       0       0       0       0       0       0       0       0       0       0       0       0       
      +0       0       0       0       0       0
  1870 ;;      Totals:        16       0       0       0       0       0       0       0       0       0       0       0       
      +0       0       0       0       0       0       0       0       0       0       0       0       0       0       0       
      +0       0       0       0       0       0
  1871 ;;Total ram usage:       16 bytes
  1872 ;; Hardware stack levels used: 1
  1873 ;; Hardware stack levels required when called: 10
  1874 ;; This function calls:
  1875 ;;		_dtoa
  1876 ;;		_fputc
  1877 ;; This function is called by:
  1878 ;;		_vfprintf
  1879 ;; This function uses a non-reentrant model
  1880 ;;
  1881                           
  1882                           	psect	text3
  1883  002CA6                     __ptext3:
  1884                           	callstack 0
  1885  002CA6                     _vfpfcnvrt:
  1886                           	callstack 18
  1887  002CA6                     
  1888                           ;C:\Program Files\Microchip\xc8\v2.32\pic\sources\c99\common\doprnt.c: 692: static int v
      +                          fpfcnvrt(FILE *fp, char *fmt[], va_list ap);C:\Program Files\Microchip\xc8\v2.32\pic\sou
      +                          rces\c99\common\doprnt.c: 693: {;C:\Program Files\Microchip\xc8\v2.32\pic\sources\c99\co
      +                          mmon\doprnt.c: 694:     char c, *cp, ct[3];;C:\Program Files\Microchip\xc8\v2.32\pic\sou
      +                          rces\c99\common\doprnt.c: 695:     int done, i;;C:\Program Files\Microchip\xc8\v2.32\pic
      +                          \sources\c99\common\doprnt.c: 696:     long long ll;;C:\Program Files\Microchip\xc8\v2.3
      +                          2\pic\sources\c99\common\doprnt.c: 697:     unsigned long long llu;
  1889  002CA6  0060  F113  FFD9   	movff	vfpfcnvrt@fmt,fsr2l
  1890  002CAC  0060  F117  FFDA   	movff	vfpfcnvrt@fmt+1,fsr2h
  1891  002CB2  006F FF7B FFF6     	movff	postinc2,tblptrl
  1892  002CB8  006F FF77 FFF7     	movff	postdec2,tblptrh
  1893  002CBE                     	if	0	;tblptru may be non-zero
  1894  002CBE                     	endif
  1895  002CBE                     	if	1	;Program memory is > 0xFFFF, there are 3 active tblptr bytes
  1896  002CBE  0E00               	movlw	low (__mediumconst shr (0+16))
  1897  002CC0  6EF8               	movwf	tblptru,c
  1898  002CC2                     	endif
  1899  002CC2  0008               	tblrd		*
  1900  002CC4  50F5               	movf	tablat,w,c
  1901  002CC6  0A25               	xorlw	37
  1902  002CC8  A4D8               	btfss	status,2,c
  1903  002CCA  EF69  F016         	goto	u1521
  1904  002CCE  EF6B  F016         	goto	u1520
  1905  002CD2                     u1521:
  1906  002CD2  EF39  F017         	goto	l2847
  1907  002CD6                     u1520:
  1908  002CD6                     
  1909                           ;C:\Program Files\Microchip\xc8\v2.32\pic\sources\c99\common\doprnt.c: 703:         ++*f
      +                          mt;
  1910  002CD6  0060  F113  FFD9   	movff	vfpfcnvrt@fmt,fsr2l
  1911  002CDC  0060  F117  FFDA   	movff	vfpfcnvrt@fmt+1,fsr2h
  1912  002CE2  2ADE               	incf	postinc2,f,c
  1913  002CE4  0E00               	movlw	0
  1914  002CE6  22DD               	addwfc	postdec2,f,c
  1915  002CE8                     
  1916                           ;C:\Program Files\Microchip\xc8\v2.32\pic\sources\c99\common\doprnt.c: 705:         flag
      +                          s = width = 0;
  1917  002CE8  0E00               	movlw	0
  1918  002CEA  0100               	movlb	0	; () banked
  1919  002CEC  6F6F               	movwf	(_width+1)& (0+255),b
  1920  002CEE  0E00               	movlw	0
  1921  002CF0  6F6E               	movwf	_width& (0+255),b
  1922  002CF2  C06E  F072         	movff	_width,_flags
  1923  002CF6  C06F  F073         	movff	_width+1,_flags+1
  1924  002CFA                     
  1925                           ; BSR set to: 0
  1926                           ;C:\Program Files\Microchip\xc8\v2.32\pic\sources\c99\common\doprnt.c: 706:         prec
      +                           = -1;
  1927  002CFA  6970               	setf	_prec& (0+255),b
  1928  002CFC  6971               	setf	(_prec+1)& (0+255),b
  1929  002CFE                     
  1930                           ; BSR set to: 0
  1931                           ;C:\Program Files\Microchip\xc8\v2.32\pic\sources\c99\common\doprnt.c: 847:         if (
      +                          (*fmt[0] == 'd') || (*fmt[0] == 'i')) {
  1932  002CFE  0060  F113  FFD9   	movff	vfpfcnvrt@fmt,fsr2l
  1933  002D04  0060  F117  FFDA   	movff	vfpfcnvrt@fmt+1,fsr2h
  1934  002D0A  006F FF7B FFF6     	movff	postinc2,tblptrl
  1935  002D10  006F FF77 FFF7     	movff	postdec2,tblptrh
  1936  002D16                     	if	0	;tblptru may be non-zero
  1937  002D16                     	endif
  1938  002D16                     	if	1	;Program memory is > 0xFFFF, there are 3 active tblptr bytes
  1939  002D16  0E00               	movlw	low (__mediumconst shr (0+16))
  1940  002D18  6EF8               	movwf	tblptru,c
  1941  002D1A                     	endif
  1942  002D1A  0008               	tblrd		*
  1943  002D1C  50F5               	movf	tablat,w,c
  1944  002D1E  0A64               	xorlw	100
  1945  002D20  B4D8               	btfsc	status,2,c
  1946  002D22  EF95  F016         	goto	u1531
  1947  002D26  EF97  F016         	goto	u1530
  1948  002D2A                     u1531:
  1949  002D2A  EFAF  F016         	goto	l2825
  1950  002D2E                     u1530:
  1951  002D2E                     
  1952                           ; BSR set to: 0
  1953  002D2E  0060  F113  FFD9   	movff	vfpfcnvrt@fmt,fsr2l
  1954  002D34  0060  F117  FFDA   	movff	vfpfcnvrt@fmt+1,fsr2h
  1955  002D3A  006F FF7B FFF6     	movff	postinc2,tblptrl
  1956  002D40  006F FF77 FFF7     	movff	postdec2,tblptrh
  1957  002D46                     	if	0	;tblptru may be non-zero
  1958  002D46                     	endif
  1959  002D46                     	if	1	;Program memory is > 0xFFFF, there are 3 active tblptr bytes
  1960  002D46  0E00               	movlw	low (__mediumconst shr (0+16))
  1961  002D48  6EF8               	movwf	tblptru,c
  1962  002D4A                     	endif
  1963  002D4A  0008               	tblrd		*
  1964  002D4C  50F5               	movf	tablat,w,c
  1965  002D4E  0A69               	xorlw	105
  1966  002D50  A4D8               	btfss	status,2,c
  1967  002D52  EFAD  F016         	goto	u1541
  1968  002D56  EFAF  F016         	goto	u1540
  1969  002D5A                     u1541:
  1970  002D5A  EFF9  F016         	goto	l2831
  1971  002D5E                     u1540:
  1972  002D5E                     l2825:
  1973                           
  1974                           ; BSR set to: 0
  1975                           ;C:\Program Files\Microchip\xc8\v2.32\pic\sources\c99\common\doprnt.c: 849:             
      +                          ++*fmt;
  1976  002D5E  0060  F113  FFD9   	movff	vfpfcnvrt@fmt,fsr2l
  1977  002D64  0060  F117  FFDA   	movff	vfpfcnvrt@fmt+1,fsr2h
  1978  002D6A  2ADE               	incf	postinc2,f,c
  1979  002D6C  0E00               	movlw	0
  1980  002D6E  22DD               	addwfc	postdec2,f,c
  1981                           
  1982                           ;C:\Program Files\Microchip\xc8\v2.32\pic\sources\c99\common\doprnt.c: 850:             
      +                          ll = (long long)(*(int *)__va_arg(*(int **)ap, (int)0));
  1983  002D70  0060  F11B  FFD9   	movff	vfpfcnvrt@ap,fsr2l
  1984  002D76  0060  F11F  FFDA   	movff	vfpfcnvrt@ap+1,fsr2h
  1985  002D7C  006F FF7C  F048    	movff	indf2,??_vfpfcnvrt
  1986  002D82  0E02               	movlw	2
  1987  002D84  26DE               	addwf	postinc2,f,c
  1988  002D86  006F FF7C  F049    	movff	indf2,??_vfpfcnvrt+1
  1989  002D8C  0E00               	movlw	0
  1990  002D8E  22DD               	addwfc	postdec2,f,c
  1991  002D90  0060  F123  FFD9   	movff	??_vfpfcnvrt,fsr2l
  1992  002D96  0060  F127  FFDA   	movff	??_vfpfcnvrt+1,fsr2h
  1993  002D9C  006F FF78  F04A    	movff	postinc2,vfpfcnvrt@ll
  1994  002DA2  006F FF74  F04B    	movff	postdec2,vfpfcnvrt@ll+1
  1995  002DA8  0E00               	movlw	0
  1996  002DAA  BE4B               	btfsc	(vfpfcnvrt@ll+1)^0,7,c
  1997  002DAC  0EFF               	movlw	-1
  1998  002DAE  6E4C               	movwf	(vfpfcnvrt@ll+2)^0,c
  1999  002DB0  6E4D               	movwf	(vfpfcnvrt@ll+3)^0,c
  2000  002DB2  6E4E               	movwf	(vfpfcnvrt@ll+4)^0,c
  2001  002DB4  6E4F               	movwf	(vfpfcnvrt@ll+5)^0,c
  2002  002DB6  6E50               	movwf	(vfpfcnvrt@ll+6)^0,c
  2003  002DB8  6E51               	movwf	(vfpfcnvrt@ll+7)^0,c
  2004  002DBA                     
  2005                           ; BSR set to: 0
  2006                           ;C:\Program Files\Microchip\xc8\v2.32\pic\sources\c99\common\doprnt.c: 852:             
      +                          return dtoa(fp, ll);
  2007  002DBA  C042  F01E         	movff	vfpfcnvrt@fp,dtoa@fp
  2008  002DBE  C043  F01F         	movff	vfpfcnvrt@fp+1,dtoa@fp+1
  2009  002DC2  C04A  F020         	movff	vfpfcnvrt@ll,dtoa@d
  2010  002DC6  C04B  F021         	movff	vfpfcnvrt@ll+1,dtoa@d+1
  2011  002DCA  C04C  F022         	movff	vfpfcnvrt@ll+2,dtoa@d+2
  2012  002DCE  C04D  F023         	movff	vfpfcnvrt@ll+3,dtoa@d+3
  2013  002DD2  C04E  F024         	movff	vfpfcnvrt@ll+4,dtoa@d+4
  2014  002DD6  C04F  F025         	movff	vfpfcnvrt@ll+5,dtoa@d+5
  2015  002DDA  C050  F026         	movff	vfpfcnvrt@ll+6,dtoa@d+6
  2016  002DDE  C051  F027         	movff	vfpfcnvrt@ll+7,dtoa@d+7
  2017  002DE2  ECE1  F014         	call	_dtoa	;wreg free
  2018  002DE6  C01E  F042         	movff	?_dtoa,?_vfpfcnvrt
  2019  002DEA  C01F  F043         	movff	?_dtoa+1,?_vfpfcnvrt+1
  2020  002DEE  EF5C  F017         	goto	l1379
  2021  002DF2                     l2831:
  2022                           
  2023                           ; BSR set to: 0
  2024                           ;C:\Program Files\Microchip\xc8\v2.32\pic\sources\c99\common\doprnt.c: 1372:         if 
      +                          ((*fmt)[0] == '%') {
  2025  002DF2  0060  F113  FFD9   	movff	vfpfcnvrt@fmt,fsr2l
  2026  002DF8  0060  F117  FFDA   	movff	vfpfcnvrt@fmt+1,fsr2h
  2027  002DFE  006F FF7B FFF6     	movff	postinc2,tblptrl
  2028  002E04  006F FF77 FFF7     	movff	postdec2,tblptrh
  2029  002E0A                     	if	0	;tblptru may be non-zero
  2030  002E0A                     	endif
  2031  002E0A                     	if	1	;Program memory is > 0xFFFF, there are 3 active tblptr bytes
  2032  002E0A  0E00               	movlw	low (__mediumconst shr (0+16))
  2033  002E0C  6EF8               	movwf	tblptru,c
  2034  002E0E                     	endif
  2035  002E0E  0008               	tblrd		*
  2036  002E10  50F5               	movf	tablat,w,c
  2037  002E12  0A25               	xorlw	37
  2038  002E14  A4D8               	btfss	status,2,c
  2039  002E16  EF0F  F017         	goto	u1551
  2040  002E1A  EF11  F017         	goto	u1550
  2041  002E1E                     u1551:
  2042  002E1E  EF2A  F017         	goto	l2841
  2043  002E22                     u1550:
  2044  002E22                     
  2045                           ; BSR set to: 0
  2046                           ;C:\Program Files\Microchip\xc8\v2.32\pic\sources\c99\common\doprnt.c: 1373:            
      +                           ++*fmt;
  2047  002E22  0060  F113  FFD9   	movff	vfpfcnvrt@fmt,fsr2l
  2048  002E28  0060  F117  FFDA   	movff	vfpfcnvrt@fmt+1,fsr2h
  2049  002E2E  2ADE               	incf	postinc2,f,c
  2050  002E30  0E00               	movlw	0
  2051  002E32  22DD               	addwfc	postdec2,f,c
  2052  002E34                     
  2053                           ; BSR set to: 0
  2054                           ;C:\Program Files\Microchip\xc8\v2.32\pic\sources\c99\common\doprnt.c: 1374:            
      +                           fputc((int)'%', fp);
  2055  002E34  0E00               	movlw	0
  2056  002E36  6E04               	movwf	(fputc@c+1)^0,c
  2057  002E38  0E25               	movlw	37
  2058  002E3A  6E03               	movwf	fputc@c^0,c
  2059  002E3C  C042  F005         	movff	vfpfcnvrt@fp,fputc@fp
  2060  002E40  C043  F006         	movff	vfpfcnvrt@fp+1,fputc@fp+1
  2061  002E44  ECE6  F01A         	call	_fputc	;wreg free
  2062  002E48                     l2837:
  2063                           
  2064                           ;C:\Program Files\Microchip\xc8\v2.32\pic\sources\c99\common\doprnt.c: 1375:            
      +                           return 1;
  2065  002E48  0E00               	movlw	0
  2066  002E4A  6E43               	movwf	(?_vfpfcnvrt+1)^0,c
  2067  002E4C  0E01               	movlw	1
  2068  002E4E  6E42               	movwf	?_vfpfcnvrt^0,c
  2069  002E50  EF5C  F017         	goto	l1379
  2070  002E54                     l2841:
  2071                           
  2072                           ; BSR set to: 0
  2073                           ;C:\Program Files\Microchip\xc8\v2.32\pic\sources\c99\common\doprnt.c: 1379:         ++*
      +                          fmt;
  2074  002E54  0060  F113  FFD9   	movff	vfpfcnvrt@fmt,fsr2l
  2075  002E5A  0060  F117  FFDA   	movff	vfpfcnvrt@fmt+1,fsr2h
  2076  002E60  2ADE               	incf	postinc2,f,c
  2077  002E62  0E00               	movlw	0
  2078  002E64  22DD               	addwfc	postdec2,f,c
  2079  002E66                     
  2080                           ; BSR set to: 0
  2081                           ;C:\Program Files\Microchip\xc8\v2.32\pic\sources\c99\common\doprnt.c: 1380:         ret
      +                          urn 0;
  2082  002E66  0E00               	movlw	0
  2083  002E68  6E43               	movwf	(?_vfpfcnvrt+1)^0,c
  2084  002E6A  0E00               	movlw	0
  2085  002E6C  6E42               	movwf	?_vfpfcnvrt^0,c
  2086  002E6E  EF5C  F017         	goto	l1379
  2087  002E72                     l2847:
  2088                           
  2089                           ;C:\Program Files\Microchip\xc8\v2.32\pic\sources\c99\common\doprnt.c: 1384:     fputc((
      +                          int)(*fmt)[0], fp);
  2090  002E72  0060  F113  FFD9   	movff	vfpfcnvrt@fmt,fsr2l
  2091  002E78  0060  F117  FFDA   	movff	vfpfcnvrt@fmt+1,fsr2h
  2092  002E7E  006F FF7B FFF6     	movff	postinc2,tblptrl
  2093  002E84  006F FF77 FFF7     	movff	postdec2,tblptrh
  2094  002E8A                     	if	0	;tblptru may be non-zero
  2095  002E8A                     	endif
  2096  002E8A                     	if	1	;Program memory is > 0xFFFF, there are 3 active tblptr bytes
  2097  002E8A  0E00               	movlw	low (__mediumconst shr (0+16))
  2098  002E8C  6EF8               	movwf	tblptru,c
  2099  002E8E                     	endif
  2100  002E8E  0008               	tblrd		*
  2101  002E90  50F5               	movf	tablat,w,c
  2102  002E92  6E03               	movwf	fputc@c^0,c
  2103  002E94  6A04               	clrf	(fputc@c+1)^0,c
  2104  002E96  C042  F005         	movff	vfpfcnvrt@fp,fputc@fp
  2105  002E9A  C043  F006         	movff	vfpfcnvrt@fp+1,fputc@fp+1
  2106  002E9E  ECE6  F01A         	call	_fputc	;wreg free
  2107  002EA2                     
  2108                           ;C:\Program Files\Microchip\xc8\v2.32\pic\sources\c99\common\doprnt.c: 1385:     ++*fmt;
  2109  002EA2  0060  F113  FFD9   	movff	vfpfcnvrt@fmt,fsr2l
  2110  002EA8  0060  F117  FFDA   	movff	vfpfcnvrt@fmt+1,fsr2h
  2111  002EAE  2ADE               	incf	postinc2,f,c
  2112  002EB0  0E00               	movlw	0
  2113  002EB2  22DD               	addwfc	postdec2,f,c
  2114  002EB4  EF24  F017         	goto	l2837
  2115  002EB8                     l1379:
  2116  002EB8  0012               	return		;funcret
  2117  002EBA                     __end_of_vfpfcnvrt:
  2118                           	callstack 0
  2119                           
  2120 ;; *************** function _dtoa *****************
  2121 ;; Defined at:
  2122 ;;		line 287 in file "C:\Program Files\Microchip\xc8\v2.32\pic\sources\c99\common\doprnt.c"
  2123 ;; Parameters:    Size  Location     Type
  2124 ;;  fp              2   29[COMRAM] PTR struct _IO_FILE
  2125 ;;		 -> NULL(0), 
  2126 ;;  d               8   31[COMRAM] long long 
  2127 ;; Auto vars:     Size  Location     Type
  2128 ;;  n               8   55[COMRAM] long long 
  2129 ;;  i               2   63[COMRAM] int 
  2130 ;;  s               2   53[COMRAM] int 
  2131 ;;  w               2   51[COMRAM] int 
  2132 ;;  p               2   49[COMRAM] int 
  2133 ;; Return value:  Size  Location     Type
  2134 ;;                  2   29[COMRAM] int 
  2135 ;; Registers used:
  2136 ;;		wreg, fsr1l, fsr1h, fsr2l, fsr2h, status,2, status,0, cstack
  2137 ;; Tracked objects:
  2138 ;;		On entry : 0/0
  2139 ;;		On exit  : 0/0
  2140 ;;		Unchanged: 0/0
  2141 ;; Data sizes:     COMRAM   BANK0   BANK1   BANK2   BANK3   BANK4   BANK5   BANK6   BANK7   BANK8   BANK9  BANK10  BANK1
      +1  BANK12  BANK13  BANK14  BANK15  BANK16  BANK17  BANK18  BANK19  BANK20  BANK21  BANK22  BANK23  BANK24  BANK25  BANK2
      +6  BANK27  BANK28  BANK29  BANK30  BANK31
  2142 ;;      Params:        10       0       0       0       0       0       0       0       0       0       0       0       
      +0       0       0       0       0       0       0       0       0       0       0       0       0       0       0       
      +0       0       0       0       0       0
  2143 ;;      Locals:        18       0       0       0       0       0       0       0       0       0       0       0       
      +0       0       0       0       0       0       0       0       0       0       0       0       0       0       0       
      +0       0       0       0       0       0
  2144 ;;      Temps:          8       0       0       0       0       0       0       0       0       0       0       0       
      +0       0       0       0       0       0       0       0       0       0       0       0       0       0       0       
      +0       0       0       0       0       0
  2145 ;;      Totals:        36       0       0       0       0       0       0       0       0       0       0       0       
      +0       0       0       0       0       0       0       0       0       0       0       0       0       0       0       
      +0       0       0       0       0       0
  2146 ;;Total ram usage:       36 bytes
  2147 ;; Hardware stack levels used: 1
  2148 ;; Hardware stack levels required when called: 9
  2149 ;; This function calls:
  2150 ;;		___aodiv
  2151 ;;		___aomod
  2152 ;;		_abs
  2153 ;;		_pad
  2154 ;; This function is called by:
  2155 ;;		_vfpfcnvrt
  2156 ;; This function uses a non-reentrant model
  2157 ;;
  2158                           
  2159                           	psect	text4
  2160  0029C2                     __ptext4:
  2161                           	callstack 0
  2162  0029C2                     _dtoa:
  2163                           	callstack 18
  2164  0029C2                     
  2165                           ;C:\Program Files\Microchip\xc8\v2.32\pic\sources\c99\common\doprnt.c: 287: static int d
      +                          toa(FILE *fp, long long d);C:\Program Files\Microchip\xc8\v2.32\pic\sources\c99\common\d
      +                          oprnt.c: 288: {;C:\Program Files\Microchip\xc8\v2.32\pic\sources\c99\common\doprnt.c: 28
      +                          9:     int i, p, s, w;;C:\Program Files\Microchip\xc8\v2.32\pic\sources\c99\common\doprn
      +                          t.c: 290:     long long n;;C:\Program Files\Microchip\xc8\v2.32\pic\sources\c99\common\d
      +                          oprnt.c: 293:     n = d;
  2166  0029C2  C020  F038         	movff	dtoa@d,dtoa@n
  2167  0029C6  C021  F039         	movff	dtoa@d+1,dtoa@n+1
  2168  0029CA  C022  F03A         	movff	dtoa@d+2,dtoa@n+2
  2169  0029CE  C023  F03B         	movff	dtoa@d+3,dtoa@n+3
  2170  0029D2  C024  F03C         	movff	dtoa@d+4,dtoa@n+4
  2171  0029D6  C025  F03D         	movff	dtoa@d+5,dtoa@n+5
  2172  0029DA  C026  F03E         	movff	dtoa@d+6,dtoa@n+6
  2173  0029DE  C027  F03F         	movff	dtoa@d+7,dtoa@n+7
  2174  0029E2                     
  2175                           ;C:\Program Files\Microchip\xc8\v2.32\pic\sources\c99\common\doprnt.c: 294:     s = n < 
      +                          0 ? 1 : 0;
  2176  0029E2  BE3F               	btfsc	(dtoa@n+7)^0,7,c
  2177  0029E4  EFF6  F014         	goto	u1361
  2178  0029E8  EFF9  F014         	goto	u1360
  2179  0029EC                     u1361:
  2180  0029EC  0E01               	movlw	1
  2181  0029EE  EFFA  F014         	goto	u1370
  2182  0029F2                     u1360:
  2183  0029F2  0E00               	movlw	0
  2184  0029F4                     u1370:
  2185  0029F4  6E36               	movwf	dtoa@s^0,c
  2186  0029F6  6A37               	clrf	(dtoa@s+1)^0,c
  2187                           
  2188                           ;C:\Program Files\Microchip\xc8\v2.32\pic\sources\c99\common\doprnt.c: 295:     if (s) {
  2189  0029F8  5036               	movf	dtoa@s^0,w,c
  2190  0029FA  1037               	iorwf	(dtoa@s+1)^0,w,c
  2191  0029FC  B4D8               	btfsc	status,2,c
  2192  0029FE  EF03  F015         	goto	u1381
  2193  002A02  EF05  F015         	goto	u1380
  2194  002A06                     u1381:
  2195  002A06  EF15  F015         	goto	l2743
  2196  002A0A                     u1380:
  2197  002A0A                     
  2198                           ;C:\Program Files\Microchip\xc8\v2.32\pic\sources\c99\common\doprnt.c: 296:         n = 
      +                          -n;
  2199  002A0A  1E3F               	comf	(dtoa@n+7)^0,f,c
  2200  002A0C  1E3E               	comf	(dtoa@n+6)^0,f,c
  2201  002A0E  1E3D               	comf	(dtoa@n+5)^0,f,c
  2202  002A10  1E3C               	comf	(dtoa@n+4)^0,f,c
  2203  002A12  1E3B               	comf	(dtoa@n+3)^0,f,c
  2204  002A14  1E3A               	comf	(dtoa@n+2)^0,f,c
  2205  002A16  1E39               	comf	(dtoa@n+1)^0,f,c
  2206  002A18  6C38               	negf	dtoa@n^0,c
  2207  002A1A  0E00               	movlw	0
  2208  002A1C  2239               	addwfc	(dtoa@n+1)^0,f,c
  2209  002A1E  223A               	addwfc	(dtoa@n+2)^0,f,c
  2210  002A20  223B               	addwfc	(dtoa@n+3)^0,f,c
  2211  002A22  223C               	addwfc	(dtoa@n+4)^0,f,c
  2212  002A24  223D               	addwfc	(dtoa@n+5)^0,f,c
  2213  002A26  223E               	addwfc	(dtoa@n+6)^0,f,c
  2214  002A28  223F               	addwfc	(dtoa@n+7)^0,f,c
  2215  002A2A                     l2743:
  2216                           
  2217                           ;C:\Program Files\Microchip\xc8\v2.32\pic\sources\c99\common\doprnt.c: 300:     if (!(pr
      +                          ec < 0)) {
  2218  002A2A  0100               	movlb	0	; () banked
  2219  002A2C  BF71               	btfsc	(_prec+1)& (0+255),7,b
  2220  002A2E  EF1B  F015         	goto	u1391
  2221  002A32  EF1D  F015         	goto	u1390
  2222  002A36                     u1391:
  2223  002A36  EF1E  F015         	goto	l2747
  2224  002A3A                     u1390:
  2225  002A3A                     
  2226                           ; BSR set to: 0
  2227                           ;C:\Program Files\Microchip\xc8\v2.32\pic\sources\c99\common\doprnt.c: 301:         flag
      +                          s &= ~(1 << 1);
  2228  002A3A  9372               	bcf	_flags& (0+255),1,b
  2229  002A3C                     l2747:
  2230                           
  2231                           ; BSR set to: 0
  2232                           ;C:\Program Files\Microchip\xc8\v2.32\pic\sources\c99\common\doprnt.c: 303:     p = (0 <
      +                           prec) ? prec : 1;
  2233  002A3C  BF71               	btfsc	(_prec+1)& (0+255),7,b
  2234  002A3E  EF2B  F015         	goto	u1400
  2235  002A42  5171               	movf	(_prec+1)& (0+255),w,b
  2236  002A44  E106               	bnz	u1401
  2237  002A46  0570               	decf	_prec& (0+255),w,b
  2238  002A48  B0D8               	btfsc	status,0,c
  2239  002A4A  EF29  F015         	goto	u1401
  2240  002A4E  EF2B  F015         	goto	u1400
  2241  002A52                     u1401:
  2242  002A52  EF31  F015         	goto	l1352
  2243  002A56                     u1400:
  2244  002A56                     
  2245                           ; BSR set to: 0
  2246  002A56  0E00               	movlw	0
  2247  002A58  6E33               	movwf	(dtoa@p+1)^0,c
  2248  002A5A  0E01               	movlw	1
  2249  002A5C  6E32               	movwf	dtoa@p^0,c
  2250  002A5E  EF35  F015         	goto	l1354
  2251  002A62                     l1352:
  2252                           
  2253                           ; BSR set to: 0
  2254  002A62  C070  F032         	movff	_prec,dtoa@p
  2255  002A66  C071  F033         	movff	_prec+1,dtoa@p+1
  2256  002A6A                     l1354:
  2257                           
  2258                           ; BSR set to: 0
  2259                           ;C:\Program Files\Microchip\xc8\v2.32\pic\sources\c99\common\doprnt.c: 304:     w = widt
      +                          h;
  2260  002A6A  C06E  F034         	movff	_width,dtoa@w
  2261  002A6E  C06F  F035         	movff	_width+1,dtoa@w+1
  2262  002A72                     
  2263                           ; BSR set to: 0
  2264                           ;C:\Program Files\Microchip\xc8\v2.32\pic\sources\c99\common\doprnt.c: 305:     if (s ||
      +                           (flags & (1 << 2))) {
  2265  002A72  5036               	movf	dtoa@s^0,w,c
  2266  002A74  1037               	iorwf	(dtoa@s+1)^0,w,c
  2267  002A76  A4D8               	btfss	status,2,c
  2268  002A78  EF40  F015         	goto	u1411
  2269  002A7C  EF42  F015         	goto	u1410
  2270  002A80                     u1411:
  2271  002A80  EF49  F015         	goto	l2755
  2272  002A84                     u1410:
  2273  002A84                     
  2274                           ; BSR set to: 0
  2275  002A84  A572               	btfss	_flags& (0+255),2,b
  2276  002A86  EF47  F015         	goto	u1421
  2277  002A8A  EF49  F015         	goto	u1420
  2278  002A8E                     u1421:
  2279  002A8E  EF4C  F015         	goto	l2757
  2280  002A92                     u1420:
  2281  002A92                     l2755:
  2282                           
  2283                           ; BSR set to: 0
  2284                           ;C:\Program Files\Microchip\xc8\v2.32\pic\sources\c99\common\doprnt.c: 306:         --w;
  2285  002A92  0634               	decf	dtoa@w^0,f,c
  2286  002A94  A0D8               	btfss	status,0,c
  2287  002A96  0635               	decf	(dtoa@w+1)^0,f,c
  2288  002A98                     l2757:
  2289                           
  2290                           ; BSR set to: 0
  2291                           ;C:\Program Files\Microchip\xc8\v2.32\pic\sources\c99\common\doprnt.c: 310:     i = size
      +                          of(dbuf) - 1;
  2292  002A98  0E00               	movlw	0
  2293  002A9A  6E41               	movwf	(dtoa@i+1)^0,c
  2294  002A9C  0E1F               	movlw	31
  2295  002A9E  6E40               	movwf	dtoa@i^0,c
  2296  002AA0                     
  2297                           ; BSR set to: 0
  2298                           ;C:\Program Files\Microchip\xc8\v2.32\pic\sources\c99\common\doprnt.c: 311:     dbuf[i] 
      +                          = '\0';
  2299  002AA0  0E00               	movlw	0
  2300  002AA2  6F9D               	movwf	(_dbuf+31)& (0+255),b
  2301                           
  2302                           ;C:\Program Files\Microchip\xc8\v2.32\pic\sources\c99\common\doprnt.c: 312:     while (!
      +                          (i < 1) && (n || (0 < p) || ((0 < w) && (flags & (1 << 1))))) {
  2303  002AA4  EFD0  F015         	goto	l2771
  2304  002AA8                     l2761:
  2305                           
  2306                           ;C:\Program Files\Microchip\xc8\v2.32\pic\sources\c99\common\doprnt.c: 313:         --i;
  2307  002AA8  0640               	decf	dtoa@i^0,f,c
  2308  002AAA  A0D8               	btfss	status,0,c
  2309  002AAC  0641               	decf	(dtoa@i+1)^0,f,c
  2310  002AAE                     
  2311                           ;C:\Program Files\Microchip\xc8\v2.32\pic\sources\c99\common\doprnt.c: 314:         dbuf
      +                          [i] = (char)((int)'0' + abs(n % 10));
  2312  002AAE  0E7E               	movlw	low _dbuf
  2313  002AB0  2440               	addwf	dtoa@i^0,w,c
  2314  002AB2  6ED9               	movwf	fsr2l,c
  2315  002AB4  0E00               	movlw	high _dbuf
  2316  002AB6  2041               	addwfc	(dtoa@i+1)^0,w,c
  2317  002AB8  6EDA               	movwf	fsr2h,c
  2318  002ABA  C038  F001         	movff	dtoa@n,___aomod@dividend
  2319  002ABE  C039  F002         	movff	dtoa@n+1,___aomod@dividend+1
  2320  002AC2  C03A  F003         	movff	dtoa@n+2,___aomod@dividend+2
  2321  002AC6  C03B  F004         	movff	dtoa@n+3,___aomod@dividend+3
  2322  002ACA  C03C  F005         	movff	dtoa@n+4,___aomod@dividend+4
  2323  002ACE  C03D  F006         	movff	dtoa@n+5,___aomod@dividend+5
  2324  002AD2  C03E  F007         	movff	dtoa@n+6,___aomod@dividend+6
  2325  002AD6  C03F  F008         	movff	dtoa@n+7,___aomod@dividend+7
  2326  002ADA  0E0A               	movlw	10
  2327  002ADC  6E09               	movwf	___aomod@divisor^0,c
  2328  002ADE  0E00               	movlw	0
  2329  002AE0  6E0A               	movwf	(___aomod@divisor+1)^0,c
  2330  002AE2  0E00               	movlw	0
  2331  002AE4  6E0B               	movwf	(___aomod@divisor+2)^0,c
  2332  002AE6  0E00               	movlw	0
  2333  002AE8  6E0C               	movwf	(___aomod@divisor+3)^0,c
  2334  002AEA  0E00               	movlw	0
  2335  002AEC  6E0D               	movwf	(___aomod@divisor+4)^0,c
  2336  002AEE  0E00               	movlw	0
  2337  002AF0  6E0E               	movwf	(___aomod@divisor+5)^0,c
  2338  002AF2  0E00               	movlw	0
  2339  002AF4  6E0F               	movwf	(___aomod@divisor+6)^0,c
  2340  002AF6  0E00               	movlw	0
  2341  002AF8  6E10               	movwf	(___aomod@divisor+7)^0,c
  2342  002AFA  ECFB  F018         	call	___aomod	;wreg free
  2343  002AFE  C001  F028         	movff	?___aomod,??_dtoa
  2344  002B02  C002  F029         	movff	?___aomod+1,??_dtoa+1
  2345  002B06  C003  F02A         	movff	?___aomod+2,??_dtoa+2
  2346  002B0A  C004  F02B         	movff	?___aomod+3,??_dtoa+3
  2347  002B0E  C005  F02C         	movff	?___aomod+4,??_dtoa+4
  2348  002B12  C006  F02D         	movff	?___aomod+5,??_dtoa+5
  2349  002B16  C007  F02E         	movff	?___aomod+6,??_dtoa+6
  2350  002B1A  C008  F02F         	movff	?___aomod+7,??_dtoa+7
  2351  002B1E  C028  F013         	movff	??_dtoa,abs@a
  2352  002B22  C02A  F014         	movff	??_dtoa+2,abs@a+1
  2353  002B26  EC1B  F01C         	call	_abs	;wreg free
  2354  002B2A  5013               	movf	?_abs^0,w,c
  2355  002B2C  0F30               	addlw	48
  2356  002B2E  6EDF               	movwf	indf2,c
  2357  002B30                     
  2358                           ;C:\Program Files\Microchip\xc8\v2.32\pic\sources\c99\common\doprnt.c: 315:         --p;
  2359  002B30  0632               	decf	dtoa@p^0,f,c
  2360  002B32  A0D8               	btfss	status,0,c
  2361  002B34  0633               	decf	(dtoa@p+1)^0,f,c
  2362  002B36                     
  2363                           ;C:\Program Files\Microchip\xc8\v2.32\pic\sources\c99\common\doprnt.c: 316:         --w;
  2364  002B36  0634               	decf	dtoa@w^0,f,c
  2365  002B38  A0D8               	btfss	status,0,c
  2366  002B3A  0635               	decf	(dtoa@w+1)^0,f,c
  2367  002B3C                     
  2368                           ;C:\Program Files\Microchip\xc8\v2.32\pic\sources\c99\common\doprnt.c: 317:         n = 
      +                          n / 10;
  2369  002B3C  C038  F001         	movff	dtoa@n,___aodiv@dividend
  2370  002B40  C039  F002         	movff	dtoa@n+1,___aodiv@dividend+1
  2371  002B44  C03A  F003         	movff	dtoa@n+2,___aodiv@dividend+2
  2372  002B48  C03B  F004         	movff	dtoa@n+3,___aodiv@dividend+3
  2373  002B4C  C03C  F005         	movff	dtoa@n+4,___aodiv@dividend+4
  2374  002B50  C03D  F006         	movff	dtoa@n+5,___aodiv@dividend+5
  2375  002B54  C03E  F007         	movff	dtoa@n+6,___aodiv@dividend+6
  2376  002B58  C03F  F008         	movff	dtoa@n+7,___aodiv@dividend+7
  2377  002B5C  0E0A               	movlw	10
  2378  002B5E  6E09               	movwf	___aodiv@divisor^0,c
  2379  002B60  0E00               	movlw	0
  2380  002B62  6E0A               	movwf	(___aodiv@divisor+1)^0,c
  2381  002B64  0E00               	movlw	0
  2382  002B66  6E0B               	movwf	(___aodiv@divisor+2)^0,c
  2383  002B68  0E00               	movlw	0
  2384  002B6A  6E0C               	movwf	(___aodiv@divisor+3)^0,c
  2385  002B6C  0E00               	movlw	0
  2386  002B6E  6E0D               	movwf	(___aodiv@divisor+4)^0,c
  2387  002B70  0E00               	movlw	0
  2388  002B72  6E0E               	movwf	(___aodiv@divisor+5)^0,c
  2389  002B74  0E00               	movlw	0
  2390  002B76  6E0F               	movwf	(___aodiv@divisor+6)^0,c
  2391  002B78  0E00               	movlw	0
  2392  002B7A  6E10               	movwf	(___aodiv@divisor+7)^0,c
  2393  002B7C  EC37  F018         	call	___aodiv	;wreg free
  2394  002B80  C001  F038         	movff	?___aodiv,dtoa@n
  2395  002B84  C002  F039         	movff	?___aodiv+1,dtoa@n+1
  2396  002B88  C003  F03A         	movff	?___aodiv+2,dtoa@n+2
  2397  002B8C  C004  F03B         	movff	?___aodiv+3,dtoa@n+3
  2398  002B90  C005  F03C         	movff	?___aodiv+4,dtoa@n+4
  2399  002B94  C006  F03D         	movff	?___aodiv+5,dtoa@n+5
  2400  002B98  C007  F03E         	movff	?___aodiv+6,dtoa@n+6
  2401  002B9C  C008  F03F         	movff	?___aodiv+7,dtoa@n+7
  2402  002BA0                     l2771:
  2403                           
  2404                           ;C:\Program Files\Microchip\xc8\v2.32\pic\sources\c99\common\doprnt.c: 312:     while (!
      +                          (i < 1) && (n || (0 < p) || ((0 < w) && (flags & (1 << 1))))) {
  2405  002BA0  BE41               	btfsc	(dtoa@i+1)^0,7,c
  2406  002BA2  EFDB  F015         	goto	u1431
  2407  002BA6  5041               	movf	(dtoa@i+1)^0,w,c
  2408  002BA8  E108               	bnz	u1430
  2409  002BAA  0440               	decf	dtoa@i^0,w,c
  2410  002BAC  A0D8               	btfss	status,0,c
  2411  002BAE  EFDB  F015         	goto	u1431
  2412  002BB2  EFDD  F015         	goto	u1430
  2413  002BB6                     u1431:
  2414  002BB6  EF0E  F016         	goto	l2781
  2415  002BBA                     u1430:
  2416  002BBA  5038               	movf	dtoa@n^0,w,c
  2417  002BBC  1039               	iorwf	(dtoa@n+1)^0,w,c
  2418  002BBE  103A               	iorwf	(dtoa@n+2)^0,w,c
  2419  002BC0  103B               	iorwf	(dtoa@n+3)^0,w,c
  2420  002BC2  103C               	iorwf	(dtoa@n+4)^0,w,c
  2421  002BC4  103D               	iorwf	(dtoa@n+5)^0,w,c
  2422  002BC6  103E               	iorwf	(dtoa@n+6)^0,w,c
  2423  002BC8  103F               	iorwf	(dtoa@n+7)^0,w,c
  2424  002BCA  A4D8               	btfss	status,2,c
  2425  002BCC  EFEA  F015         	goto	u1441
  2426  002BD0  EFEC  F015         	goto	u1440
  2427  002BD4                     u1441:
  2428  002BD4  EF54  F015         	goto	l2761
  2429  002BD8                     u1440:
  2430  002BD8  BE33               	btfsc	(dtoa@p+1)^0,7,c
  2431  002BDA  EFF9  F015         	goto	u1450
  2432  002BDE  5033               	movf	(dtoa@p+1)^0,w,c
  2433  002BE0  E106               	bnz	u1451
  2434  002BE2  0432               	decf	dtoa@p^0,w,c
  2435  002BE4  B0D8               	btfsc	status,0,c
  2436  002BE6  EFF7  F015         	goto	u1451
  2437  002BEA  EFF9  F015         	goto	u1450
  2438  002BEE                     u1451:
  2439  002BEE  EF54  F015         	goto	l2761
  2440  002BF2                     u1450:
  2441  002BF2  BE35               	btfsc	(dtoa@w+1)^0,7,c
  2442  002BF4  EF04  F016         	goto	u1461
  2443  002BF8  5035               	movf	(dtoa@w+1)^0,w,c
  2444  002BFA  E108               	bnz	u1460
  2445  002BFC  0434               	decf	dtoa@w^0,w,c
  2446  002BFE  A0D8               	btfss	status,0,c
  2447  002C00  EF04  F016         	goto	u1461
  2448  002C04  EF06  F016         	goto	u1460
  2449  002C08                     u1461:
  2450  002C08  EF0E  F016         	goto	l2781
  2451  002C0C                     u1460:
  2452  002C0C  0100               	movlb	0	; () banked
  2453  002C0E  B372               	btfsc	_flags& (0+255),1,b
  2454  002C10  EF0C  F016         	goto	u1471
  2455  002C14  EF0E  F016         	goto	u1470
  2456  002C18                     u1471:
  2457  002C18  EF54  F015         	goto	l2761
  2458  002C1C                     u1470:
  2459  002C1C                     l2781:
  2460                           
  2461                           ;C:\Program Files\Microchip\xc8\v2.32\pic\sources\c99\common\doprnt.c: 321:     if (s ||
      +                           (flags & (1 << 2))) {
  2462  002C1C  5036               	movf	dtoa@s^0,w,c
  2463  002C1E  1037               	iorwf	(dtoa@s+1)^0,w,c
  2464  002C20  A4D8               	btfss	status,2,c
  2465  002C22  EF15  F016         	goto	u1481
  2466  002C26  EF17  F016         	goto	u1480
  2467  002C2A                     u1481:
  2468  002C2A  EF1F  F016         	goto	l2785
  2469  002C2E                     u1480:
  2470  002C2E  0100               	movlb	0	; () banked
  2471  002C30  A572               	btfss	_flags& (0+255),2,b
  2472  002C32  EF1D  F016         	goto	u1491
  2473  002C36  EF1F  F016         	goto	u1490
  2474  002C3A                     u1491:
  2475  002C3A  EF3E  F016         	goto	l2795
  2476  002C3E                     u1490:
  2477  002C3E                     l2785:
  2478                           
  2479                           ;C:\Program Files\Microchip\xc8\v2.32\pic\sources\c99\common\doprnt.c: 322:         --i;
  2480  002C3E  0640               	decf	dtoa@i^0,f,c
  2481  002C40  A0D8               	btfss	status,0,c
  2482  002C42  0641               	decf	(dtoa@i+1)^0,f,c
  2483  002C44                     
  2484                           ;C:\Program Files\Microchip\xc8\v2.32\pic\sources\c99\common\doprnt.c: 323:         dbuf
      +                          [i] = s ? '-' : '+';
  2485  002C44  5036               	movf	dtoa@s^0,w,c
  2486  002C46  1037               	iorwf	(dtoa@s+1)^0,w,c
  2487  002C48  A4D8               	btfss	status,2,c
  2488  002C4A  EF29  F016         	goto	u1501
  2489  002C4E  EF2B  F016         	goto	u1500
  2490  002C52                     u1501:
  2491  002C52  EF31  F016         	goto	l2791
  2492  002C56                     u1500:
  2493  002C56  0E00               	movlw	0
  2494  002C58  6E31               	movwf	(_dtoa$1984+1)^0,c
  2495  002C5A  0E2B               	movlw	43
  2496  002C5C  6E30               	movwf	_dtoa$1984^0,c
  2497  002C5E  EF35  F016         	goto	l2793
  2498  002C62                     l2791:
  2499  002C62  0E00               	movlw	0
  2500  002C64  6E31               	movwf	(_dtoa$1984+1)^0,c
  2501  002C66  0E2D               	movlw	45
  2502  002C68  6E30               	movwf	_dtoa$1984^0,c
  2503  002C6A                     l2793:
  2504  002C6A  0E7E               	movlw	low _dbuf
  2505  002C6C  2440               	addwf	dtoa@i^0,w,c
  2506  002C6E  6ED9               	movwf	fsr2l,c
  2507  002C70  0E00               	movlw	high _dbuf
  2508  002C72  2041               	addwfc	(dtoa@i+1)^0,w,c
  2509  002C74  6EDA               	movwf	fsr2h,c
  2510  002C76  0060  F0C3  FFDF   	movff	_dtoa$1984,indf2
  2511  002C7C                     l2795:
  2512                           
  2513                           ;C:\Program Files\Microchip\xc8\v2.32\pic\sources\c99\common\doprnt.c: 327:     return p
      +                          ad(fp, &dbuf[i], w);
  2514  002C7C  C01E  F013         	movff	dtoa@fp,pad@fp
  2515  002C80  C01F  F014         	movff	dtoa@fp+1,pad@fp+1
  2516  002C84  0E7E               	movlw	low _dbuf
  2517  002C86  2440               	addwf	dtoa@i^0,w,c
  2518  002C88  6E15               	movwf	pad@buf^0,c
  2519  002C8A  0E00               	movlw	high _dbuf
  2520  002C8C  2041               	addwfc	(dtoa@i+1)^0,w,c
  2521  002C8E  6E16               	movwf	(pad@buf+1)^0,c
  2522  002C90  C034  F017         	movff	dtoa@w,pad@p
  2523  002C94  C035  F018         	movff	dtoa@w+1,pad@p+1
  2524  002C98  EC30  F01A         	call	_pad	;wreg free
  2525  002C9C  C013  F01E         	movff	?_pad,?_dtoa
  2526  002CA0  C014  F01F         	movff	?_pad+1,?_dtoa+1
  2527  002CA4  0012               	return		;funcret
  2528  002CA6                     __end_of_dtoa:
  2529                           	callstack 0
  2530                           
  2531 ;; *************** function _pad *****************
  2532 ;; Defined at:
  2533 ;;		line 72 in file "C:\Program Files\Microchip\xc8\v2.32\pic\sources\c99\common\doprnt.c"
  2534 ;; Parameters:    Size  Location     Type
  2535 ;;  fp              2   18[COMRAM] PTR struct _IO_FILE
  2536 ;;		 -> NULL(0), 
  2537 ;;  buf             2   20[COMRAM] PTR unsigned char 
  2538 ;;		 -> dbuf(32), 
  2539 ;;  p               2   22[COMRAM] int 
  2540 ;; Auto vars:     Size  Location     Type
  2541 ;;  w               2   27[COMRAM] int 
  2542 ;;  i               2   25[COMRAM] int 
  2543 ;; Return value:  Size  Location     Type
  2544 ;;                  2   18[COMRAM] int 
  2545 ;; Registers used:
  2546 ;;		wreg, fsr1l, fsr1h, fsr2l, fsr2h, status,2, status,0, cstack
  2547 ;; Tracked objects:
  2548 ;;		On entry : 0/0
  2549 ;;		On exit  : 0/0
  2550 ;;		Unchanged: 0/0
  2551 ;; Data sizes:     COMRAM   BANK0   BANK1   BANK2   BANK3   BANK4   BANK5   BANK6   BANK7   BANK8   BANK9  BANK10  BANK1
      +1  BANK12  BANK13  BANK14  BANK15  BANK16  BANK17  BANK18  BANK19  BANK20  BANK21  BANK22  BANK23  BANK24  BANK25  BANK2
      +6  BANK27  BANK28  BANK29  BANK30  BANK31
  2552 ;;      Params:         6       0       0       0       0       0       0       0       0       0       0       0       
      +0       0       0       0       0       0       0       0       0       0       0       0       0       0       0       
      +0       0       0       0       0       0
  2553 ;;      Locals:         4       0       0       0       0       0       0       0       0       0       0       0       
      +0       0       0       0       0       0       0       0       0       0       0       0       0       0       0       
      +0       0       0       0       0       0
  2554 ;;      Temps:          1       0       0       0       0       0       0       0       0       0       0       0       
      +0       0       0       0       0       0       0       0       0       0       0       0       0       0       0       
      +0       0       0       0       0       0
  2555 ;;      Totals:        11       0       0       0       0       0       0       0       0       0       0       0       
      +0       0       0       0       0       0       0       0       0       0       0       0       0       0       0       
      +0       0       0       0       0       0
  2556 ;;Total ram usage:       11 bytes
  2557 ;; Hardware stack levels used: 1
  2558 ;; Hardware stack levels required when called: 8
  2559 ;; This function calls:
  2560 ;;		_fputc
  2561 ;;		_fputs
  2562 ;;		_strlen
  2563 ;; This function is called by:
  2564 ;;		_dtoa
  2565 ;; This function uses a non-reentrant model
  2566 ;;
  2567                           
  2568                           	psect	text5
  2569  003460                     __ptext5:
  2570                           	callstack 0
  2571  003460                     _pad:
  2572                           	callstack 18
  2573  003460                     
  2574                           ;C:\Program Files\Microchip\xc8\v2.32\pic\sources\c99\common\doprnt.c: 72: static int pa
      +                          d(FILE *fp, char *buf, int p);C:\Program Files\Microchip\xc8\v2.32\pic\sources\c99\commo
      +                          n\doprnt.c: 73: {;C:\Program Files\Microchip\xc8\v2.32\pic\sources\c99\common\doprnt.c: 
      +                          74:     int i, w;;C:\Program Files\Microchip\xc8\v2.32\pic\sources\c99\common\doprnt.c: 
      +                          77:     if (flags & (1 << 0)) {
  2575  003460  0100               	movlb	0	; () banked
  2576  003462  A172               	btfss	_flags& (0+255),0,b
  2577  003464  EF36  F01A         	goto	u1311
  2578  003468  EF38  F01A         	goto	u1310
  2579  00346C                     u1311:
  2580  00346C  EF42  F01A         	goto	l2715
  2581  003470                     u1310:
  2582  003470                     
  2583                           ; BSR set to: 0
  2584                           ;C:\Program Files\Microchip\xc8\v2.32\pic\sources\c99\common\doprnt.c: 78:         fputs
      +                          ((const char *)buf, fp);
  2585  003470  C015  F00C         	movff	pad@buf,fputs@s
  2586  003474  C016  F00D         	movff	pad@buf+1,fputs@s+1
  2587  003478  C013  F00E         	movff	pad@fp,fputs@fp
  2588  00347C  C014  F00F         	movff	pad@fp+1,fputs@fp+1
  2589  003480  ECD8  F01B         	call	_fputs	;wreg free
  2590  003484                     l2715:
  2591                           
  2592                           ;C:\Program Files\Microchip\xc8\v2.32\pic\sources\c99\common\doprnt.c: 82:     w = (p < 
      +                          0) ? 0 : p;
  2593  003484  BE18               	btfsc	(pad@p+1)^0,7,c
  2594  003486  EF47  F01A         	goto	u1321
  2595  00348A  EF49  F01A         	goto	u1320
  2596  00348E                     u1321:
  2597  00348E  EF4F  F01A         	goto	l2719
  2598  003492                     u1320:
  2599  003492  C017  F01C         	movff	pad@p,pad@w
  2600  003496  C018  F01D         	movff	pad@p+1,pad@w+1
  2601  00349A  EF53  F01A         	goto	l1341
  2602  00349E                     l2719:
  2603  00349E  0E00               	movlw	0
  2604  0034A0  6E1D               	movwf	(pad@w+1)^0,c
  2605  0034A2  0E00               	movlw	0
  2606  0034A4  6E1C               	movwf	pad@w^0,c
  2607  0034A6                     l1341:
  2608                           
  2609                           ;C:\Program Files\Microchip\xc8\v2.32\pic\sources\c99\common\doprnt.c: 83:     i = 0;
  2610  0034A6  0E00               	movlw	0
  2611  0034A8  6E1B               	movwf	(pad@i+1)^0,c
  2612  0034AA  0E00               	movlw	0
  2613  0034AC  6E1A               	movwf	pad@i^0,c
  2614                           
  2615                           ;C:\Program Files\Microchip\xc8\v2.32\pic\sources\c99\common\doprnt.c: 84:     while (i 
      +                          < w) {
  2616  0034AE  EF65  F01A         	goto	l2725
  2617  0034B2                     l2721:
  2618                           
  2619                           ;C:\Program Files\Microchip\xc8\v2.32\pic\sources\c99\common\doprnt.c: 85:         fputc
      +                          (' ', fp);
  2620  0034B2  0E00               	movlw	0
  2621  0034B4  6E04               	movwf	(fputc@c+1)^0,c
  2622  0034B6  0E20               	movlw	32
  2623  0034B8  6E03               	movwf	fputc@c^0,c
  2624  0034BA  C013  F005         	movff	pad@fp,fputc@fp
  2625  0034BE  C014  F006         	movff	pad@fp+1,fputc@fp+1
  2626  0034C2  ECE6  F01A         	call	_fputc	;wreg free
  2627  0034C6                     
  2628                           ;C:\Program Files\Microchip\xc8\v2.32\pic\sources\c99\common\doprnt.c: 86:         ++i;
  2629  0034C6  4A1A               	infsnz	pad@i^0,f,c
  2630  0034C8  2A1B               	incf	(pad@i+1)^0,f,c
  2631  0034CA                     l2725:
  2632                           
  2633                           ;C:\Program Files\Microchip\xc8\v2.32\pic\sources\c99\common\doprnt.c: 84:     while (i 
      +                          < w) {
  2634  0034CA  501C               	movf	pad@w^0,w,c
  2635  0034CC  5C1A               	subwf	pad@i^0,w,c
  2636  0034CE  501B               	movf	(pad@i+1)^0,w,c
  2637  0034D0  0A80               	xorlw	128
  2638  0034D2  6E19               	movwf	??_pad^0,c
  2639  0034D4  501D               	movf	(pad@w+1)^0,w,c
  2640  0034D6  0A80               	xorlw	128
  2641  0034D8  5819               	subwfb	??_pad^0,w,c
  2642  0034DA  A0D8               	btfss	status,0,c
  2643  0034DC  EF72  F01A         	goto	u1331
  2644  0034E0  EF74  F01A         	goto	u1330
  2645  0034E4                     u1331:
  2646  0034E4  EF59  F01A         	goto	l2721
  2647  0034E8                     u1330:
  2648  0034E8                     
  2649                           ;C:\Program Files\Microchip\xc8\v2.32\pic\sources\c99\common\doprnt.c: 90:     if (!(fla
      +                          gs & (1 << 0))) {
  2650  0034E8  0100               	movlb	0	; () banked
  2651  0034EA  B172               	btfsc	_flags& (0+255),0,b
  2652  0034EC  EF7A  F01A         	goto	u1341
  2653  0034F0  EF7C  F01A         	goto	u1340
  2654  0034F4                     u1341:
  2655  0034F4  EF86  F01A         	goto	l2729
  2656  0034F8                     u1340:
  2657  0034F8                     
  2658                           ; BSR set to: 0
  2659                           ;C:\Program Files\Microchip\xc8\v2.32\pic\sources\c99\common\doprnt.c: 91:         fputs
      +                          ((const char *)buf, fp);
  2660  0034F8  C015  F00C         	movff	pad@buf,fputs@s
  2661  0034FC  C016  F00D         	movff	pad@buf+1,fputs@s+1
  2662  003500  C013  F00E         	movff	pad@fp,fputs@fp
  2663  003504  C014  F00F         	movff	pad@fp+1,fputs@fp+1
  2664  003508  ECD8  F01B         	call	_fputs	;wreg free
  2665  00350C                     l2729:
  2666                           
  2667                           ;C:\Program Files\Microchip\xc8\v2.32\pic\sources\c99\common\doprnt.c: 94:     return (i
      +                          nt)(strlen(buf) + (size_t)w);
  2668  00350C  C015  F001         	movff	pad@buf,strlen@s
  2669  003510  C016  F002         	movff	pad@buf+1,strlen@s+1
  2670  003514  EC3B  F01C         	call	_strlen	;wreg free
  2671  003518  501C               	movf	pad@w^0,w,c
  2672  00351A  2401               	addwf	?_strlen^0,w,c
  2673  00351C  6E13               	movwf	?_pad^0,c
  2674  00351E  501D               	movf	(pad@w+1)^0,w,c
  2675  003520  2002               	addwfc	(?_strlen+1)^0,w,c
  2676  003522  6E14               	movwf	(?_pad+1)^0,c
  2677  003524  0012               	return		;funcret
  2678  003526                     __end_of_pad:
  2679                           	callstack 0
  2680                           
  2681 ;; *************** function _strlen *****************
  2682 ;; Defined at:
  2683 ;;		line 5 in file "C:\Program Files\Microchip\xc8\v2.32\pic\sources\c99\common\strlen.c"
  2684 ;; Parameters:    Size  Location     Type
  2685 ;;  s               2    0[COMRAM] PTR const unsigned char 
  2686 ;;		 -> dbuf(32), 
  2687 ;; Auto vars:     Size  Location     Type
  2688 ;;  a               2    2[COMRAM] PTR const unsigned char 
  2689 ;;		 -> dbuf(32), 
  2690 ;; Return value:  Size  Location     Type
  2691 ;;                  2    0[COMRAM] unsigned int 
  2692 ;; Registers used:
  2693 ;;		wreg, fsr2l, fsr2h, status,2, status,0
  2694 ;; Tracked objects:
  2695 ;;		On entry : 0/0
  2696 ;;		On exit  : 0/0
  2697 ;;		Unchanged: 0/0
  2698 ;; Data sizes:     COMRAM   BANK0   BANK1   BANK2   BANK3   BANK4   BANK5   BANK6   BANK7   BANK8   BANK9  BANK10  BANK1
      +1  BANK12  BANK13  BANK14  BANK15  BANK16  BANK17  BANK18  BANK19  BANK20  BANK21  BANK22  BANK23  BANK24  BANK25  BANK2
      +6  BANK27  BANK28  BANK29  BANK30  BANK31
  2699 ;;      Params:         2       0       0       0       0       0       0       0       0       0       0       0       
      +0       0       0       0       0       0       0       0       0       0       0       0       0       0       0       
      +0       0       0       0       0       0
  2700 ;;      Locals:         2       0       0       0       0       0       0       0       0       0       0       0       
      +0       0       0       0       0       0       0       0       0       0       0       0       0       0       0       
      +0       0       0       0       0       0
  2701 ;;      Temps:          0       0       0       0       0       0       0       0       0       0       0       0       
      +0       0       0       0       0       0       0       0       0       0       0       0       0       0       0       
      +0       0       0       0       0       0
  2702 ;;      Totals:         4       0       0       0       0       0       0       0       0       0       0       0       
      +0       0       0       0       0       0       0       0       0       0       0       0       0       0       0       
      +0       0       0       0       0       0
  2703 ;;Total ram usage:        4 bytes
  2704 ;; Hardware stack levels used: 1
  2705 ;; Hardware stack levels required when called: 4
  2706 ;; This function calls:
  2707 ;;		Nothing
  2708 ;; This function is called by:
  2709 ;;		_pad
  2710 ;; This function uses a non-reentrant model
  2711 ;;
  2712                           
  2713                           	psect	text6
  2714  003876                     __ptext6:
  2715                           	callstack 0
  2716  003876                     _strlen:
  2717                           	callstack 21
  2718  003876  C001  F003         	movff	strlen@s,strlen@a
  2719  00387A  C002  F004         	movff	strlen@s+1,strlen@a+1
  2720  00387E  EF43  F01C         	goto	l2625
  2721  003882                     l2623:
  2722  003882  4A01               	infsnz	strlen@s^0,f,c
  2723  003884  2A02               	incf	(strlen@s+1)^0,f,c
  2724  003886                     l2625:
  2725  003886  0060  F007  FFD9   	movff	strlen@s,fsr2l
  2726  00388C  0060  F00B  FFDA   	movff	strlen@s+1,fsr2h
  2727  003892  50DF               	movf	indf2,w,c
  2728  003894  A4D8               	btfss	status,2,c
  2729  003896  EF4F  F01C         	goto	u1171
  2730  00389A  EF51  F01C         	goto	u1170
  2731  00389E                     u1171:
  2732  00389E  EF41  F01C         	goto	l2623
  2733  0038A2                     u1170:
  2734  0038A2  5003               	movf	strlen@a^0,w,c
  2735  0038A4  5C01               	subwf	strlen@s^0,w,c
  2736  0038A6  6E01               	movwf	?_strlen^0,c
  2737  0038A8  5004               	movf	(strlen@a+1)^0,w,c
  2738  0038AA  5802               	subwfb	(strlen@s+1)^0,w,c
  2739  0038AC  6E02               	movwf	(?_strlen+1)^0,c
  2740  0038AE  0012               	return		;funcret
  2741  0038B0                     __end_of_strlen:
  2742                           	callstack 0
  2743                           
  2744 ;; *************** function _fputs *****************
  2745 ;; Defined at:
  2746 ;;		line 8 in file "C:\Program Files\Microchip\xc8\v2.32\pic\sources\c99\common\nf_fputs.c"
  2747 ;; Parameters:    Size  Location     Type
  2748 ;;  s               2   11[COMRAM] PTR const unsigned char 
  2749 ;;		 -> dbuf(32), 
  2750 ;;  fp              2   13[COMRAM] PTR struct _IO_FILE
  2751 ;;		 -> NULL(0), 
  2752 ;; Auto vars:     Size  Location     Type
  2753 ;;  i               2   16[COMRAM] int 
  2754 ;;  c               1   15[COMRAM] unsigned char 
  2755 ;; Return value:  Size  Location     Type
  2756 ;;                  2   11[COMRAM] int 
  2757 ;; Registers used:
  2758 ;;		wreg, fsr1l, fsr1h, fsr2l, fsr2h, status,2, status,0, cstack
  2759 ;; Tracked objects:
  2760 ;;		On entry : 0/0
  2761 ;;		On exit  : 0/0
  2762 ;;		Unchanged: 0/0
  2763 ;; Data sizes:     COMRAM   BANK0   BANK1   BANK2   BANK3   BANK4   BANK5   BANK6   BANK7   BANK8   BANK9  BANK10  BANK1
      +1  BANK12  BANK13  BANK14  BANK15  BANK16  BANK17  BANK18  BANK19  BANK20  BANK21  BANK22  BANK23  BANK24  BANK25  BANK2
      +6  BANK27  BANK28  BANK29  BANK30  BANK31
  2764 ;;      Params:         4       0       0       0       0       0       0       0       0       0       0       0       
      +0       0       0       0       0       0       0       0       0       0       0       0       0       0       0       
      +0       0       0       0       0       0
  2765 ;;      Locals:         3       0       0       0       0       0       0       0       0       0       0       0       
      +0       0       0       0       0       0       0       0       0       0       0       0       0       0       0       
      +0       0       0       0       0       0
  2766 ;;      Temps:          0       0       0       0       0       0       0       0       0       0       0       0       
      +0       0       0       0       0       0       0       0       0       0       0       0       0       0       0       
      +0       0       0       0       0       0
  2767 ;;      Totals:         7       0       0       0       0       0       0       0       0       0       0       0       
      +0       0       0       0       0       0       0       0       0       0       0       0       0       0       0       
      +0       0       0       0       0       0
  2768 ;;Total ram usage:        7 bytes
  2769 ;; Hardware stack levels used: 1
  2770 ;; Hardware stack levels required when called: 7
  2771 ;; This function calls:
  2772 ;;		_fputc
  2773 ;; This function is called by:
  2774 ;;		_pad
  2775 ;; This function uses a non-reentrant model
  2776 ;;
  2777                           
  2778                           	psect	text7
  2779  0037B0                     __ptext7:
  2780                           	callstack 0
  2781  0037B0                     _fputs:
  2782                           	callstack 18
  2783  0037B0  0E00               	movlw	0
  2784  0037B2  6E12               	movwf	(fputs@i+1)^0,c
  2785  0037B4  0E00               	movlw	0
  2786  0037B6  6E11               	movwf	fputs@i^0,c
  2787  0037B8  EFE9  F01B         	goto	l2619
  2788  0037BC                     l2615:
  2789  0037BC  C010  F003         	movff	fputs@c,fputc@c
  2790  0037C0  6A04               	clrf	(fputc@c+1)^0,c
  2791  0037C2  C00E  F005         	movff	fputs@fp,fputc@fp
  2792  0037C6  C00F  F006         	movff	fputs@fp+1,fputc@fp+1
  2793  0037CA  ECE6  F01A         	call	_fputc	;wreg free
  2794  0037CE  4A11               	infsnz	fputs@i^0,f,c
  2795  0037D0  2A12               	incf	(fputs@i+1)^0,f,c
  2796  0037D2                     l2619:
  2797  0037D2  5011               	movf	fputs@i^0,w,c
  2798  0037D4  240C               	addwf	fputs@s^0,w,c
  2799  0037D6  6ED9               	movwf	fsr2l,c
  2800  0037D8  5012               	movf	(fputs@i+1)^0,w,c
  2801  0037DA  200D               	addwfc	(fputs@s+1)^0,w,c
  2802  0037DC  6EDA               	movwf	fsr2h,c
  2803  0037DE  50DF               	movf	indf2,w,c
  2804  0037E0  6E10               	movwf	fputs@c^0,c
  2805  0037E2  5010               	movf	fputs@c^0,w,c
  2806  0037E4  A4D8               	btfss	status,2,c
  2807  0037E6  EFF7  F01B         	goto	u1161
  2808  0037EA  EFF9  F01B         	goto	u1160
  2809  0037EE                     u1161:
  2810  0037EE  EFDE  F01B         	goto	l2615
  2811  0037F2                     u1160:
  2812  0037F2  0012               	return		;funcret
  2813  0037F4                     __end_of_fputs:
  2814                           	callstack 0
  2815                           
  2816 ;; *************** function _fputc *****************
  2817 ;; Defined at:
  2818 ;;		line 8 in file "C:\Program Files\Microchip\xc8\v2.32\pic\sources\c99\common\nf_fputc.c"
  2819 ;; Parameters:    Size  Location     Type
  2820 ;;  c               2    2[COMRAM] int 
  2821 ;;  fp              2    4[COMRAM] PTR struct _IO_FILE
  2822 ;;		 -> NULL(0), 
  2823 ;; Auto vars:     Size  Location     Type
  2824 ;;		None
  2825 ;; Return value:  Size  Location     Type
  2826 ;;                  2    2[COMRAM] int 
  2827 ;; Registers used:
  2828 ;;		wreg, fsr1l, fsr1h, fsr2l, fsr2h, status,2, status,0, cstack
  2829 ;; Tracked objects:
  2830 ;;		On entry : 0/0
  2831 ;;		On exit  : 0/0
  2832 ;;		Unchanged: 0/0
  2833 ;; Data sizes:     COMRAM   BANK0   BANK1   BANK2   BANK3   BANK4   BANK5   BANK6   BANK7   BANK8   BANK9  BANK10  BANK1
      +1  BANK12  BANK13  BANK14  BANK15  BANK16  BANK17  BANK18  BANK19  BANK20  BANK21  BANK22  BANK23  BANK24  BANK25  BANK2
      +6  BANK27  BANK28  BANK29  BANK30  BANK31
  2834 ;;      Params:         4       0       0       0       0       0       0       0       0       0       0       0       
      +0       0       0       0       0       0       0       0       0       0       0       0       0       0       0       
      +0       0       0       0       0       0
  2835 ;;      Locals:         0       0       0       0       0       0       0       0       0       0       0       0       
      +0       0       0       0       0       0       0       0       0       0       0       0       0       0       0       
      +0       0       0       0       0       0
  2836 ;;      Temps:          5       0       0       0       0       0       0       0       0       0       0       0       
      +0       0       0       0       0       0       0       0       0       0       0       0       0       0       0       
      +0       0       0       0       0       0
  2837 ;;      Totals:         9       0       0       0       0       0       0       0       0       0       0       0       
      +0       0       0       0       0       0       0       0       0       0       0       0       0       0       0       
      +0       0       0       0       0       0
  2838 ;;Total ram usage:        9 bytes
  2839 ;; Hardware stack levels used: 1
  2840 ;; Hardware stack levels required when called: 6
  2841 ;; This function calls:
  2842 ;;		_putch
  2843 ;; This function is called by:
  2844 ;;		_pad
  2845 ;;		_vfpfcnvrt
  2846 ;;		_fputs
  2847 ;; This function uses a non-reentrant model
  2848 ;;
  2849                           
  2850                           	psect	text8
  2851  0035CC                     __ptext8:
  2852                           	callstack 0
  2853  0035CC                     _fputc:
  2854                           	callstack 21
  2855  0035CC  5005               	movf	fputc@fp^0,w,c
  2856  0035CE  1006               	iorwf	(fputc@fp+1)^0,w,c
  2857  0035D0  B4D8               	btfsc	status,2,c
  2858  0035D2  EFED  F01A         	goto	u1121
  2859  0035D6  EFEF  F01A         	goto	u1120
  2860  0035DA                     u1121:
  2861  0035DA  EFF8  F01A         	goto	l2603
  2862  0035DE                     u1120:
  2863  0035DE  5005               	movf	fputc@fp^0,w,c
  2864  0035E0  1006               	iorwf	(fputc@fp+1)^0,w,c
  2865  0035E2  A4D8               	btfss	status,2,c
  2866  0035E4  EFF6  F01A         	goto	u1131
  2867  0035E8  EFF8  F01A         	goto	u1130
  2868  0035EC                     u1131:
  2869  0035EC  EFFD  F01A         	goto	l2605
  2870  0035F0                     u1130:
  2871  0035F0                     l2603:
  2872  0035F0  5003               	movf	fputc@c^0,w,c
  2873  0035F2  EC38  F01D         	call	_putch
  2874  0035F6  EF30  F01B         	goto	l1405
  2875  0035FA                     l2605:
  2876  0035FA  EE20 F004          	lfsr	2,4
  2877  0035FE  5005               	movf	fputc@fp^0,w,c
  2878  003600  26D9               	addwf	fsr2l,f,c
  2879  003602  5006               	movf	(fputc@fp+1)^0,w,c
  2880  003604  22DA               	addwfc	fsr2h,f,c
  2881  003606  50DE               	movf	postinc2,w,c
  2882  003608  10DE               	iorwf	postinc2,w,c
  2883  00360A  B4D8               	btfsc	status,2,c
  2884  00360C  EF0A  F01B         	goto	u1141
  2885  003610  EF0C  F01B         	goto	u1140
  2886  003614                     u1141:
  2887  003614  EF27  F01B         	goto	l2609
  2888  003618                     u1140:
  2889  003618  EE20 F004          	lfsr	2,4
  2890  00361C  5005               	movf	fputc@fp^0,w,c
  2891  00361E  26D9               	addwf	fsr2l,f,c
  2892  003620  5006               	movf	(fputc@fp+1)^0,w,c
  2893  003622  22DA               	addwfc	fsr2h,f,c
  2894  003624  EE10 F002          	lfsr	1,2
  2895  003628  5005               	movf	fputc@fp^0,w,c
  2896  00362A  26E1               	addwf	fsr1l,f,c
  2897  00362C  5006               	movf	(fputc@fp+1)^0,w,c
  2898  00362E  22E2               	addwfc	fsr1h,f,c
  2899  003630  50DE               	movf	postinc2,w,c
  2900  003632  5CE6               	subwf	postinc1,w,c
  2901  003634  50E6               	movf	postinc1,w,c
  2902  003636  0A80               	xorlw	128
  2903  003638  6E0B               	movwf	(??_fputc+4)^0,c
  2904  00363A  50DE               	movf	postinc2,w,c
  2905  00363C  0A80               	xorlw	128
  2906  00363E  580B               	subwfb	(??_fputc+4)^0,w,c
  2907  003640  B0D8               	btfsc	status,0,c
  2908  003642  EF25  F01B         	goto	u1151
  2909  003646  EF27  F01B         	goto	u1150
  2910  00364A                     u1151:
  2911  00364A  EF30  F01B         	goto	l1405
  2912  00364E                     u1150:
  2913  00364E                     l2609:
  2914  00364E  EE20 F002          	lfsr	2,2
  2915  003652  5005               	movf	fputc@fp^0,w,c
  2916  003654  26D9               	addwf	fsr2l,f,c
  2917  003656  5006               	movf	(fputc@fp+1)^0,w,c
  2918  003658  22DA               	addwfc	fsr2h,f,c
  2919  00365A  2ADE               	incf	postinc2,f,c
  2920  00365C  0E00               	movlw	0
  2921  00365E  22DD               	addwfc	postdec2,f,c
  2922  003660                     l1405:
  2923  003660  0012               	return		;funcret
  2924  003662                     __end_of_fputc:
  2925                           	callstack 0
  2926                           
  2927 ;; *************** function _putch *****************
  2928 ;; Defined at:
  2929 ;;		line 184 in file "mcc_generated_files/uart1.c"
  2930 ;; Parameters:    Size  Location     Type
  2931 ;;  txData          1    wreg     unsigned char 
  2932 ;; Auto vars:     Size  Location     Type
  2933 ;;  txData          1    1[COMRAM] unsigned char 
  2934 ;; Return value:  Size  Location     Type
  2935 ;;                  1    wreg      void 
  2936 ;; Registers used:
  2937 ;;		wreg, status,2, cstack
  2938 ;; Tracked objects:
  2939 ;;		On entry : 0/0
  2940 ;;		On exit  : 0/0
  2941 ;;		Unchanged: 0/0
  2942 ;; Data sizes:     COMRAM   BANK0   BANK1   BANK2   BANK3   BANK4   BANK5   BANK6   BANK7   BANK8   BANK9  BANK10  BANK1
      +1  BANK12  BANK13  BANK14  BANK15  BANK16  BANK17  BANK18  BANK19  BANK20  BANK21  BANK22  BANK23  BANK24  BANK25  BANK2
      +6  BANK27  BANK28  BANK29  BANK30  BANK31
  2943 ;;      Params:         0       0       0       0       0       0       0       0       0       0       0       0       
      +0       0       0       0       0       0       0       0       0       0       0       0       0       0       0       
      +0       0       0       0       0       0
  2944 ;;      Locals:         1       0       0       0       0       0       0       0       0       0       0       0       
      +0       0       0       0       0       0       0       0       0       0       0       0       0       0       0       
      +0       0       0       0       0       0
  2945 ;;      Temps:          0       0       0       0       0       0       0       0       0       0       0       0       
      +0       0       0       0       0       0       0       0       0       0       0       0       0       0       0       
      +0       0       0       0       0       0
  2946 ;;      Totals:         1       0       0       0       0       0       0       0       0       0       0       0       
      +0       0       0       0       0       0       0       0       0       0       0       0       0       0       0       
      +0       0       0       0       0       0
  2947 ;;Total ram usage:        1 bytes
  2948 ;; Hardware stack levels used: 1
  2949 ;; Hardware stack levels required when called: 5
  2950 ;; This function calls:
  2951 ;;		_UART1_Write
  2952 ;; This function is called by:
  2953 ;;		_fputc
  2954 ;; This function uses a non-reentrant model
  2955 ;;
  2956                           
  2957                           	psect	text9
  2958  003A70                     __ptext9:
  2959                           	callstack 0
  2960  003A70                     _putch:
  2961                           	callstack 21
  2962                           
  2963                           ;incstack = 0
  2964                           ;putch@txData stored from wreg
  2965  003A70  6E02               	movwf	putch@txData^0,c
  2966  003A72                     
  2967                           ;mcc_generated_files/uart1.c: 184: void putch(char txData);mcc_generated_files/uart1.c: 
      +                          185: {;mcc_generated_files/uart1.c: 186:     UART1_Write(txData);
  2968  003A72  5002               	movf	putch@txData^0,w,c
  2969  003A74  EC03  F01D         	call	_UART1_Write
  2970  003A78  0012               	return		;funcret
  2971  003A7A                     __end_of_putch:
  2972                           	callstack 0
  2973                           
  2974 ;; *************** function _UART1_Write *****************
  2975 ;; Defined at:
  2976 ;;		line 170 in file "mcc_generated_files/uart1.c"
  2977 ;; Parameters:    Size  Location     Type
  2978 ;;  txData          1    wreg     unsigned char 
  2979 ;; Auto vars:     Size  Location     Type
  2980 ;;  txData          1    0[COMRAM] unsigned char 
  2981 ;; Return value:  Size  Location     Type
  2982 ;;                  1    wreg      void 
  2983 ;; Registers used:
  2984 ;;		wreg
  2985 ;; Tracked objects:
  2986 ;;		On entry : 0/0
  2987 ;;		On exit  : 0/0
  2988 ;;		Unchanged: 0/0
  2989 ;; Data sizes:     COMRAM   BANK0   BANK1   BANK2   BANK3   BANK4   BANK5   BANK6   BANK7   BANK8   BANK9  BANK10  BANK1
      +1  BANK12  BANK13  BANK14  BANK15  BANK16  BANK17  BANK18  BANK19  BANK20  BANK21  BANK22  BANK23  BANK24  BANK25  BANK2
      +6  BANK27  BANK28  BANK29  BANK30  BANK31
  2990 ;;      Params:         0       0       0       0       0       0       0       0       0       0       0       0       
      +0       0       0       0       0       0       0       0       0       0       0       0       0       0       0       
      +0       0       0       0       0       0
  2991 ;;      Locals:         1       0       0       0       0       0       0       0       0       0       0       0       
      +0       0       0       0       0       0       0       0       0       0       0       0       0       0       0       
      +0       0       0       0       0       0
  2992 ;;      Temps:          0       0       0       0       0       0       0       0       0       0       0       0       
      +0       0       0       0       0       0       0       0       0       0       0       0       0       0       0       
      +0       0       0       0       0       0
  2993 ;;      Totals:         1       0       0       0       0       0       0       0       0       0       0       0       
      +0       0       0       0       0       0       0       0       0       0       0       0       0       0       0       
      +0       0       0       0       0       0
  2994 ;;Total ram usage:        1 bytes
  2995 ;; Hardware stack levels used: 1
  2996 ;; Hardware stack levels required when called: 4
  2997 ;; This function calls:
  2998 ;;		Nothing
  2999 ;; This function is called by:
  3000 ;;		_putch
  3001 ;; This function uses a non-reentrant model
  3002 ;;
  3003                           
  3004                           	psect	text10
  3005  003A06                     __ptext10:
  3006                           	callstack 0
  3007  003A06                     _UART1_Write:
  3008                           	callstack 21
  3009                           
  3010                           ;incstack = 0
  3011                           ;UART1_Write@txData stored from wreg
  3012  003A06  6E01               	movwf	UART1_Write@txData^0,c
  3013  003A08                     l333:
  3014                           
  3015                           ;mcc_generated_files/uart1.c: 172:     while(0 == PIR3bits.U1TXIF)
  3016  003A08  0139               	movlb	57	; () banked
  3017  003A0A  A9A3               	btfss	163,4,b	;volatile
  3018  003A0C  EF0A  F01D         	goto	u1111
  3019  003A10  EF0C  F01D         	goto	u1110
  3020  003A14                     u1111:
  3021  003A14  EF04  F01D         	goto	l333
  3022  003A18                     u1110:
  3023  003A18                     
  3024                           ; BSR set to: 57
  3025                           ;mcc_generated_files/uart1.c: 176:     U1TXB = txData;
  3026  003A18  0060  F007  FDEA   	movff	UART1_Write@txData,15850	;volatile
  3027  003A1E                     
  3028                           ; BSR set to: 57
  3029  003A1E  0012               	return		;funcret
  3030  003A20                     __end_of_UART1_Write:
  3031                           	callstack 0
  3032                           
  3033 ;; *************** function _abs *****************
  3034 ;; Defined at:
  3035 ;;		line 1 in file "C:\Program Files\Microchip\xc8\v2.32\pic\sources\c99\common\abs.c"
  3036 ;; Parameters:    Size  Location     Type
  3037 ;;  a               2   18[COMRAM] int 
  3038 ;; Auto vars:     Size  Location     Type
  3039 ;;		None
  3040 ;; Return value:  Size  Location     Type
  3041 ;;                  2   18[COMRAM] int 
  3042 ;; Registers used:
  3043 ;;		wreg, status,2, status,0
  3044 ;; Tracked objects:
  3045 ;;		On entry : 0/0
  3046 ;;		On exit  : 0/0
  3047 ;;		Unchanged: 0/0
  3048 ;; Data sizes:     COMRAM   BANK0   BANK1   BANK2   BANK3   BANK4   BANK5   BANK6   BANK7   BANK8   BANK9  BANK10  BANK1
      +1  BANK12  BANK13  BANK14  BANK15  BANK16  BANK17  BANK18  BANK19  BANK20  BANK21  BANK22  BANK23  BANK24  BANK25  BANK2
      +6  BANK27  BANK28  BANK29  BANK30  BANK31
  3049 ;;      Params:         2       0       0       0       0       0       0       0       0       0       0       0       
      +0       0       0       0       0       0       0       0       0       0       0       0       0       0       0       
      +0       0       0       0       0       0
  3050 ;;      Locals:         0       0       0       0       0       0       0       0       0       0       0       0       
      +0       0       0       0       0       0       0       0       0       0       0       0       0       0       0       
      +0       0       0       0       0       0
  3051 ;;      Temps:          2       0       0       0       0       0       0       0       0       0       0       0       
      +0       0       0       0       0       0       0       0       0       0       0       0       0       0       0       
      +0       0       0       0       0       0
  3052 ;;      Totals:         4       0       0       0       0       0       0       0       0       0       0       0       
      +0       0       0       0       0       0       0       0       0       0       0       0       0       0       0       
      +0       0       0       0       0       0
  3053 ;;Total ram usage:        4 bytes
  3054 ;; Hardware stack levels used: 1
  3055 ;; Hardware stack levels required when called: 4
  3056 ;; This function calls:
  3057 ;;		Nothing
  3058 ;; This function is called by:
  3059 ;;		_dtoa
  3060 ;; This function uses a non-reentrant model
  3061 ;;
  3062                           
  3063                           	psect	text11
  3064  003836                     __ptext11:
  3065                           	callstack 0
  3066  003836                     _abs:
  3067                           	callstack 22
  3068  003836  BE14               	btfsc	(abs@a+1)^0,7,c
  3069  003838  EF28  F01C         	goto	u1350
  3070  00383C  5014               	movf	(abs@a+1)^0,w,c
  3071  00383E  E106               	bnz	u1351
  3072  003840  0413               	decf	abs@a^0,w,c
  3073  003842  B0D8               	btfsc	status,0,c
  3074  003844  EF26  F01C         	goto	u1351
  3075  003848  EF28  F01C         	goto	u1350
  3076  00384C                     u1351:
  3077  00384C  EF36  F01C         	goto	l1390
  3078  003850                     u1350:
  3079  003850  C013  F015         	movff	abs@a,??_abs
  3080  003854  C014  F016         	movff	abs@a+1,??_abs+1
  3081  003858  1E15               	comf	??_abs^0,f,c
  3082  00385A  1E16               	comf	(??_abs+1)^0,f,c
  3083  00385C  4A15               	infsnz	??_abs^0,f,c
  3084  00385E  2A16               	incf	(??_abs+1)^0,f,c
  3085  003860  C015  F013         	movff	??_abs,?_abs
  3086  003864  C016  F014         	movff	??_abs+1,?_abs+1
  3087  003868  EF3A  F01C         	goto	l1393
  3088  00386C                     l1390:
  3089  00386C  C013  F013         	movff	abs@a,?_abs
  3090  003870  C014  F014         	movff	abs@a+1,?_abs+1
  3091  003874                     l1393:
  3092  003874  0012               	return		;funcret
  3093  003876                     __end_of_abs:
  3094                           	callstack 0
  3095                           
  3096 ;; *************** function ___aomod *****************
  3097 ;; Defined at:
  3098 ;;		line 9 in file "C:\Program Files\Microchip\xc8\v2.32\pic\sources\c99\common\aomod.c"
  3099 ;; Parameters:    Size  Location     Type
  3100 ;;  dividend        8    0[COMRAM] long long 
  3101 ;;  divisor         8    8[COMRAM] long long 
  3102 ;; Auto vars:     Size  Location     Type
  3103 ;;  sign            1   17[COMRAM] unsigned char 
  3104 ;;  counter         1   16[COMRAM] unsigned char 
  3105 ;; Return value:  Size  Location     Type
  3106 ;;                  8    0[COMRAM] long long 
  3107 ;; Registers used:
  3108 ;;		wreg, status,2, status,0
  3109 ;; Tracked objects:
  3110 ;;		On entry : 0/0
  3111 ;;		On exit  : 0/0
  3112 ;;		Unchanged: 0/0
  3113 ;; Data sizes:     COMRAM   BANK0   BANK1   BANK2   BANK3   BANK4   BANK5   BANK6   BANK7   BANK8   BANK9  BANK10  BANK1
      +1  BANK12  BANK13  BANK14  BANK15  BANK16  BANK17  BANK18  BANK19  BANK20  BANK21  BANK22  BANK23  BANK24  BANK25  BANK2
      +6  BANK27  BANK28  BANK29  BANK30  BANK31
  3114 ;;      Params:        16       0       0       0       0       0       0       0       0       0       0       0       
      +0       0       0       0       0       0       0       0       0       0       0       0       0       0       0       
      +0       0       0       0       0       0
  3115 ;;      Locals:         2       0       0       0       0       0       0       0       0       0       0       0       
      +0       0       0       0       0       0       0       0       0       0       0       0       0       0       0       
      +0       0       0       0       0       0
  3116 ;;      Temps:          0       0       0       0       0       0       0       0       0       0       0       0       
      +0       0       0       0       0       0       0       0       0       0       0       0       0       0       0       
      +0       0       0       0       0       0
  3117 ;;      Totals:        18       0       0       0       0       0       0       0       0       0       0       0       
      +0       0       0       0       0       0       0       0       0       0       0       0       0       0       0       
      +0       0       0       0       0       0
  3118 ;;Total ram usage:       18 bytes
  3119 ;; Hardware stack levels used: 1
  3120 ;; Hardware stack levels required when called: 4
  3121 ;; This function calls:
  3122 ;;		Nothing
  3123 ;; This function is called by:
  3124 ;;		_dtoa
  3125 ;; This function uses a non-reentrant model
  3126 ;;
  3127                           
  3128                           	psect	text12
  3129  0031F6                     __ptext12:
  3130                           	callstack 0
  3131  0031F6                     ___aomod:
  3132                           	callstack 22
  3133  0031F6  0E00               	movlw	0
  3134  0031F8  6E12               	movwf	___aomod@sign^0,c
  3135  0031FA  BE08               	btfsc	(___aomod@dividend+7)^0,7,c
  3136  0031FC  EF04  F019         	goto	u1250
  3137  003200  EF02  F019         	goto	u1251
  3138  003204                     u1251:
  3139  003204  EF16  F019         	goto	l2683
  3140  003208                     u1250:
  3141  003208  1E08               	comf	(___aomod@dividend+7)^0,f,c
  3142  00320A  1E07               	comf	(___aomod@dividend+6)^0,f,c
  3143  00320C  1E06               	comf	(___aomod@dividend+5)^0,f,c
  3144  00320E  1E05               	comf	(___aomod@dividend+4)^0,f,c
  3145  003210  1E04               	comf	(___aomod@dividend+3)^0,f,c
  3146  003212  1E03               	comf	(___aomod@dividend+2)^0,f,c
  3147  003214  1E02               	comf	(___aomod@dividend+1)^0,f,c
  3148  003216  6C01               	negf	___aomod@dividend^0,c
  3149  003218  0E00               	movlw	0
  3150  00321A  2202               	addwfc	(___aomod@dividend+1)^0,f,c
  3151  00321C  2203               	addwfc	(___aomod@dividend+2)^0,f,c
  3152  00321E  2204               	addwfc	(___aomod@dividend+3)^0,f,c
  3153  003220  2205               	addwfc	(___aomod@dividend+4)^0,f,c
  3154  003222  2206               	addwfc	(___aomod@dividend+5)^0,f,c
  3155  003224  2207               	addwfc	(___aomod@dividend+6)^0,f,c
  3156  003226  2208               	addwfc	(___aomod@dividend+7)^0,f,c
  3157  003228  0E01               	movlw	1
  3158  00322A  6E12               	movwf	___aomod@sign^0,c
  3159  00322C                     l2683:
  3160  00322C  BE10               	btfsc	(___aomod@divisor+7)^0,7,c
  3161  00322E  EF1D  F019         	goto	u1260
  3162  003232  EF1B  F019         	goto	u1261
  3163  003236                     u1261:
  3164  003236  EF2D  F019         	goto	l2687
  3165  00323A                     u1260:
  3166  00323A  1E10               	comf	(___aomod@divisor+7)^0,f,c
  3167  00323C  1E0F               	comf	(___aomod@divisor+6)^0,f,c
  3168  00323E  1E0E               	comf	(___aomod@divisor+5)^0,f,c
  3169  003240  1E0D               	comf	(___aomod@divisor+4)^0,f,c
  3170  003242  1E0C               	comf	(___aomod@divisor+3)^0,f,c
  3171  003244  1E0B               	comf	(___aomod@divisor+2)^0,f,c
  3172  003246  1E0A               	comf	(___aomod@divisor+1)^0,f,c
  3173  003248  6C09               	negf	___aomod@divisor^0,c
  3174  00324A  0E00               	movlw	0
  3175  00324C  220A               	addwfc	(___aomod@divisor+1)^0,f,c
  3176  00324E  220B               	addwfc	(___aomod@divisor+2)^0,f,c
  3177  003250  220C               	addwfc	(___aomod@divisor+3)^0,f,c
  3178  003252  220D               	addwfc	(___aomod@divisor+4)^0,f,c
  3179  003254  220E               	addwfc	(___aomod@divisor+5)^0,f,c
  3180  003256  220F               	addwfc	(___aomod@divisor+6)^0,f,c
  3181  003258  2210               	addwfc	(___aomod@divisor+7)^0,f,c
  3182  00325A                     l2687:
  3183  00325A  5009               	movf	___aomod@divisor^0,w,c
  3184  00325C  100A               	iorwf	(___aomod@divisor+1)^0,w,c
  3185  00325E  100B               	iorwf	(___aomod@divisor+2)^0,w,c
  3186  003260  100C               	iorwf	(___aomod@divisor+3)^0,w,c
  3187  003262  100D               	iorwf	(___aomod@divisor+4)^0,w,c
  3188  003264  100E               	iorwf	(___aomod@divisor+5)^0,w,c
  3189  003266  100F               	iorwf	(___aomod@divisor+6)^0,w,c
  3190  003268  1010               	iorwf	(___aomod@divisor+7)^0,w,c
  3191  00326A  B4D8               	btfsc	status,2,c
  3192  00326C  EF3A  F019         	goto	u1271
  3193  003270  EF3C  F019         	goto	u1270
  3194  003274                     u1271:
  3195  003274  EF84  F019         	goto	l2703
  3196  003278                     u1270:
  3197  003278  0E01               	movlw	1
  3198  00327A  6E11               	movwf	___aomod@counter^0,c
  3199  00327C  EF4A  F019         	goto	l2693
  3200  003280                     l2691:
  3201  003280  90D8               	bcf	status,0,c
  3202  003282  3609               	rlcf	___aomod@divisor^0,f,c
  3203  003284  360A               	rlcf	(___aomod@divisor+1)^0,f,c
  3204  003286  360B               	rlcf	(___aomod@divisor+2)^0,f,c
  3205  003288  360C               	rlcf	(___aomod@divisor+3)^0,f,c
  3206  00328A  360D               	rlcf	(___aomod@divisor+4)^0,f,c
  3207  00328C  360E               	rlcf	(___aomod@divisor+5)^0,f,c
  3208  00328E  360F               	rlcf	(___aomod@divisor+6)^0,f,c
  3209  003290  3610               	rlcf	(___aomod@divisor+7)^0,f,c
  3210  003292  2A11               	incf	___aomod@counter^0,f,c
  3211  003294                     l2693:
  3212  003294  AE10               	btfss	(___aomod@divisor+7)^0,7,c
  3213  003296  EF4F  F019         	goto	u1281
  3214  00329A  EF51  F019         	goto	u1280
  3215  00329E                     u1281:
  3216  00329E  EF40  F019         	goto	l2691
  3217  0032A2                     u1280:
  3218  0032A2                     l2695:
  3219  0032A2  5009               	movf	___aomod@divisor^0,w,c
  3220  0032A4  5C01               	subwf	___aomod@dividend^0,w,c
  3221  0032A6  500A               	movf	(___aomod@divisor+1)^0,w,c
  3222  0032A8  5802               	subwfb	(___aomod@dividend+1)^0,w,c
  3223  0032AA  500B               	movf	(___aomod@divisor+2)^0,w,c
  3224  0032AC  5803               	subwfb	(___aomod@dividend+2)^0,w,c
  3225  0032AE  500C               	movf	(___aomod@divisor+3)^0,w,c
  3226  0032B0  5804               	subwfb	(___aomod@dividend+3)^0,w,c
  3227  0032B2  500D               	movf	(___aomod@divisor+4)^0,w,c
  3228  0032B4  5805               	subwfb	(___aomod@dividend+4)^0,w,c
  3229  0032B6  500E               	movf	(___aomod@divisor+5)^0,w,c
  3230  0032B8  5806               	subwfb	(___aomod@dividend+5)^0,w,c
  3231  0032BA  500F               	movf	(___aomod@divisor+6)^0,w,c
  3232  0032BC  5807               	subwfb	(___aomod@dividend+6)^0,w,c
  3233  0032BE  5010               	movf	(___aomod@divisor+7)^0,w,c
  3234  0032C0  5808               	subwfb	(___aomod@dividend+7)^0,w,c
  3235  0032C2  A0D8               	btfss	status,0,c
  3236  0032C4  EF66  F019         	goto	u1291
  3237  0032C8  EF68  F019         	goto	u1290
  3238  0032CC                     u1291:
  3239  0032CC  EF78  F019         	goto	l2699
  3240  0032D0                     u1290:
  3241  0032D0  5009               	movf	___aomod@divisor^0,w,c
  3242  0032D2  5E01               	subwf	___aomod@dividend^0,f,c
  3243  0032D4  500A               	movf	(___aomod@divisor+1)^0,w,c
  3244  0032D6  5A02               	subwfb	(___aomod@dividend+1)^0,f,c
  3245  0032D8  500B               	movf	(___aomod@divisor+2)^0,w,c
  3246  0032DA  5A03               	subwfb	(___aomod@dividend+2)^0,f,c
  3247  0032DC  500C               	movf	(___aomod@divisor+3)^0,w,c
  3248  0032DE  5A04               	subwfb	(___aomod@dividend+3)^0,f,c
  3249  0032E0  500D               	movf	(___aomod@divisor+4)^0,w,c
  3250  0032E2  5A05               	subwfb	(___aomod@dividend+4)^0,f,c
  3251  0032E4  500E               	movf	(___aomod@divisor+5)^0,w,c
  3252  0032E6  5A06               	subwfb	(___aomod@dividend+5)^0,f,c
  3253  0032E8  500F               	movf	(___aomod@divisor+6)^0,w,c
  3254  0032EA  5A07               	subwfb	(___aomod@dividend+6)^0,f,c
  3255  0032EC  5010               	movf	(___aomod@divisor+7)^0,w,c
  3256  0032EE  5A08               	subwfb	(___aomod@dividend+7)^0,f,c
  3257  0032F0                     l2699:
  3258  0032F0  90D8               	bcf	status,0,c
  3259  0032F2  3210               	rrcf	(___aomod@divisor+7)^0,f,c
  3260  0032F4  320F               	rrcf	(___aomod@divisor+6)^0,f,c
  3261  0032F6  320E               	rrcf	(___aomod@divisor+5)^0,f,c
  3262  0032F8  320D               	rrcf	(___aomod@divisor+4)^0,f,c
  3263  0032FA  320C               	rrcf	(___aomod@divisor+3)^0,f,c
  3264  0032FC  320B               	rrcf	(___aomod@divisor+2)^0,f,c
  3265  0032FE  320A               	rrcf	(___aomod@divisor+1)^0,f,c
  3266  003300  3209               	rrcf	___aomod@divisor^0,f,c
  3267  003302  2E11               	decfsz	___aomod@counter^0,f,c
  3268  003304  EF51  F019         	goto	l2695
  3269  003308                     l2703:
  3270  003308  5012               	movf	___aomod@sign^0,w,c
  3271  00330A  B4D8               	btfsc	status,2,c
  3272  00330C  EF8A  F019         	goto	u1301
  3273  003310  EF8C  F019         	goto	u1300
  3274  003314                     u1301:
  3275  003314  EF9C  F019         	goto	l2707
  3276  003318                     u1300:
  3277  003318  1E08               	comf	(___aomod@dividend+7)^0,f,c
  3278  00331A  1E07               	comf	(___aomod@dividend+6)^0,f,c
  3279  00331C  1E06               	comf	(___aomod@dividend+5)^0,f,c
  3280  00331E  1E05               	comf	(___aomod@dividend+4)^0,f,c
  3281  003320  1E04               	comf	(___aomod@dividend+3)^0,f,c
  3282  003322  1E03               	comf	(___aomod@dividend+2)^0,f,c
  3283  003324  1E02               	comf	(___aomod@dividend+1)^0,f,c
  3284  003326  6C01               	negf	___aomod@dividend^0,c
  3285  003328  0E00               	movlw	0
  3286  00332A  2202               	addwfc	(___aomod@dividend+1)^0,f,c
  3287  00332C  2203               	addwfc	(___aomod@dividend+2)^0,f,c
  3288  00332E  2204               	addwfc	(___aomod@dividend+3)^0,f,c
  3289  003330  2205               	addwfc	(___aomod@dividend+4)^0,f,c
  3290  003332  2206               	addwfc	(___aomod@dividend+5)^0,f,c
  3291  003334  2207               	addwfc	(___aomod@dividend+6)^0,f,c
  3292  003336  2208               	addwfc	(___aomod@dividend+7)^0,f,c
  3293  003338                     l2707:
  3294  003338  C001  F001         	movff	___aomod@dividend,?___aomod
  3295  00333C  C002  F002         	movff	___aomod@dividend+1,?___aomod+1
  3296  003340  C003  F003         	movff	___aomod@dividend+2,?___aomod+2
  3297  003344  C004  F004         	movff	___aomod@dividend+3,?___aomod+3
  3298  003348  C005  F005         	movff	___aomod@dividend+4,?___aomod+4
  3299  00334C  C006  F006         	movff	___aomod@dividend+5,?___aomod+5
  3300  003350  C007  F007         	movff	___aomod@dividend+6,?___aomod+6
  3301  003354  C008  F008         	movff	___aomod@dividend+7,?___aomod+7
  3302  003358  0012               	return		;funcret
  3303  00335A                     __end_of___aomod:
  3304                           	callstack 0
  3305                           
  3306 ;; *************** function ___aodiv *****************
  3307 ;; Defined at:
  3308 ;;		line 9 in file "C:\Program Files\Microchip\xc8\v2.32\pic\sources\c99\common\aodiv.c"
  3309 ;; Parameters:    Size  Location     Type
  3310 ;;  dividend        8    0[COMRAM] long long 
  3311 ;;  divisor         8    8[COMRAM] long long 
  3312 ;; Auto vars:     Size  Location     Type
  3313 ;;  quotient        8   18[COMRAM] long long 
  3314 ;;  sign            1   17[COMRAM] unsigned char 
  3315 ;;  counter         1   16[COMRAM] unsigned char 
  3316 ;; Return value:  Size  Location     Type
  3317 ;;                  8    0[COMRAM] long long 
  3318 ;; Registers used:
  3319 ;;		wreg, fsr2l, fsr2h, status,2, status,0
  3320 ;; Tracked objects:
  3321 ;;		On entry : 0/0
  3322 ;;		On exit  : 0/0
  3323 ;;		Unchanged: 0/0
  3324 ;; Data sizes:     COMRAM   BANK0   BANK1   BANK2   BANK3   BANK4   BANK5   BANK6   BANK7   BANK8   BANK9  BANK10  BANK1
      +1  BANK12  BANK13  BANK14  BANK15  BANK16  BANK17  BANK18  BANK19  BANK20  BANK21  BANK22  BANK23  BANK24  BANK25  BANK2
      +6  BANK27  BANK28  BANK29  BANK30  BANK31
  3325 ;;      Params:        16       0       0       0       0       0       0       0       0       0       0       0       
      +0       0       0       0       0       0       0       0       0       0       0       0       0       0       0       
      +0       0       0       0       0       0
  3326 ;;      Locals:        10       0       0       0       0       0       0       0       0       0       0       0       
      +0       0       0       0       0       0       0       0       0       0       0       0       0       0       0       
      +0       0       0       0       0       0
  3327 ;;      Temps:          0       0       0       0       0       0       0       0       0       0       0       0       
      +0       0       0       0       0       0       0       0       0       0       0       0       0       0       0       
      +0       0       0       0       0       0
  3328 ;;      Totals:        26       0       0       0       0       0       0       0       0       0       0       0       
      +0       0       0       0       0       0       0       0       0       0       0       0       0       0       0       
      +0       0       0       0       0       0
  3329 ;;Total ram usage:       26 bytes
  3330 ;; Hardware stack levels used: 1
  3331 ;; Hardware stack levels required when called: 4
  3332 ;; This function calls:
  3333 ;;		Nothing
  3334 ;; This function is called by:
  3335 ;;		_dtoa
  3336 ;; This function uses a non-reentrant model
  3337 ;;
  3338                           
  3339                           	psect	text13
  3340  00306E                     __ptext13:
  3341                           	callstack 0
  3342  00306E                     ___aodiv:
  3343                           	callstack 22
  3344  00306E  0E00               	movlw	0
  3345  003070  6E12               	movwf	___aodiv@sign^0,c
  3346  003072  BE10               	btfsc	(___aodiv@divisor+7)^0,7,c
  3347  003074  EF40  F018         	goto	u1180
  3348  003078  EF3E  F018         	goto	u1181
  3349  00307C                     u1181:
  3350  00307C  EF52  F018         	goto	l2639
  3351  003080                     u1180:
  3352  003080  1E10               	comf	(___aodiv@divisor+7)^0,f,c
  3353  003082  1E0F               	comf	(___aodiv@divisor+6)^0,f,c
  3354  003084  1E0E               	comf	(___aodiv@divisor+5)^0,f,c
  3355  003086  1E0D               	comf	(___aodiv@divisor+4)^0,f,c
  3356  003088  1E0C               	comf	(___aodiv@divisor+3)^0,f,c
  3357  00308A  1E0B               	comf	(___aodiv@divisor+2)^0,f,c
  3358  00308C  1E0A               	comf	(___aodiv@divisor+1)^0,f,c
  3359  00308E  6C09               	negf	___aodiv@divisor^0,c
  3360  003090  0E00               	movlw	0
  3361  003092  220A               	addwfc	(___aodiv@divisor+1)^0,f,c
  3362  003094  220B               	addwfc	(___aodiv@divisor+2)^0,f,c
  3363  003096  220C               	addwfc	(___aodiv@divisor+3)^0,f,c
  3364  003098  220D               	addwfc	(___aodiv@divisor+4)^0,f,c
  3365  00309A  220E               	addwfc	(___aodiv@divisor+5)^0,f,c
  3366  00309C  220F               	addwfc	(___aodiv@divisor+6)^0,f,c
  3367  00309E  2210               	addwfc	(___aodiv@divisor+7)^0,f,c
  3368  0030A0  0E01               	movlw	1
  3369  0030A2  6E12               	movwf	___aodiv@sign^0,c
  3370  0030A4                     l2639:
  3371  0030A4  BE08               	btfsc	(___aodiv@dividend+7)^0,7,c
  3372  0030A6  EF59  F018         	goto	u1190
  3373  0030AA  EF57  F018         	goto	u1191
  3374  0030AE                     u1191:
  3375  0030AE  EF6B  F018         	goto	l2645
  3376  0030B2                     u1190:
  3377  0030B2  1E08               	comf	(___aodiv@dividend+7)^0,f,c
  3378  0030B4  1E07               	comf	(___aodiv@dividend+6)^0,f,c
  3379  0030B6  1E06               	comf	(___aodiv@dividend+5)^0,f,c
  3380  0030B8  1E05               	comf	(___aodiv@dividend+4)^0,f,c
  3381  0030BA  1E04               	comf	(___aodiv@dividend+3)^0,f,c
  3382  0030BC  1E03               	comf	(___aodiv@dividend+2)^0,f,c
  3383  0030BE  1E02               	comf	(___aodiv@dividend+1)^0,f,c
  3384  0030C0  6C01               	negf	___aodiv@dividend^0,c
  3385  0030C2  0E00               	movlw	0
  3386  0030C4  2202               	addwfc	(___aodiv@dividend+1)^0,f,c
  3387  0030C6  2203               	addwfc	(___aodiv@dividend+2)^0,f,c
  3388  0030C8  2204               	addwfc	(___aodiv@dividend+3)^0,f,c
  3389  0030CA  2205               	addwfc	(___aodiv@dividend+4)^0,f,c
  3390  0030CC  2206               	addwfc	(___aodiv@dividend+5)^0,f,c
  3391  0030CE  2207               	addwfc	(___aodiv@dividend+6)^0,f,c
  3392  0030D0  2208               	addwfc	(___aodiv@dividend+7)^0,f,c
  3393  0030D2  0E01               	movlw	1
  3394  0030D4  1A12               	xorwf	___aodiv@sign^0,f,c
  3395  0030D6                     l2645:
  3396  0030D6  EE20  F013         	lfsr	2,___aodiv@quotient
  3397  0030DA  0E07               	movlw	7
  3398  0030DC                     u1201:
  3399  0030DC  6ADE               	clrf	postinc2,c
  3400  0030DE  06E8               	decf	wreg,f,c
  3401  0030E0  E2FD               	bc	u1201
  3402  0030E2  5009               	movf	___aodiv@divisor^0,w,c
  3403  0030E4  100A               	iorwf	(___aodiv@divisor+1)^0,w,c
  3404  0030E6  100B               	iorwf	(___aodiv@divisor+2)^0,w,c
  3405  0030E8  100C               	iorwf	(___aodiv@divisor+3)^0,w,c
  3406  0030EA  100D               	iorwf	(___aodiv@divisor+4)^0,w,c
  3407  0030EC  100E               	iorwf	(___aodiv@divisor+5)^0,w,c
  3408  0030EE  100F               	iorwf	(___aodiv@divisor+6)^0,w,c
  3409  0030F0  1010               	iorwf	(___aodiv@divisor+7)^0,w,c
  3410  0030F2  B4D8               	btfsc	status,2,c
  3411  0030F4  EF7E  F018         	goto	u1211
  3412  0030F8  EF80  F018         	goto	u1210
  3413  0030FC                     u1211:
  3414  0030FC  EFD2  F018         	goto	l2667
  3415  003100                     u1210:
  3416  003100  0E01               	movlw	1
  3417  003102  6E11               	movwf	___aodiv@counter^0,c
  3418  003104  EF8E  F018         	goto	l2653
  3419  003108                     l2651:
  3420  003108  90D8               	bcf	status,0,c
  3421  00310A  3609               	rlcf	___aodiv@divisor^0,f,c
  3422  00310C  360A               	rlcf	(___aodiv@divisor+1)^0,f,c
  3423  00310E  360B               	rlcf	(___aodiv@divisor+2)^0,f,c
  3424  003110  360C               	rlcf	(___aodiv@divisor+3)^0,f,c
  3425  003112  360D               	rlcf	(___aodiv@divisor+4)^0,f,c
  3426  003114  360E               	rlcf	(___aodiv@divisor+5)^0,f,c
  3427  003116  360F               	rlcf	(___aodiv@divisor+6)^0,f,c
  3428  003118  3610               	rlcf	(___aodiv@divisor+7)^0,f,c
  3429  00311A  2A11               	incf	___aodiv@counter^0,f,c
  3430  00311C                     l2653:
  3431  00311C  AE10               	btfss	(___aodiv@divisor+7)^0,7,c
  3432  00311E  EF93  F018         	goto	u1221
  3433  003122  EF95  F018         	goto	u1220
  3434  003126                     u1221:
  3435  003126  EF84  F018         	goto	l2651
  3436  00312A                     u1220:
  3437  00312A                     l2655:
  3438  00312A  90D8               	bcf	status,0,c
  3439  00312C  3613               	rlcf	___aodiv@quotient^0,f,c
  3440  00312E  3614               	rlcf	(___aodiv@quotient+1)^0,f,c
  3441  003130  3615               	rlcf	(___aodiv@quotient+2)^0,f,c
  3442  003132  3616               	rlcf	(___aodiv@quotient+3)^0,f,c
  3443  003134  3617               	rlcf	(___aodiv@quotient+4)^0,f,c
  3444  003136  3618               	rlcf	(___aodiv@quotient+5)^0,f,c
  3445  003138  3619               	rlcf	(___aodiv@quotient+6)^0,f,c
  3446  00313A  361A               	rlcf	(___aodiv@quotient+7)^0,f,c
  3447  00313C  5009               	movf	___aodiv@divisor^0,w,c
  3448  00313E  5C01               	subwf	___aodiv@dividend^0,w,c
  3449  003140  500A               	movf	(___aodiv@divisor+1)^0,w,c
  3450  003142  5802               	subwfb	(___aodiv@dividend+1)^0,w,c
  3451  003144  500B               	movf	(___aodiv@divisor+2)^0,w,c
  3452  003146  5803               	subwfb	(___aodiv@dividend+2)^0,w,c
  3453  003148  500C               	movf	(___aodiv@divisor+3)^0,w,c
  3454  00314A  5804               	subwfb	(___aodiv@dividend+3)^0,w,c
  3455  00314C  500D               	movf	(___aodiv@divisor+4)^0,w,c
  3456  00314E  5805               	subwfb	(___aodiv@dividend+4)^0,w,c
  3457  003150  500E               	movf	(___aodiv@divisor+5)^0,w,c
  3458  003152  5806               	subwfb	(___aodiv@dividend+5)^0,w,c
  3459  003154  500F               	movf	(___aodiv@divisor+6)^0,w,c
  3460  003156  5807               	subwfb	(___aodiv@dividend+6)^0,w,c
  3461  003158  5010               	movf	(___aodiv@divisor+7)^0,w,c
  3462  00315A  5808               	subwfb	(___aodiv@dividend+7)^0,w,c
  3463  00315C  A0D8               	btfss	status,0,c
  3464  00315E  EFB3  F018         	goto	u1231
  3465  003162  EFB5  F018         	goto	u1230
  3466  003166                     u1231:
  3467  003166  EFC6  F018         	goto	l2663
  3468  00316A                     u1230:
  3469  00316A  5009               	movf	___aodiv@divisor^0,w,c
  3470  00316C  5E01               	subwf	___aodiv@dividend^0,f,c
  3471  00316E  500A               	movf	(___aodiv@divisor+1)^0,w,c
  3472  003170  5A02               	subwfb	(___aodiv@dividend+1)^0,f,c
  3473  003172  500B               	movf	(___aodiv@divisor+2)^0,w,c
  3474  003174  5A03               	subwfb	(___aodiv@dividend+2)^0,f,c
  3475  003176  500C               	movf	(___aodiv@divisor+3)^0,w,c
  3476  003178  5A04               	subwfb	(___aodiv@dividend+3)^0,f,c
  3477  00317A  500D               	movf	(___aodiv@divisor+4)^0,w,c
  3478  00317C  5A05               	subwfb	(___aodiv@dividend+4)^0,f,c
  3479  00317E  500E               	movf	(___aodiv@divisor+5)^0,w,c
  3480  003180  5A06               	subwfb	(___aodiv@dividend+5)^0,f,c
  3481  003182  500F               	movf	(___aodiv@divisor+6)^0,w,c
  3482  003184  5A07               	subwfb	(___aodiv@dividend+6)^0,f,c
  3483  003186  5010               	movf	(___aodiv@divisor+7)^0,w,c
  3484  003188  5A08               	subwfb	(___aodiv@dividend+7)^0,f,c
  3485  00318A  8013               	bsf	___aodiv@quotient^0,0,c
  3486  00318C                     l2663:
  3487  00318C  90D8               	bcf	status,0,c
  3488  00318E  3210               	rrcf	(___aodiv@divisor+7)^0,f,c
  3489  003190  320F               	rrcf	(___aodiv@divisor+6)^0,f,c
  3490  003192  320E               	rrcf	(___aodiv@divisor+5)^0,f,c
  3491  003194  320D               	rrcf	(___aodiv@divisor+4)^0,f,c
  3492  003196  320C               	rrcf	(___aodiv@divisor+3)^0,f,c
  3493  003198  320B               	rrcf	(___aodiv@divisor+2)^0,f,c
  3494  00319A  320A               	rrcf	(___aodiv@divisor+1)^0,f,c
  3495  00319C  3209               	rrcf	___aodiv@divisor^0,f,c
  3496  00319E  2E11               	decfsz	___aodiv@counter^0,f,c
  3497  0031A0  EF95  F018         	goto	l2655
  3498  0031A4                     l2667:
  3499  0031A4  5012               	movf	___aodiv@sign^0,w,c
  3500  0031A6  B4D8               	btfsc	status,2,c
  3501  0031A8  EFD8  F018         	goto	u1241
  3502  0031AC  EFDA  F018         	goto	u1240
  3503  0031B0                     u1241:
  3504  0031B0  EFEA  F018         	goto	l2671
  3505  0031B4                     u1240:
  3506  0031B4  1E1A               	comf	(___aodiv@quotient+7)^0,f,c
  3507  0031B6  1E19               	comf	(___aodiv@quotient+6)^0,f,c
  3508  0031B8  1E18               	comf	(___aodiv@quotient+5)^0,f,c
  3509  0031BA  1E17               	comf	(___aodiv@quotient+4)^0,f,c
  3510  0031BC  1E16               	comf	(___aodiv@quotient+3)^0,f,c
  3511  0031BE  1E15               	comf	(___aodiv@quotient+2)^0,f,c
  3512  0031C0  1E14               	comf	(___aodiv@quotient+1)^0,f,c
  3513  0031C2  6C13               	negf	___aodiv@quotient^0,c
  3514  0031C4  0E00               	movlw	0
  3515  0031C6  2214               	addwfc	(___aodiv@quotient+1)^0,f,c
  3516  0031C8  2215               	addwfc	(___aodiv@quotient+2)^0,f,c
  3517  0031CA  2216               	addwfc	(___aodiv@quotient+3)^0,f,c
  3518  0031CC  2217               	addwfc	(___aodiv@quotient+4)^0,f,c
  3519  0031CE  2218               	addwfc	(___aodiv@quotient+5)^0,f,c
  3520  0031D0  2219               	addwfc	(___aodiv@quotient+6)^0,f,c
  3521  0031D2  221A               	addwfc	(___aodiv@quotient+7)^0,f,c
  3522  0031D4                     l2671:
  3523  0031D4  C013  F001         	movff	___aodiv@quotient,?___aodiv
  3524  0031D8  C014  F002         	movff	___aodiv@quotient+1,?___aodiv+1
  3525  0031DC  C015  F003         	movff	___aodiv@quotient+2,?___aodiv+2
  3526  0031E0  C016  F004         	movff	___aodiv@quotient+3,?___aodiv+3
  3527  0031E4  C017  F005         	movff	___aodiv@quotient+4,?___aodiv+4
  3528  0031E8  C018  F006         	movff	___aodiv@quotient+5,?___aodiv+5
  3529  0031EC  C019  F007         	movff	___aodiv@quotient+6,?___aodiv+6
  3530  0031F0  C01A  F008         	movff	___aodiv@quotient+7,?___aodiv+7
  3531  0031F4  0012               	return		;funcret
  3532  0031F6                     __end_of___aodiv:
  3533                           	callstack 0
  3534                           
  3535 ;; *************** function ___xxtofl *****************
  3536 ;; Defined at:
  3537 ;;		line 10 in file "C:\Program Files\Microchip\xc8\v2.32\pic\sources\c99\common\xxtofl.c"
  3538 ;; Parameters:    Size  Location     Type
  3539 ;;  sign            1    wreg     unsigned char 
  3540 ;;  val             4    0[COMRAM] long 
  3541 ;; Auto vars:     Size  Location     Type
  3542 ;;  sign            1    8[COMRAM] unsigned char 
  3543 ;;  arg             4   10[COMRAM] unsigned long 
  3544 ;;  exp             1    9[COMRAM] unsigned char 
  3545 ;; Return value:  Size  Location     Type
  3546 ;;                  4    0[COMRAM] unsigned char 
  3547 ;; Registers used:
  3548 ;;		wreg, status,2, status,0
  3549 ;; Tracked objects:
  3550 ;;		On entry : 0/0
  3551 ;;		On exit  : 0/0
  3552 ;;		Unchanged: 0/0
  3553 ;; Data sizes:     COMRAM   BANK0   BANK1   BANK2   BANK3   BANK4   BANK5   BANK6   BANK7   BANK8   BANK9  BANK10  BANK1
      +1  BANK12  BANK13  BANK14  BANK15  BANK16  BANK17  BANK18  BANK19  BANK20  BANK21  BANK22  BANK23  BANK24  BANK25  BANK2
      +6  BANK27  BANK28  BANK29  BANK30  BANK31
  3554 ;;      Params:         4       0       0       0       0       0       0       0       0       0       0       0       
      +0       0       0       0       0       0       0       0       0       0       0       0       0       0       0       
      +0       0       0       0       0       0
  3555 ;;      Locals:         6       0       0       0       0       0       0       0       0       0       0       0       
      +0       0       0       0       0       0       0       0       0       0       0       0       0       0       0       
      +0       0       0       0       0       0
  3556 ;;      Temps:          4       0       0       0       0       0       0       0       0       0       0       0       
      +0       0       0       0       0       0       0       0       0       0       0       0       0       0       0       
      +0       0       0       0       0       0
  3557 ;;      Totals:        14       0       0       0       0       0       0       0       0       0       0       0       
      +0       0       0       0       0       0       0       0       0       0       0       0       0       0       0       
      +0       0       0       0       0       0
  3558 ;;Total ram usage:       14 bytes
  3559 ;; Hardware stack levels used: 1
  3560 ;; Hardware stack levels required when called: 4
  3561 ;; This function calls:
  3562 ;;		Nothing
  3563 ;; This function is called by:
  3564 ;;		_main
  3565 ;; This function uses a non-reentrant model
  3566 ;;
  3567                           
  3568                           	psect	text14
  3569  002EBA                     __ptext14:
  3570                           	callstack 0
  3571  002EBA                     ___xxtofl:
  3572                           	callstack 26
  3573                           
  3574                           ;incstack = 0
  3575                           ;___xxtofl@sign stored from wreg
  3576  002EBA  6E09               	movwf	___xxtofl@sign^0,c
  3577  002EBC  5009               	movf	___xxtofl@sign^0,w,c
  3578  002EBE  B4D8               	btfsc	status,2,c
  3579  002EC0  EF64  F017         	goto	u1921
  3580  002EC4  EF66  F017         	goto	u1920
  3581  002EC8                     u1921:
  3582  002EC8  EF88  F017         	goto	l1291
  3583  002ECC                     u1920:
  3584  002ECC  BE04               	btfsc	(___xxtofl@val+3)^0,7,c
  3585  002ECE  EF6D  F017         	goto	u1930
  3586  002ED2  EF6B  F017         	goto	u1931
  3587  002ED6                     u1931:
  3588  002ED6  EF88  F017         	goto	l1291
  3589  002EDA                     u1930:
  3590  002EDA  C001  F005         	movff	___xxtofl@val,??___xxtofl
  3591  002EDE  C002  F006         	movff	___xxtofl@val+1,??___xxtofl+1
  3592  002EE2  C003  F007         	movff	___xxtofl@val+2,??___xxtofl+2
  3593  002EE6  C004  F008         	movff	___xxtofl@val+3,??___xxtofl+3
  3594  002EEA  1E05               	comf	??___xxtofl^0,f,c
  3595  002EEC  1E06               	comf	(??___xxtofl+1)^0,f,c
  3596  002EEE  1E07               	comf	(??___xxtofl+2)^0,f,c
  3597  002EF0  1E08               	comf	(??___xxtofl+3)^0,f,c
  3598  002EF2  2A05               	incf	??___xxtofl^0,f,c
  3599  002EF4  0E00               	movlw	0
  3600  002EF6  2206               	addwfc	(??___xxtofl+1)^0,f,c
  3601  002EF8  2207               	addwfc	(??___xxtofl+2)^0,f,c
  3602  002EFA  2208               	addwfc	(??___xxtofl+3)^0,f,c
  3603  002EFC  C005  F00B         	movff	??___xxtofl,___xxtofl@arg
  3604  002F00  C006  F00C         	movff	??___xxtofl+1,___xxtofl@arg+1
  3605  002F04  C007  F00D         	movff	??___xxtofl+2,___xxtofl@arg+2
  3606  002F08  C008  F00E         	movff	??___xxtofl+3,___xxtofl@arg+3
  3607  002F0C  EF90  F017         	goto	l3163
  3608  002F10                     l1291:
  3609  002F10  C001  F00B         	movff	___xxtofl@val,___xxtofl@arg
  3610  002F14  C002  F00C         	movff	___xxtofl@val+1,___xxtofl@arg+1
  3611  002F18  C003  F00D         	movff	___xxtofl@val+2,___xxtofl@arg+2
  3612  002F1C  C004  F00E         	movff	___xxtofl@val+3,___xxtofl@arg+3
  3613  002F20                     l3163:
  3614  002F20  5001               	movf	___xxtofl@val^0,w,c
  3615  002F22  1002               	iorwf	(___xxtofl@val+1)^0,w,c
  3616  002F24  1003               	iorwf	(___xxtofl@val+2)^0,w,c
  3617  002F26  1004               	iorwf	(___xxtofl@val+3)^0,w,c
  3618  002F28  A4D8               	btfss	status,2,c
  3619  002F2A  EF99  F017         	goto	u1941
  3620  002F2E  EF9B  F017         	goto	u1940
  3621  002F32                     u1941:
  3622  002F32  EFA5  F017         	goto	l3169
  3623  002F36                     u1940:
  3624  002F36  0E00               	movlw	0
  3625  002F38  6E01               	movwf	?___xxtofl^0,c
  3626  002F3A  0E00               	movlw	0
  3627  002F3C  6E02               	movwf	(?___xxtofl+1)^0,c
  3628  002F3E  0E00               	movlw	0
  3629  002F40  6E03               	movwf	(?___xxtofl+2)^0,c
  3630  002F42  0E00               	movlw	0
  3631  002F44  6E04               	movwf	(?___xxtofl+3)^0,c
  3632  002F46  EF36  F018         	goto	l1294
  3633  002F4A                     l3169:
  3634  002F4A  0E96               	movlw	150
  3635  002F4C  6E0A               	movwf	___xxtofl@exp^0,c
  3636  002F4E  EFAF  F017         	goto	l3173
  3637  002F52                     l3171:
  3638  002F52  2A0A               	incf	___xxtofl@exp^0,f,c
  3639  002F54  90D8               	bcf	status,0,c
  3640  002F56  320E               	rrcf	(___xxtofl@arg+3)^0,f,c
  3641  002F58  320D               	rrcf	(___xxtofl@arg+2)^0,f,c
  3642  002F5A  320C               	rrcf	(___xxtofl@arg+1)^0,f,c
  3643  002F5C  320B               	rrcf	___xxtofl@arg^0,f,c
  3644  002F5E                     l3173:
  3645  002F5E  0E00               	movlw	0
  3646  002F60  140B               	andwf	___xxtofl@arg^0,w,c
  3647  002F62  6E05               	movwf	??___xxtofl^0,c
  3648  002F64  0E00               	movlw	0
  3649  002F66  140C               	andwf	(___xxtofl@arg+1)^0,w,c
  3650  002F68  6E06               	movwf	(??___xxtofl+1)^0,c
  3651  002F6A  0E00               	movlw	0
  3652  002F6C  140D               	andwf	(___xxtofl@arg+2)^0,w,c
  3653  002F6E  6E07               	movwf	(??___xxtofl+2)^0,c
  3654  002F70  0EFE               	movlw	254
  3655  002F72  140E               	andwf	(___xxtofl@arg+3)^0,w,c
  3656  002F74  6E08               	movwf	(??___xxtofl+3)^0,c
  3657  002F76  5005               	movf	??___xxtofl^0,w,c
  3658  002F78  1006               	iorwf	(??___xxtofl+1)^0,w,c
  3659  002F7A  1007               	iorwf	(??___xxtofl+2)^0,w,c
  3660  002F7C  1008               	iorwf	(??___xxtofl+3)^0,w,c
  3661  002F7E  A4D8               	btfss	status,2,c
  3662  002F80  EFC4  F017         	goto	u1951
  3663  002F84  EFC6  F017         	goto	u1950
  3664  002F88                     u1951:
  3665  002F88  EFA9  F017         	goto	l3171
  3666  002F8C                     u1950:
  3667  002F8C  EFD4  F017         	goto	l1298
  3668  002F90                     l3175:
  3669  002F90  2A0A               	incf	___xxtofl@exp^0,f,c
  3670  002F92  0E01               	movlw	1
  3671  002F94  260B               	addwf	___xxtofl@arg^0,f,c
  3672  002F96  0E00               	movlw	0
  3673  002F98  220C               	addwfc	(___xxtofl@arg+1)^0,f,c
  3674  002F9A  220D               	addwfc	(___xxtofl@arg+2)^0,f,c
  3675  002F9C  220E               	addwfc	(___xxtofl@arg+3)^0,f,c
  3676  002F9E  90D8               	bcf	status,0,c
  3677  002FA0  320E               	rrcf	(___xxtofl@arg+3)^0,f,c
  3678  002FA2  320D               	rrcf	(___xxtofl@arg+2)^0,f,c
  3679  002FA4  320C               	rrcf	(___xxtofl@arg+1)^0,f,c
  3680  002FA6  320B               	rrcf	___xxtofl@arg^0,f,c
  3681  002FA8                     l1298:
  3682  002FA8  0E00               	movlw	0
  3683  002FAA  140B               	andwf	___xxtofl@arg^0,w,c
  3684  002FAC  6E05               	movwf	??___xxtofl^0,c
  3685  002FAE  0E00               	movlw	0
  3686  002FB0  140C               	andwf	(___xxtofl@arg+1)^0,w,c
  3687  002FB2  6E06               	movwf	(??___xxtofl+1)^0,c
  3688  002FB4  0E00               	movlw	0
  3689  002FB6  140D               	andwf	(___xxtofl@arg+2)^0,w,c
  3690  002FB8  6E07               	movwf	(??___xxtofl+2)^0,c
  3691  002FBA  0EFF               	movlw	255
  3692  002FBC  140E               	andwf	(___xxtofl@arg+3)^0,w,c
  3693  002FBE  6E08               	movwf	(??___xxtofl+3)^0,c
  3694  002FC0  5005               	movf	??___xxtofl^0,w,c
  3695  002FC2  1006               	iorwf	(??___xxtofl+1)^0,w,c
  3696  002FC4  1007               	iorwf	(??___xxtofl+2)^0,w,c
  3697  002FC6  1008               	iorwf	(??___xxtofl+3)^0,w,c
  3698  002FC8  A4D8               	btfss	status,2,c
  3699  002FCA  EFE9  F017         	goto	u1961
  3700  002FCE  EFEB  F017         	goto	u1960
  3701  002FD2                     u1961:
  3702  002FD2  EFC8  F017         	goto	l3175
  3703  002FD6                     u1960:
  3704  002FD6  EFF3  F017         	goto	l3183
  3705  002FDA                     l3181:
  3706  002FDA  060A               	decf	___xxtofl@exp^0,f,c
  3707  002FDC  90D8               	bcf	status,0,c
  3708  002FDE  360B               	rlcf	___xxtofl@arg^0,f,c
  3709  002FE0  360C               	rlcf	(___xxtofl@arg+1)^0,f,c
  3710  002FE2  360D               	rlcf	(___xxtofl@arg+2)^0,f,c
  3711  002FE4  360E               	rlcf	(___xxtofl@arg+3)^0,f,c
  3712  002FE6                     l3183:
  3713  002FE6  BE0D               	btfsc	(___xxtofl@arg+2)^0,7,c
  3714  002FE8  EFF8  F017         	goto	u1971
  3715  002FEC  EFFA  F017         	goto	u1970
  3716  002FF0                     u1971:
  3717  002FF0  EF02  F018         	goto	l1305
  3718  002FF4                     u1970:
  3719  002FF4  0E02               	movlw	2
  3720  002FF6  600A               	cpfslt	___xxtofl@exp^0,c
  3721  002FF8  EF00  F018         	goto	u1981
  3722  002FFC  EF02  F018         	goto	u1980
  3723  003000                     u1981:
  3724  003000  EFED  F017         	goto	l3181
  3725  003004                     u1980:
  3726  003004                     l1305:
  3727  003004  B00A               	btfsc	___xxtofl@exp^0,0,c
  3728  003006  EF07  F018         	goto	u1991
  3729  00300A  EF09  F018         	goto	u1990
  3730  00300E                     u1991:
  3731  00300E  EF0A  F018         	goto	l3189
  3732  003012                     u1990:
  3733  003012  9E0D               	bcf	(___xxtofl@arg+2)^0,7,c
  3734  003014                     l3189:
  3735  003014  90D8               	bcf	status,0,c
  3736  003016  320A               	rrcf	___xxtofl@exp^0,f,c
  3737  003018  C00A  F005         	movff	___xxtofl@exp,??___xxtofl
  3738  00301C  6A06               	clrf	(??___xxtofl+1)^0,c
  3739  00301E  6A07               	clrf	(??___xxtofl+2)^0,c
  3740  003020  6A08               	clrf	(??___xxtofl+3)^0,c
  3741  003022  C005  F008         	movff	??___xxtofl,??___xxtofl+3
  3742  003026  6A07               	clrf	(??___xxtofl+2)^0,c
  3743  003028  6A06               	clrf	(??___xxtofl+1)^0,c
  3744  00302A  6A05               	clrf	??___xxtofl^0,c
  3745  00302C  5005               	movf	??___xxtofl^0,w,c
  3746  00302E  120B               	iorwf	___xxtofl@arg^0,f,c
  3747  003030  5006               	movf	(??___xxtofl+1)^0,w,c
  3748  003032  120C               	iorwf	(___xxtofl@arg+1)^0,f,c
  3749  003034  5007               	movf	(??___xxtofl+2)^0,w,c
  3750  003036  120D               	iorwf	(___xxtofl@arg+2)^0,f,c
  3751  003038  5008               	movf	(??___xxtofl+3)^0,w,c
  3752  00303A  120E               	iorwf	(___xxtofl@arg+3)^0,f,c
  3753  00303C  5009               	movf	___xxtofl@sign^0,w,c
  3754  00303E  B4D8               	btfsc	status,2,c
  3755  003040  EF24  F018         	goto	u2001
  3756  003044  EF26  F018         	goto	u2000
  3757  003048                     u2001:
  3758  003048  EF2E  F018         	goto	l3199
  3759  00304C                     u2000:
  3760  00304C  BE04               	btfsc	(___xxtofl@val+3)^0,7,c
  3761  00304E  EF2D  F018         	goto	u2010
  3762  003052  EF2B  F018         	goto	u2011
  3763  003056                     u2011:
  3764  003056  EF2E  F018         	goto	l3199
  3765  00305A                     u2010:
  3766  00305A  8E0E               	bsf	(___xxtofl@arg+3)^0,7,c
  3767  00305C                     l3199:
  3768  00305C  C00B  F001         	movff	___xxtofl@arg,?___xxtofl
  3769  003060  C00C  F002         	movff	___xxtofl@arg+1,?___xxtofl+1
  3770  003064  C00D  F003         	movff	___xxtofl@arg+2,?___xxtofl+2
  3771  003068  C00E  F004         	movff	___xxtofl@arg+3,?___xxtofl+3
  3772  00306C                     l1294:
  3773  00306C  0012               	return		;funcret
  3774  00306E                     __end_of___xxtofl:
  3775                           	callstack 0
  3776                           
  3777 ;; *************** function ___fltol *****************
  3778 ;; Defined at:
  3779 ;;		line 43 in file "C:\Program Files\Microchip\xc8\v2.32\pic\sources\c99\common\fltol.c"
  3780 ;; Parameters:    Size  Location     Type
  3781 ;;  f1              4   39[COMRAM] unsigned char 
  3782 ;; Auto vars:     Size  Location     Type
  3783 ;;  exp1            1   48[COMRAM] unsigned char 
  3784 ;;  sign1           1   47[COMRAM] unsigned char 
  3785 ;; Return value:  Size  Location     Type
  3786 ;;                  4   39[COMRAM] long 
  3787 ;; Registers used:
  3788 ;;		wreg, status,2, status,0
  3789 ;; Tracked objects:
  3790 ;;		On entry : 0/0
  3791 ;;		On exit  : 0/0
  3792 ;;		Unchanged: 0/0
  3793 ;; Data sizes:     COMRAM   BANK0   BANK1   BANK2   BANK3   BANK4   BANK5   BANK6   BANK7   BANK8   BANK9  BANK10  BANK1
      +1  BANK12  BANK13  BANK14  BANK15  BANK16  BANK17  BANK18  BANK19  BANK20  BANK21  BANK22  BANK23  BANK24  BANK25  BANK2
      +6  BANK27  BANK28  BANK29  BANK30  BANK31
  3794 ;;      Params:         4       0       0       0       0       0       0       0       0       0       0       0       
      +0       0       0       0       0       0       0       0       0       0       0       0       0       0       0       
      +0       0       0       0       0       0
  3795 ;;      Locals:         2       0       0       0       0       0       0       0       0       0       0       0       
      +0       0       0       0       0       0       0       0       0       0       0       0       0       0       0       
      +0       0       0       0       0       0
  3796 ;;      Temps:          4       0       0       0       0       0       0       0       0       0       0       0       
      +0       0       0       0       0       0       0       0       0       0       0       0       0       0       0       
      +0       0       0       0       0       0
  3797 ;;      Totals:        10       0       0       0       0       0       0       0       0       0       0       0       
      +0       0       0       0       0       0       0       0       0       0       0       0       0       0       0       
      +0       0       0       0       0       0
  3798 ;;Total ram usage:       10 bytes
  3799 ;; Hardware stack levels used: 1
  3800 ;; Hardware stack levels required when called: 4
  3801 ;; This function calls:
  3802 ;;		Nothing
  3803 ;; This function is called by:
  3804 ;;		_main
  3805 ;; This function uses a non-reentrant model
  3806 ;;
  3807                           
  3808                           	psect	text15
  3809  00335A                     __ptext15:
  3810                           	callstack 0
  3811  00335A                     ___fltol:
  3812                           	callstack 26
  3813  00335A  342A               	rlcf	(___fltol@f1+2)^0,w,c
  3814  00335C  342B               	rlcf	(___fltol@f1+3)^0,w,c
  3815  00335E  6E31               	movwf	___fltol@exp1^0,c
  3816  003360  5031               	movf	___fltol@exp1^0,w,c
  3817  003362  A4D8               	btfss	status,2,c
  3818  003364  EFB6  F019         	goto	u1851
  3819  003368  EFB8  F019         	goto	u1850
  3820  00336C                     u1851:
  3821  00336C  EFC2  F019         	goto	l3119
  3822  003370                     u1850:
  3823  003370                     l3115:
  3824  003370  0E00               	movlw	0
  3825  003372  6E28               	movwf	?___fltol^0,c
  3826  003374  0E00               	movlw	0
  3827  003376  6E29               	movwf	(?___fltol+1)^0,c
  3828  003378  0E00               	movlw	0
  3829  00337A  6E2A               	movwf	(?___fltol+2)^0,c
  3830  00337C  0E00               	movlw	0
  3831  00337E  6E2B               	movwf	(?___fltol+3)^0,c
  3832  003380  EF2F  F01A         	goto	l933
  3833  003384                     l3119:
  3834  003384  C028  F02C         	movff	___fltol@f1,??___fltol
  3835  003388  C029  F02D         	movff	___fltol@f1+1,??___fltol+1
  3836  00338C  C02A  F02E         	movff	___fltol@f1+2,??___fltol+2
  3837  003390  C02B  F02F         	movff	___fltol@f1+3,??___fltol+3
  3838  003394  0E20               	movlw	32
  3839  003396  EFD2  F019         	goto	u1860
  3840  00339A                     u1865:
  3841  00339A  90D8               	bcf	status,0,c
  3842  00339C  322F               	rrcf	(??___fltol+3)^0,f,c
  3843  00339E  322E               	rrcf	(??___fltol+2)^0,f,c
  3844  0033A0  322D               	rrcf	(??___fltol+1)^0,f,c
  3845  0033A2  322C               	rrcf	??___fltol^0,f,c
  3846  0033A4                     u1860:
  3847  0033A4  2EE8               	decfsz	wreg,f,c
  3848  0033A6  EFCD  F019         	goto	u1865
  3849  0033AA  502C               	movf	??___fltol^0,w,c
  3850  0033AC  6E30               	movwf	___fltol@sign1^0,c
  3851  0033AE  8E2A               	bsf	(___fltol@f1+2)^0,7,c
  3852  0033B0  0EFF               	movlw	255
  3853  0033B2  1628               	andwf	___fltol@f1^0,f,c
  3854  0033B4  0EFF               	movlw	255
  3855  0033B6  1629               	andwf	(___fltol@f1+1)^0,f,c
  3856  0033B8  0EFF               	movlw	255
  3857  0033BA  162A               	andwf	(___fltol@f1+2)^0,f,c
  3858  0033BC  0E00               	movlw	0
  3859  0033BE  162B               	andwf	(___fltol@f1+3)^0,f,c
  3860  0033C0  0E96               	movlw	150
  3861  0033C2  5E31               	subwf	___fltol@exp1^0,f,c
  3862  0033C4  BE31               	btfsc	___fltol@exp1^0,7,c
  3863  0033C6  EFE9  F019         	goto	u1870
  3864  0033CA  EFE7  F019         	goto	u1871
  3865  0033CE                     u1871:
  3866  0033CE  EFFF  F019         	goto	l3139
  3867  0033D2                     u1870:
  3868  0033D2  5031               	movf	___fltol@exp1^0,w,c
  3869  0033D4  0A80               	xorlw	128
  3870  0033D6  0F97               	addlw	151
  3871  0033D8  B0D8               	btfsc	status,0,c
  3872  0033DA  EFF1  F019         	goto	u1881
  3873  0033DE  EFF3  F019         	goto	u1880
  3874  0033E2                     u1881:
  3875  0033E2  EFF5  F019         	goto	l3135
  3876  0033E6                     u1880:
  3877  0033E6  EFB8  F019         	goto	l3115
  3878  0033EA                     l3135:
  3879  0033EA  90D8               	bcf	status,0,c
  3880  0033EC  322B               	rrcf	(___fltol@f1+3)^0,f,c
  3881  0033EE  322A               	rrcf	(___fltol@f1+2)^0,f,c
  3882  0033F0  3229               	rrcf	(___fltol@f1+1)^0,f,c
  3883  0033F2  3228               	rrcf	___fltol@f1^0,f,c
  3884  0033F4  3E31               	incfsz	___fltol@exp1^0,f,c
  3885  0033F6  EFF5  F019         	goto	l3135
  3886  0033FA  EF17  F01A         	goto	l3149
  3887  0033FE                     l3139:
  3888  0033FE  0E1F               	movlw	31
  3889  003400  6431               	cpfsgt	___fltol@exp1^0,c
  3890  003402  EF05  F01A         	goto	u1891
  3891  003406  EF07  F01A         	goto	u1890
  3892  00340A                     u1891:
  3893  00340A  EF0F  F01A         	goto	l3147
  3894  00340E                     u1890:
  3895  00340E  EFB8  F019         	goto	l3115
  3896  003412                     l3145:
  3897  003412  90D8               	bcf	status,0,c
  3898  003414  3628               	rlcf	___fltol@f1^0,f,c
  3899  003416  3629               	rlcf	(___fltol@f1+1)^0,f,c
  3900  003418  362A               	rlcf	(___fltol@f1+2)^0,f,c
  3901  00341A  362B               	rlcf	(___fltol@f1+3)^0,f,c
  3902  00341C  0631               	decf	___fltol@exp1^0,f,c
  3903  00341E                     l3147:
  3904  00341E  5031               	movf	___fltol@exp1^0,w,c
  3905  003420  A4D8               	btfss	status,2,c
  3906  003422  EF15  F01A         	goto	u1901
  3907  003426  EF17  F01A         	goto	u1900
  3908  00342A                     u1901:
  3909  00342A  EF09  F01A         	goto	l3145
  3910  00342E                     u1900:
  3911  00342E                     l3149:
  3912  00342E  5030               	movf	___fltol@sign1^0,w,c
  3913  003430  B4D8               	btfsc	status,2,c
  3914  003432  EF1D  F01A         	goto	u1911
  3915  003436  EF1F  F01A         	goto	u1910
  3916  00343A                     u1911:
  3917  00343A  EF27  F01A         	goto	l3153
  3918  00343E                     u1910:
  3919  00343E  1E2B               	comf	(___fltol@f1+3)^0,f,c
  3920  003440  1E2A               	comf	(___fltol@f1+2)^0,f,c
  3921  003442  1E29               	comf	(___fltol@f1+1)^0,f,c
  3922  003444  6C28               	negf	___fltol@f1^0,c
  3923  003446  0E00               	movlw	0
  3924  003448  2229               	addwfc	(___fltol@f1+1)^0,f,c
  3925  00344A  222A               	addwfc	(___fltol@f1+2)^0,f,c
  3926  00344C  222B               	addwfc	(___fltol@f1+3)^0,f,c
  3927  00344E                     l3153:
  3928  00344E  C028  F028         	movff	___fltol@f1,?___fltol
  3929  003452  C029  F029         	movff	___fltol@f1+1,?___fltol+1
  3930  003456  C02A  F02A         	movff	___fltol@f1+2,?___fltol+2
  3931  00345A  C02B  F02B         	movff	___fltol@f1+3,?___fltol+3
  3932  00345E                     l933:
  3933  00345E  0012               	return		;funcret
  3934  003460                     __end_of___fltol:
  3935                           	callstack 0
  3936                           
  3937 ;; *************** function ___flmul *****************
  3938 ;; Defined at:
  3939 ;;		line 8 in file "C:\Program Files\Microchip\xc8\v2.32\pic\sources\c99\common\sprcmul.c"
  3940 ;; Parameters:    Size  Location     Type
  3941 ;;  b               4   14[COMRAM] long 
  3942 ;;  a               4   18[COMRAM] long 
  3943 ;; Auto vars:     Size  Location     Type
  3944 ;;  prod            4   33[COMRAM] struct .
  3945 ;;  grs             4   27[COMRAM] unsigned long 
  3946 ;;  temp            2   37[COMRAM] struct .
  3947 ;;  bexp            1   32[COMRAM] unsigned char 
  3948 ;;  aexp            1   31[COMRAM] unsigned char 
  3949 ;;  sign            1   26[COMRAM] unsigned char 
  3950 ;; Return value:  Size  Location     Type
  3951 ;;                  4   14[COMRAM] unsigned char 
  3952 ;; Registers used:
  3953 ;;		wreg, status,2, status,0, prodl, prodh
  3954 ;; Tracked objects:
  3955 ;;		On entry : 0/0
  3956 ;;		On exit  : 0/0
  3957 ;;		Unchanged: 0/0
  3958 ;; Data sizes:     COMRAM   BANK0   BANK1   BANK2   BANK3   BANK4   BANK5   BANK6   BANK7   BANK8   BANK9  BANK10  BANK1
      +1  BANK12  BANK13  BANK14  BANK15  BANK16  BANK17  BANK18  BANK19  BANK20  BANK21  BANK22  BANK23  BANK24  BANK25  BANK2
      +6  BANK27  BANK28  BANK29  BANK30  BANK31
  3959 ;;      Params:         8       0       0       0       0       0       0       0       0       0       0       0       
      +0       0       0       0       0       0       0       0       0       0       0       0       0       0       0       
      +0       0       0       0       0       0
  3960 ;;      Locals:        13       0       0       0       0       0       0       0       0       0       0       0       
      +0       0       0       0       0       0       0       0       0       0       0       0       0       0       0       
      +0       0       0       0       0       0
  3961 ;;      Temps:          4       0       0       0       0       0       0       0       0       0       0       0       
      +0       0       0       0       0       0       0       0       0       0       0       0       0       0       0       
      +0       0       0       0       0       0
  3962 ;;      Totals:        25       0       0       0       0       0       0       0       0       0       0       0       
      +0       0       0       0       0       0       0       0       0       0       0       0       0       0       0       
      +0       0       0       0       0       0
  3963 ;;Total ram usage:       25 bytes
  3964 ;; Hardware stack levels used: 1
  3965 ;; Hardware stack levels required when called: 4
  3966 ;; This function calls:
  3967 ;;		Nothing
  3968 ;; This function is called by:
  3969 ;;		_main
  3970 ;; This function uses a non-reentrant model
  3971 ;;
  3972                           
  3973                           	psect	text16
  3974  002574                     __ptext16:
  3975                           	callstack 0
  3976  002574                     ___flmul:
  3977                           	callstack 26
  3978  002574  5012               	movf	(___flmul@b+3)^0,w,c
  3979  002576  0B80               	andlw	128
  3980  002578  6E1B               	movwf	___flmul@sign^0,c
  3981  00257A  5012               	movf	(___flmul@b+3)^0,w,c
  3982  00257C  2412               	addwf	(___flmul@b+3)^0,w,c
  3983  00257E  6E21               	movwf	___flmul@bexp^0,c
  3984  002580  AE11               	btfss	(___flmul@b+2)^0,7,c
  3985  002582  EFC5  F012         	goto	u1661
  3986  002586  EFC7  F012         	goto	u1660
  3987  00258A                     u1661:
  3988  00258A  EFC8  F012         	goto	l2989
  3989  00258E                     u1660:
  3990  00258E  8021               	bsf	___flmul@bexp^0,0,c
  3991  002590                     l2989:
  3992  002590  5021               	movf	___flmul@bexp^0,w,c
  3993  002592  B4D8               	btfsc	status,2,c
  3994  002594  EFCE  F012         	goto	u1671
  3995  002598  EFD0  F012         	goto	u1670
  3996  00259C                     u1671:
  3997  00259C  EFE3  F012         	goto	l2997
  3998  0025A0                     u1670:
  3999  0025A0  2821               	incf	___flmul@bexp^0,w,c
  4000  0025A2  A4D8               	btfss	status,2,c
  4001  0025A4  EFD6  F012         	goto	u1681
  4002  0025A8  EFD8  F012         	goto	u1680
  4003  0025AC                     u1681:
  4004  0025AC  EFE0  F012         	goto	l2995
  4005  0025B0                     u1680:
  4006  0025B0  0E00               	movlw	0
  4007  0025B2  6E0F               	movwf	___flmul@b^0,c
  4008  0025B4  0E00               	movlw	0
  4009  0025B6  6E10               	movwf	(___flmul@b+1)^0,c
  4010  0025B8  0E00               	movlw	0
  4011  0025BA  6E11               	movwf	(___flmul@b+2)^0,c
  4012  0025BC  0E00               	movlw	0
  4013  0025BE  6E12               	movwf	(___flmul@b+3)^0,c
  4014  0025C0                     l2995:
  4015  0025C0  8E11               	bsf	(___flmul@b+2)^0,7,c
  4016  0025C2  EFEB  F012         	goto	l2999
  4017  0025C6                     l2997:
  4018  0025C6  0E00               	movlw	0
  4019  0025C8  6E0F               	movwf	___flmul@b^0,c
  4020  0025CA  0E00               	movlw	0
  4021  0025CC  6E10               	movwf	(___flmul@b+1)^0,c
  4022  0025CE  0E00               	movlw	0
  4023  0025D0  6E11               	movwf	(___flmul@b+2)^0,c
  4024  0025D2  0E00               	movlw	0
  4025  0025D4  6E12               	movwf	(___flmul@b+3)^0,c
  4026  0025D6                     l2999:
  4027  0025D6  5016               	movf	(___flmul@a+3)^0,w,c
  4028  0025D8  0B80               	andlw	128
  4029  0025DA  1A1B               	xorwf	___flmul@sign^0,f,c
  4030  0025DC  5016               	movf	(___flmul@a+3)^0,w,c
  4031  0025DE  2416               	addwf	(___flmul@a+3)^0,w,c
  4032  0025E0  6E20               	movwf	___flmul@aexp^0,c
  4033  0025E2  AE15               	btfss	(___flmul@a+2)^0,7,c
  4034  0025E4  EFF6  F012         	goto	u1691
  4035  0025E8  EFF8  F012         	goto	u1690
  4036  0025EC                     u1691:
  4037  0025EC  EFF9  F012         	goto	l3007
  4038  0025F0                     u1690:
  4039  0025F0  8020               	bsf	___flmul@aexp^0,0,c
  4040  0025F2                     l3007:
  4041  0025F2  5020               	movf	___flmul@aexp^0,w,c
  4042  0025F4  B4D8               	btfsc	status,2,c
  4043  0025F6  EFFF  F012         	goto	u1701
  4044  0025FA  EF01  F013         	goto	u1700
  4045  0025FE                     u1701:
  4046  0025FE  EF14  F013         	goto	l3015
  4047  002602                     u1700:
  4048  002602  2820               	incf	___flmul@aexp^0,w,c
  4049  002604  A4D8               	btfss	status,2,c
  4050  002606  EF07  F013         	goto	u1711
  4051  00260A  EF09  F013         	goto	u1710
  4052  00260E                     u1711:
  4053  00260E  EF11  F013         	goto	l3013
  4054  002612                     u1710:
  4055  002612  0E00               	movlw	0
  4056  002614  6E13               	movwf	___flmul@a^0,c
  4057  002616  0E00               	movlw	0
  4058  002618  6E14               	movwf	(___flmul@a+1)^0,c
  4059  00261A  0E00               	movlw	0
  4060  00261C  6E15               	movwf	(___flmul@a+2)^0,c
  4061  00261E  0E00               	movlw	0
  4062  002620  6E16               	movwf	(___flmul@a+3)^0,c
  4063  002622                     l3013:
  4064  002622  8E15               	bsf	(___flmul@a+2)^0,7,c
  4065  002624  EF1C  F013         	goto	l1250
  4066  002628                     l3015:
  4067  002628  0E00               	movlw	0
  4068  00262A  6E13               	movwf	___flmul@a^0,c
  4069  00262C  0E00               	movlw	0
  4070  00262E  6E14               	movwf	(___flmul@a+1)^0,c
  4071  002630  0E00               	movlw	0
  4072  002632  6E15               	movwf	(___flmul@a+2)^0,c
  4073  002634  0E00               	movlw	0
  4074  002636  6E16               	movwf	(___flmul@a+3)^0,c
  4075  002638                     l1250:
  4076  002638  5020               	movf	___flmul@aexp^0,w,c
  4077  00263A  B4D8               	btfsc	status,2,c
  4078  00263C  EF22  F013         	goto	u1721
  4079  002640  EF24  F013         	goto	u1720
  4080  002644                     u1721:
  4081  002644  EF2C  F013         	goto	l3019
  4082  002648                     u1720:
  4083  002648  5021               	movf	___flmul@bexp^0,w,c
  4084  00264A  A4D8               	btfss	status,2,c
  4085  00264C  EF2A  F013         	goto	u1731
  4086  002650  EF2C  F013         	goto	u1730
  4087  002654                     u1731:
  4088  002654  EF36  F013         	goto	l3023
  4089  002658                     u1730:
  4090  002658                     l3019:
  4091  002658  0E00               	movlw	0
  4092  00265A  6E0F               	movwf	?___flmul^0,c
  4093  00265C  0E00               	movlw	0
  4094  00265E  6E10               	movwf	(?___flmul+1)^0,c
  4095  002660  0E00               	movlw	0
  4096  002662  6E11               	movwf	(?___flmul+2)^0,c
  4097  002664  0E00               	movlw	0
  4098  002666  6E12               	movwf	(?___flmul+3)^0,c
  4099  002668  EFE0  F014         	goto	l1254
  4100  00266C                     l3023:
  4101  00266C  5015               	movf	(___flmul@a+2)^0,w,c
  4102  00266E  020F               	mulwf	___flmul@b^0,c
  4103  002670  006F FFCC  F026    	movff	prodl,___flmul@temp
  4104  002676  006F FFD0  F027    	movff	prodh,___flmul@temp+1
  4105  00267C  5026               	movf	___flmul@temp^0,w,c
  4106  00267E  6E1C               	movwf	___flmul@grs^0,c
  4107  002680  6A1D               	clrf	(___flmul@grs+1)^0,c
  4108  002682  6A1E               	clrf	(___flmul@grs+2)^0,c
  4109  002684  6A1F               	clrf	(___flmul@grs+3)^0,c
  4110  002686  5027               	movf	(___flmul@temp+1)^0,w,c
  4111  002688  6E22               	movwf	___flmul@prod^0,c
  4112  00268A  6A23               	clrf	(___flmul@prod+1)^0,c
  4113  00268C  6A24               	clrf	(___flmul@prod+2)^0,c
  4114  00268E  6A25               	clrf	(___flmul@prod+3)^0,c
  4115  002690  5014               	movf	(___flmul@a+1)^0,w,c
  4116  002692  0210               	mulwf	(___flmul@b+1)^0,c
  4117  002694  006F FFCC  F026    	movff	prodl,___flmul@temp
  4118  00269A  006F FFD0  F027    	movff	prodh,___flmul@temp+1
  4119  0026A0  5026               	movf	___flmul@temp^0,w,c
  4120  0026A2  261C               	addwf	___flmul@grs^0,f,c
  4121  0026A4  0E00               	movlw	0
  4122  0026A6  221D               	addwfc	(___flmul@grs+1)^0,f,c
  4123  0026A8  221E               	addwfc	(___flmul@grs+2)^0,f,c
  4124  0026AA  221F               	addwfc	(___flmul@grs+3)^0,f,c
  4125  0026AC  5027               	movf	(___flmul@temp+1)^0,w,c
  4126  0026AE  2622               	addwf	___flmul@prod^0,f,c
  4127  0026B0  0E00               	movlw	0
  4128  0026B2  2223               	addwfc	(___flmul@prod+1)^0,f,c
  4129  0026B4  2224               	addwfc	(___flmul@prod+2)^0,f,c
  4130  0026B6  2225               	addwfc	(___flmul@prod+3)^0,f,c
  4131  0026B8  5013               	movf	___flmul@a^0,w,c
  4132  0026BA  0211               	mulwf	(___flmul@b+2)^0,c
  4133  0026BC  006F FFCC  F026    	movff	prodl,___flmul@temp
  4134  0026C2  006F FFD0  F027    	movff	prodh,___flmul@temp+1
  4135  0026C8  5026               	movf	___flmul@temp^0,w,c
  4136  0026CA  261C               	addwf	___flmul@grs^0,f,c
  4137  0026CC  0E00               	movlw	0
  4138  0026CE  221D               	addwfc	(___flmul@grs+1)^0,f,c
  4139  0026D0  221E               	addwfc	(___flmul@grs+2)^0,f,c
  4140  0026D2  221F               	addwfc	(___flmul@grs+3)^0,f,c
  4141  0026D4  5027               	movf	(___flmul@temp+1)^0,w,c
  4142  0026D6  2622               	addwf	___flmul@prod^0,f,c
  4143  0026D8  0E00               	movlw	0
  4144  0026DA  2223               	addwfc	(___flmul@prod+1)^0,f,c
  4145  0026DC  2224               	addwfc	(___flmul@prod+2)^0,f,c
  4146  0026DE  2225               	addwfc	(___flmul@prod+3)^0,f,c
  4147  0026E0  C01E  F01F         	movff	___flmul@grs+2,___flmul@grs+3
  4148  0026E4  C01D  F01E         	movff	___flmul@grs+1,___flmul@grs+2
  4149  0026E8  C01C  F01D         	movff	___flmul@grs,___flmul@grs+1
  4150  0026EC  6A1C               	clrf	___flmul@grs^0,c
  4151  0026EE  5013               	movf	___flmul@a^0,w,c
  4152  0026F0  0210               	mulwf	(___flmul@b+1)^0,c
  4153  0026F2  006F FFCC  F026    	movff	prodl,___flmul@temp
  4154  0026F8  006F FFD0  F027    	movff	prodh,___flmul@temp+1
  4155  0026FE  5026               	movf	___flmul@temp^0,w,c
  4156  002700  261C               	addwf	___flmul@grs^0,f,c
  4157  002702  5027               	movf	(___flmul@temp+1)^0,w,c
  4158  002704  221D               	addwfc	(___flmul@grs+1)^0,f,c
  4159  002706  0E00               	movlw	0
  4160  002708  221E               	addwfc	(___flmul@grs+2)^0,f,c
  4161  00270A  0E00               	movlw	0
  4162  00270C  221F               	addwfc	(___flmul@grs+3)^0,f,c
  4163  00270E  5014               	movf	(___flmul@a+1)^0,w,c
  4164  002710  020F               	mulwf	___flmul@b^0,c
  4165  002712  006F FFCC  F026    	movff	prodl,___flmul@temp
  4166  002718  006F FFD0  F027    	movff	prodh,___flmul@temp+1
  4167  00271E  5026               	movf	___flmul@temp^0,w,c
  4168  002720  261C               	addwf	___flmul@grs^0,f,c
  4169  002722  5027               	movf	(___flmul@temp+1)^0,w,c
  4170  002724  221D               	addwfc	(___flmul@grs+1)^0,f,c
  4171  002726  0E00               	movlw	0
  4172  002728  221E               	addwfc	(___flmul@grs+2)^0,f,c
  4173  00272A  0E00               	movlw	0
  4174  00272C  221F               	addwfc	(___flmul@grs+3)^0,f,c
  4175  00272E  C01E  F01F         	movff	___flmul@grs+2,___flmul@grs+3
  4176  002732  C01D  F01E         	movff	___flmul@grs+1,___flmul@grs+2
  4177  002736  C01C  F01D         	movff	___flmul@grs,___flmul@grs+1
  4178  00273A  6A1C               	clrf	___flmul@grs^0,c
  4179  00273C  5013               	movf	___flmul@a^0,w,c
  4180  00273E  020F               	mulwf	___flmul@b^0,c
  4181  002740  006F FFCC  F026    	movff	prodl,___flmul@temp
  4182  002746  006F FFD0  F027    	movff	prodh,___flmul@temp+1
  4183  00274C  5026               	movf	___flmul@temp^0,w,c
  4184  00274E  261C               	addwf	___flmul@grs^0,f,c
  4185  002750  5027               	movf	(___flmul@temp+1)^0,w,c
  4186  002752  221D               	addwfc	(___flmul@grs+1)^0,f,c
  4187  002754  0E00               	movlw	0
  4188  002756  221E               	addwfc	(___flmul@grs+2)^0,f,c
  4189  002758  0E00               	movlw	0
  4190  00275A  221F               	addwfc	(___flmul@grs+3)^0,f,c
  4191  00275C  5015               	movf	(___flmul@a+2)^0,w,c
  4192  00275E  0210               	mulwf	(___flmul@b+1)^0,c
  4193  002760  006F FFCC  F026    	movff	prodl,___flmul@temp
  4194  002766  006F FFD0  F027    	movff	prodh,___flmul@temp+1
  4195  00276C  5026               	movf	___flmul@temp^0,w,c
  4196  00276E  2622               	addwf	___flmul@prod^0,f,c
  4197  002770  5027               	movf	(___flmul@temp+1)^0,w,c
  4198  002772  2223               	addwfc	(___flmul@prod+1)^0,f,c
  4199  002774  0E00               	movlw	0
  4200  002776  2224               	addwfc	(___flmul@prod+2)^0,f,c
  4201  002778  0E00               	movlw	0
  4202  00277A  2225               	addwfc	(___flmul@prod+3)^0,f,c
  4203  00277C  5014               	movf	(___flmul@a+1)^0,w,c
  4204  00277E  0211               	mulwf	(___flmul@b+2)^0,c
  4205  002780  006F FFCC  F026    	movff	prodl,___flmul@temp
  4206  002786  006F FFD0  F027    	movff	prodh,___flmul@temp+1
  4207  00278C  5026               	movf	___flmul@temp^0,w,c
  4208  00278E  2622               	addwf	___flmul@prod^0,f,c
  4209  002790  5027               	movf	(___flmul@temp+1)^0,w,c
  4210  002792  2223               	addwfc	(___flmul@prod+1)^0,f,c
  4211  002794  0E00               	movlw	0
  4212  002796  2224               	addwfc	(___flmul@prod+2)^0,f,c
  4213  002798  0E00               	movlw	0
  4214  00279A  2225               	addwfc	(___flmul@prod+3)^0,f,c
  4215  00279C  5015               	movf	(___flmul@a+2)^0,w,c
  4216  00279E  0211               	mulwf	(___flmul@b+2)^0,c
  4217  0027A0  006F FFCC  F026    	movff	prodl,___flmul@temp
  4218  0027A6  006F FFD0  F027    	movff	prodh,___flmul@temp+1
  4219  0027AC  5026               	movf	___flmul@temp^0,w,c
  4220  0027AE  6E17               	movwf	??___flmul^0,c
  4221  0027B0  5027               	movf	(___flmul@temp+1)^0,w,c
  4222  0027B2  6E18               	movwf	(??___flmul+1)^0,c
  4223  0027B4  6A19               	clrf	(??___flmul+2)^0,c
  4224  0027B6  6A1A               	clrf	(??___flmul+3)^0,c
  4225  0027B8  C019  F01A         	movff	??___flmul+2,??___flmul+3
  4226  0027BC  C018  F019         	movff	??___flmul+1,??___flmul+2
  4227  0027C0  C017  F018         	movff	??___flmul,??___flmul+1
  4228  0027C4  6A17               	clrf	??___flmul^0,c
  4229  0027C6  5017               	movf	??___flmul^0,w,c
  4230  0027C8  2622               	addwf	___flmul@prod^0,f,c
  4231  0027CA  5018               	movf	(??___flmul+1)^0,w,c
  4232  0027CC  2223               	addwfc	(___flmul@prod+1)^0,f,c
  4233  0027CE  5019               	movf	(??___flmul+2)^0,w,c
  4234  0027D0  2224               	addwfc	(___flmul@prod+2)^0,f,c
  4235  0027D2  501A               	movf	(??___flmul+3)^0,w,c
  4236  0027D4  2225               	addwfc	(___flmul@prod+3)^0,f,c
  4237  0027D6  C01C  F017         	movff	___flmul@grs,??___flmul
  4238  0027DA  C01D  F018         	movff	___flmul@grs+1,??___flmul+1
  4239  0027DE  C01E  F019         	movff	___flmul@grs+2,??___flmul+2
  4240  0027E2  C01F  F01A         	movff	___flmul@grs+3,??___flmul+3
  4241  0027E6  0E19               	movlw	25
  4242  0027E8  EFFB  F013         	goto	u1740
  4243  0027EC                     u1745:
  4244  0027EC  90D8               	bcf	status,0,c
  4245  0027EE  321A               	rrcf	(??___flmul+3)^0,f,c
  4246  0027F0  3219               	rrcf	(??___flmul+2)^0,f,c
  4247  0027F2  3218               	rrcf	(??___flmul+1)^0,f,c
  4248  0027F4  3217               	rrcf	??___flmul^0,f,c
  4249  0027F6                     u1740:
  4250  0027F6  2EE8               	decfsz	wreg,f,c
  4251  0027F8  EFF6  F013         	goto	u1745
  4252  0027FC  5017               	movf	??___flmul^0,w,c
  4253  0027FE  2622               	addwf	___flmul@prod^0,f,c
  4254  002800  5018               	movf	(??___flmul+1)^0,w,c
  4255  002802  2223               	addwfc	(___flmul@prod+1)^0,f,c
  4256  002804  5019               	movf	(??___flmul+2)^0,w,c
  4257  002806  2224               	addwfc	(___flmul@prod+2)^0,f,c
  4258  002808  501A               	movf	(??___flmul+3)^0,w,c
  4259  00280A  2225               	addwfc	(___flmul@prod+3)^0,f,c
  4260  00280C  C01E  F01F         	movff	___flmul@grs+2,___flmul@grs+3
  4261  002810  C01D  F01E         	movff	___flmul@grs+1,___flmul@grs+2
  4262  002814  C01C  F01D         	movff	___flmul@grs,___flmul@grs+1
  4263  002818  6A1C               	clrf	___flmul@grs^0,c
  4264  00281A  5020               	movf	___flmul@aexp^0,w,c
  4265  00281C  C021  F017         	movff	___flmul@bexp,??___flmul
  4266  002820  6A18               	clrf	(??___flmul+1)^0,c
  4267  002822  2617               	addwf	??___flmul^0,f,c
  4268  002824  0E00               	movlw	0
  4269  002826  2218               	addwfc	(??___flmul+1)^0,f,c
  4270  002828  0E82               	movlw	130
  4271  00282A  2417               	addwf	??___flmul^0,w,c
  4272  00282C  6E26               	movwf	___flmul@temp^0,c
  4273  00282E  0EFF               	movlw	255
  4274  002830  2018               	addwfc	(??___flmul+1)^0,w,c
  4275  002832  6E27               	movwf	(___flmul@temp+1)^0,c
  4276  002834  EF31  F014         	goto	l3071
  4277  002838                     l3065:
  4278  002838  90D8               	bcf	status,0,c
  4279  00283A  3622               	rlcf	___flmul@prod^0,f,c
  4280  00283C  3623               	rlcf	(___flmul@prod+1)^0,f,c
  4281  00283E  3624               	rlcf	(___flmul@prod+2)^0,f,c
  4282  002840  3625               	rlcf	(___flmul@prod+3)^0,f,c
  4283  002842  AE1F               	btfss	(___flmul@grs+3)^0,7,c
  4284  002844  EF26  F014         	goto	u1751
  4285  002848  EF28  F014         	goto	u1750
  4286  00284C                     u1751:
  4287  00284C  EF29  F014         	goto	l1257
  4288  002850                     u1750:
  4289  002850  8022               	bsf	___flmul@prod^0,0,c
  4290  002852                     l1257:
  4291  002852  90D8               	bcf	status,0,c
  4292  002854  361C               	rlcf	___flmul@grs^0,f,c
  4293  002856  361D               	rlcf	(___flmul@grs+1)^0,f,c
  4294  002858  361E               	rlcf	(___flmul@grs+2)^0,f,c
  4295  00285A  361F               	rlcf	(___flmul@grs+3)^0,f,c
  4296  00285C  0626               	decf	___flmul@temp^0,f,c
  4297  00285E  A0D8               	btfss	status,0,c
  4298  002860  0627               	decf	(___flmul@temp+1)^0,f,c
  4299  002862                     l3071:
  4300  002862  AE24               	btfss	(___flmul@prod+2)^0,7,c
  4301  002864  EF36  F014         	goto	u1761
  4302  002868  EF38  F014         	goto	u1760
  4303  00286C                     u1761:
  4304  00286C  EF1C  F014         	goto	l3065
  4305  002870                     u1760:
  4306  002870  0E00               	movlw	0
  4307  002872  6E20               	movwf	___flmul@aexp^0,c
  4308  002874  AE1F               	btfss	(___flmul@grs+3)^0,7,c
  4309  002876  EF3F  F014         	goto	u1771
  4310  00287A  EF41  F014         	goto	u1770
  4311  00287E                     u1771:
  4312  00287E  EF65  F014         	goto	l1259
  4313  002882                     u1770:
  4314  002882  0EFF               	movlw	255
  4315  002884  141C               	andwf	___flmul@grs^0,w,c
  4316  002886  6E17               	movwf	??___flmul^0,c
  4317  002888  0EFF               	movlw	255
  4318  00288A  141D               	andwf	(___flmul@grs+1)^0,w,c
  4319  00288C  6E18               	movwf	(??___flmul+1)^0,c
  4320  00288E  0EFF               	movlw	255
  4321  002890  141E               	andwf	(___flmul@grs+2)^0,w,c
  4322  002892  6E19               	movwf	(??___flmul+2)^0,c
  4323  002894  0E7F               	movlw	127
  4324  002896  141F               	andwf	(___flmul@grs+3)^0,w,c
  4325  002898  6E1A               	movwf	(??___flmul+3)^0,c
  4326  00289A  5017               	movf	??___flmul^0,w,c
  4327  00289C  1018               	iorwf	(??___flmul+1)^0,w,c
  4328  00289E  1019               	iorwf	(??___flmul+2)^0,w,c
  4329  0028A0  101A               	iorwf	(??___flmul+3)^0,w,c
  4330  0028A2  B4D8               	btfsc	status,2,c
  4331  0028A4  EF56  F014         	goto	u1781
  4332  0028A8  EF58  F014         	goto	u1780
  4333  0028AC                     u1781:
  4334  0028AC  EF5C  F014         	goto	l1260
  4335  0028B0                     u1780:
  4336  0028B0                     l3079:
  4337  0028B0  0E01               	movlw	1
  4338  0028B2  6E20               	movwf	___flmul@aexp^0,c
  4339  0028B4  EF65  F014         	goto	l1259
  4340  0028B8                     l1260:
  4341  0028B8  A022               	btfss	___flmul@prod^0,0,c
  4342  0028BA  EF61  F014         	goto	u1791
  4343  0028BE  EF63  F014         	goto	u1790
  4344  0028C2                     u1791:
  4345  0028C2  EF65  F014         	goto	l1259
  4346  0028C6                     u1790:
  4347  0028C6  EF58  F014         	goto	l3079
  4348  0028CA                     l1259:
  4349  0028CA  5020               	movf	___flmul@aexp^0,w,c
  4350  0028CC  B4D8               	btfsc	status,2,c
  4351  0028CE  EF6B  F014         	goto	u1801
  4352  0028D2  EF6D  F014         	goto	u1800
  4353  0028D6                     u1801:
  4354  0028D6  EF91  F014         	goto	l3091
  4355  0028DA                     u1800:
  4356  0028DA  0E01               	movlw	1
  4357  0028DC  2622               	addwf	___flmul@prod^0,f,c
  4358  0028DE  0E00               	movlw	0
  4359  0028E0  2223               	addwfc	(___flmul@prod+1)^0,f,c
  4360  0028E2  2224               	addwfc	(___flmul@prod+2)^0,f,c
  4361  0028E4  2225               	addwfc	(___flmul@prod+3)^0,f,c
  4362  0028E6  A025               	btfss	(___flmul@prod+3)^0,0,c
  4363  0028E8  EF78  F014         	goto	u1811
  4364  0028EC  EF7A  F014         	goto	u1810
  4365  0028F0                     u1811:
  4366  0028F0  EF91  F014         	goto	l3091
  4367  0028F4                     u1810:
  4368  0028F4  C022  F017         	movff	___flmul@prod,??___flmul
  4369  0028F8  C023  F018         	movff	___flmul@prod+1,??___flmul+1
  4370  0028FC  C024  F019         	movff	___flmul@prod+2,??___flmul+2
  4371  002900  C025  F01A         	movff	___flmul@prod+3,??___flmul+3
  4372  002904  341A               	rlcf	(??___flmul+3)^0,w,c
  4373  002906  321A               	rrcf	(??___flmul+3)^0,f,c
  4374  002908  3219               	rrcf	(??___flmul+2)^0,f,c
  4375  00290A  3218               	rrcf	(??___flmul+1)^0,f,c
  4376  00290C  3217               	rrcf	??___flmul^0,f,c
  4377  00290E  C017  F022         	movff	??___flmul,___flmul@prod
  4378  002912  C018  F023         	movff	??___flmul+1,___flmul@prod+1
  4379  002916  C019  F024         	movff	??___flmul+2,___flmul@prod+2
  4380  00291A  C01A  F025         	movff	??___flmul+3,___flmul@prod+3
  4381  00291E  4A26               	infsnz	___flmul@temp^0,f,c
  4382  002920  2A27               	incf	(___flmul@temp+1)^0,f,c
  4383  002922                     l3091:
  4384  002922  BE27               	btfsc	(___flmul@temp+1)^0,7,c
  4385  002924  EF9C  F014         	goto	u1821
  4386  002928  5027               	movf	(___flmul@temp+1)^0,w,c
  4387  00292A  E108               	bnz	u1820
  4388  00292C  2826               	incf	___flmul@temp^0,w,c
  4389  00292E  A0D8               	btfss	status,0,c
  4390  002930  EF9C  F014         	goto	u1821
  4391  002934  EF9E  F014         	goto	u1820
  4392  002938                     u1821:
  4393  002938  EFA8  F014         	goto	l3095
  4394  00293C                     u1820:
  4395  00293C  0E00               	movlw	0
  4396  00293E  6E22               	movwf	___flmul@prod^0,c
  4397  002940  0E00               	movlw	0
  4398  002942  6E23               	movwf	(___flmul@prod+1)^0,c
  4399  002944  0E80               	movlw	128
  4400  002946  6E24               	movwf	(___flmul@prod+2)^0,c
  4401  002948  0E7F               	movlw	127
  4402  00294A  6E25               	movwf	(___flmul@prod+3)^0,c
  4403  00294C  EFD6  F014         	goto	l3107
  4404  002950                     l3095:
  4405  002950  BE27               	btfsc	(___flmul@temp+1)^0,7,c
  4406  002952  EFB5  F014         	goto	u1830
  4407  002956  5027               	movf	(___flmul@temp+1)^0,w,c
  4408  002958  E106               	bnz	u1831
  4409  00295A  0426               	decf	___flmul@temp^0,w,c
  4410  00295C  B0D8               	btfsc	status,0,c
  4411  00295E  EFB3  F014         	goto	u1831
  4412  002962  EFB5  F014         	goto	u1830
  4413  002966                     u1831:
  4414  002966  EFC1  F014         	goto	l1267
  4415  00296A                     u1830:
  4416  00296A  0E00               	movlw	0
  4417  00296C  6E22               	movwf	___flmul@prod^0,c
  4418  00296E  0E00               	movlw	0
  4419  002970  6E23               	movwf	(___flmul@prod+1)^0,c
  4420  002972  0E00               	movlw	0
  4421  002974  6E24               	movwf	(___flmul@prod+2)^0,c
  4422  002976  0E00               	movlw	0
  4423  002978  6E25               	movwf	(___flmul@prod+3)^0,c
  4424  00297A  0E00               	movlw	0
  4425  00297C  6E1B               	movwf	___flmul@sign^0,c
  4426  00297E  EFD6  F014         	goto	l3107
  4427  002982                     l1267:
  4428  002982  C026  F021         	movff	___flmul@temp,___flmul@bexp
  4429  002986  0EFF               	movlw	255
  4430  002988  1622               	andwf	___flmul@prod^0,f,c
  4431  00298A  0EFF               	movlw	255
  4432  00298C  1623               	andwf	(___flmul@prod+1)^0,f,c
  4433  00298E  0E7F               	movlw	127
  4434  002990  1624               	andwf	(___flmul@prod+2)^0,f,c
  4435  002992  0E00               	movlw	0
  4436  002994  1625               	andwf	(___flmul@prod+3)^0,f,c
  4437  002996  A021               	btfss	___flmul@bexp^0,0,c
  4438  002998  EFD0  F014         	goto	u1841
  4439  00299C  EFD2  F014         	goto	u1840
  4440  0029A0                     u1841:
  4441  0029A0  EFD3  F014         	goto	l3105
  4442  0029A4                     u1840:
  4443  0029A4  8E24               	bsf	(___flmul@prod+2)^0,7,c
  4444  0029A6                     l3105:
  4445  0029A6  90D8               	bcf	status,0,c
  4446  0029A8  3021               	rrcf	___flmul@bexp^0,w,c
  4447  0029AA  6E25               	movwf	(___flmul@prod+3)^0,c
  4448  0029AC                     l3107:
  4449  0029AC  501B               	movf	___flmul@sign^0,w,c
  4450  0029AE  1225               	iorwf	(___flmul@prod+3)^0,f,c
  4451  0029B0  C022  F00F         	movff	___flmul@prod,?___flmul
  4452  0029B4  C023  F010         	movff	___flmul@prod+1,?___flmul+1
  4453  0029B8  C024  F011         	movff	___flmul@prod+2,?___flmul+2
  4454  0029BC  C025  F012         	movff	___flmul@prod+3,?___flmul+3
  4455  0029C0                     l1254:
  4456  0029C0  0012               	return		;funcret
  4457  0029C2                     __end_of___flmul:
  4458                           	callstack 0
  4459                           
  4460 ;; *************** function _SYSTEM_Initialize *****************
  4461 ;; Defined at:
  4462 ;;		line 50 in file "mcc_generated_files/mcc.c"
  4463 ;; Parameters:    Size  Location     Type
  4464 ;;		None
  4465 ;; Auto vars:     Size  Location     Type
  4466 ;;		None
  4467 ;; Return value:  Size  Location     Type
  4468 ;;                  1    wreg      void 
  4469 ;; Registers used:
  4470 ;;		wreg, status,2, status,0, cstack
  4471 ;; Tracked objects:
  4472 ;;		On entry : 0/0
  4473 ;;		On exit  : 0/0
  4474 ;;		Unchanged: 0/0
  4475 ;; Data sizes:     COMRAM   BANK0   BANK1   BANK2   BANK3   BANK4   BANK5   BANK6   BANK7   BANK8   BANK9  BANK10  BANK1
      +1  BANK12  BANK13  BANK14  BANK15  BANK16  BANK17  BANK18  BANK19  BANK20  BANK21  BANK22  BANK23  BANK24  BANK25  BANK2
      +6  BANK27  BANK28  BANK29  BANK30  BANK31
  4476 ;;      Params:         0       0       0       0       0       0       0       0       0       0       0       0       
      +0       0       0       0       0       0       0       0       0       0       0       0       0       0       0       
      +0       0       0       0       0       0
  4477 ;;      Locals:         0       0       0       0       0       0       0       0       0       0       0       0       
      +0       0       0       0       0       0       0       0       0       0       0       0       0       0       0       
      +0       0       0       0       0       0
  4478 ;;      Temps:          0       0       0       0       0       0       0       0       0       0       0       0       
      +0       0       0       0       0       0       0       0       0       0       0       0       0       0       0       
      +0       0       0       0       0       0
  4479 ;;      Totals:         0       0       0       0       0       0       0       0       0       0       0       0       
      +0       0       0       0       0       0       0       0       0       0       0       0       0       0       0       
      +0       0       0       0       0       0
  4480 ;;Total ram usage:        0 bytes
  4481 ;; Hardware stack levels used: 1
  4482 ;; Hardware stack levels required when called: 6
  4483 ;; This function calls:
  4484 ;;		_EXT_INT_Initialize
  4485 ;;		_INTERRUPT_Initialize
  4486 ;;		_OSCILLATOR_Initialize
  4487 ;;		_PIN_MANAGER_Initialize
  4488 ;;		_PMD_Initialize
  4489 ;;		_SMT1_Initialize
  4490 ;;		_TMR2_Initialize
  4491 ;;		_TMR4_Initialize
  4492 ;;		_UART1_Initialize
  4493 ;; This function is called by:
  4494 ;;		_main
  4495 ;; This function uses a non-reentrant model
  4496 ;;
  4497                           
  4498                           	psect	text17
  4499  003966                     __ptext17:
  4500                           	callstack 0
  4501  003966                     _SYSTEM_Initialize:
  4502                           	callstack 24
  4503  003966                     
  4504                           ;mcc_generated_files/mcc.c: 52:     INTERRUPT_Initialize();
  4505  003966  EC4C  F01D         	call	_INTERRUPT_Initialize	;wreg free
  4506  00396A                     
  4507                           ;mcc_generated_files/mcc.c: 53:     PMD_Initialize();
  4508  00396A  ECC6  F01C         	call	_PMD_Initialize	;wreg free
  4509  00396E                     
  4510                           ;mcc_generated_files/mcc.c: 54:     PIN_MANAGER_Initialize();
  4511  00396E  EC93  F01A         	call	_PIN_MANAGER_Initialize	;wreg free
  4512  003972                     
  4513                           ;mcc_generated_files/mcc.c: 55:     OSCILLATOR_Initialize();
  4514  003972  EC10  F01D         	call	_OSCILLATOR_Initialize	;wreg free
  4515  003976                     
  4516                           ;mcc_generated_files/mcc.c: 56:     TMR4_Initialize();
  4517  003976  ECE7  F01C         	call	_TMR4_Initialize	;wreg free
  4518  00397A                     
  4519                           ;mcc_generated_files/mcc.c: 57:     SMT1_Initialize();
  4520  00397A  EC58  F01C         	call	_SMT1_Initialize	;wreg free
  4521  00397E                     
  4522                           ;mcc_generated_files/mcc.c: 58:     TMR2_Initialize();
  4523  00397E  ECD8  F01C         	call	_TMR2_Initialize	;wreg free
  4524  003982                     
  4525                           ;mcc_generated_files/mcc.c: 59:     EXT_INT_Initialize();
  4526  003982  ECF5  F01C         	call	_EXT_INT_Initialize	;wreg free
  4527  003986                     
  4528                           ;mcc_generated_files/mcc.c: 60:     UART1_Initialize();
  4529  003986  EC31  F01B         	call	_UART1_Initialize	;wreg free
  4530  00398A  0012               	return		;funcret
  4531  00398C                     __end_of_SYSTEM_Initialize:
  4532                           	callstack 0
  4533                           
  4534 ;; *************** function _UART1_Initialize *****************
  4535 ;; Defined at:
  4536 ;;		line 66 in file "mcc_generated_files/uart1.c"
  4537 ;; Parameters:    Size  Location     Type
  4538 ;;		None
  4539 ;; Auto vars:     Size  Location     Type
  4540 ;;		None
  4541 ;; Return value:  Size  Location     Type
  4542 ;;                  1    wreg      void 
  4543 ;; Registers used:
  4544 ;;		wreg, status,2, status,0, cstack
  4545 ;; Tracked objects:
  4546 ;;		On entry : 0/0
  4547 ;;		On exit  : 0/0
  4548 ;;		Unchanged: 0/0
  4549 ;; Data sizes:     COMRAM   BANK0   BANK1   BANK2   BANK3   BANK4   BANK5   BANK6   BANK7   BANK8   BANK9  BANK10  BANK1
      +1  BANK12  BANK13  BANK14  BANK15  BANK16  BANK17  BANK18  BANK19  BANK20  BANK21  BANK22  BANK23  BANK24  BANK25  BANK2
      +6  BANK27  BANK28  BANK29  BANK30  BANK31
  4550 ;;      Params:         0       0       0       0       0       0       0       0       0       0       0       0       
      +0       0       0       0       0       0       0       0       0       0       0       0       0       0       0       
      +0       0       0       0       0       0
  4551 ;;      Locals:         0       0       0       0       0       0       0       0       0       0       0       0       
      +0       0       0       0       0       0       0       0       0       0       0       0       0       0       0       
      +0       0       0       0       0       0
  4552 ;;      Temps:          0       0       0       0       0       0       0       0       0       0       0       0       
      +0       0       0       0       0       0       0       0       0       0       0       0       0       0       0       
      +0       0       0       0       0       0
  4553 ;;      Totals:         0       0       0       0       0       0       0       0       0       0       0       0       
      +0       0       0       0       0       0       0       0       0       0       0       0       0       0       0       
      +0       0       0       0       0       0
  4554 ;;Total ram usage:        0 bytes
  4555 ;; Hardware stack levels used: 1
  4556 ;; Hardware stack levels required when called: 5
  4557 ;; This function calls:
  4558 ;;		_UART1_SetErrorHandler
  4559 ;;		_UART1_SetFramingErrorHandler
  4560 ;;		_UART1_SetOverrunErrorHandler
  4561 ;; This function is called by:
  4562 ;;		_SYSTEM_Initialize
  4563 ;; This function uses a non-reentrant model
  4564 ;;
  4565                           
  4566                           	psect	text18
  4567  003662                     __ptext18:
  4568                           	callstack 0
  4569  003662                     _UART1_Initialize:
  4570                           	callstack 24
  4571  003662                     
  4572                           ;mcc_generated_files/uart1.c: 73:     U1P1L = 0x00;
  4573  003662  0E00               	movlw	0
  4574  003664  013D               	movlb	61	; () banked
  4575  003666  6FEC               	movwf	236,b	;volatile
  4576                           
  4577                           ;mcc_generated_files/uart1.c: 76:     U1P1H = 0x00;
  4578  003668  0E00               	movlw	0
  4579  00366A  6FED               	movwf	237,b	;volatile
  4580                           
  4581                           ;mcc_generated_files/uart1.c: 79:     U1P2L = 0x00;
  4582  00366C  0E00               	movlw	0
  4583  00366E  6FEE               	movwf	238,b	;volatile
  4584                           
  4585                           ;mcc_generated_files/uart1.c: 82:     U1P2H = 0x00;
  4586  003670  0E00               	movlw	0
  4587  003672  6FEF               	movwf	239,b	;volatile
  4588                           
  4589                           ;mcc_generated_files/uart1.c: 85:     U1P3L = 0x00;
  4590  003674  0E00               	movlw	0
  4591  003676  6FF0               	movwf	240,b	;volatile
  4592                           
  4593                           ;mcc_generated_files/uart1.c: 88:     U1P3H = 0x00;
  4594  003678  0E00               	movlw	0
  4595  00367A  6FF1               	movwf	241,b	;volatile
  4596                           
  4597                           ;mcc_generated_files/uart1.c: 91:     U1CON0 = 0xB0;
  4598  00367C  0EB0               	movlw	176
  4599  00367E  6FF2               	movwf	242,b	;volatile
  4600                           
  4601                           ;mcc_generated_files/uart1.c: 94:     U1CON1 = 0x80;
  4602  003680  0E80               	movlw	128
  4603  003682  6FF3               	movwf	243,b	;volatile
  4604                           
  4605                           ;mcc_generated_files/uart1.c: 97:     U1CON2 = 0x00;
  4606  003684  0E00               	movlw	0
  4607  003686  6FF4               	movwf	244,b	;volatile
  4608                           
  4609                           ;mcc_generated_files/uart1.c: 100:     U1BRGL = 0x0C;
  4610  003688  0E0C               	movlw	12
  4611  00368A  6FF5               	movwf	245,b	;volatile
  4612                           
  4613                           ;mcc_generated_files/uart1.c: 103:     U1BRGH = 0x00;
  4614  00368C  0E00               	movlw	0
  4615  00368E  6FF6               	movwf	246,b	;volatile
  4616                           
  4617                           ;mcc_generated_files/uart1.c: 106:     U1FIFO = 0x00;
  4618  003690  0E00               	movlw	0
  4619  003692  6FF7               	movwf	247,b	;volatile
  4620                           
  4621                           ;mcc_generated_files/uart1.c: 109:     U1UIR = 0x00;
  4622  003694  0E00               	movlw	0
  4623  003696  6FF8               	movwf	248,b	;volatile
  4624                           
  4625                           ;mcc_generated_files/uart1.c: 112:     U1ERRIR = 0x00;
  4626  003698  0E00               	movlw	0
  4627  00369A  6FF9               	movwf	249,b	;volatile
  4628                           
  4629                           ;mcc_generated_files/uart1.c: 115:     U1ERRIE = 0x00;
  4630  00369C  0E00               	movlw	0
  4631  00369E  6FFA               	movwf	250,b	;volatile
  4632  0036A0                     
  4633                           ; BSR set to: 61
  4634                           ;mcc_generated_files/uart1.c: 118:     UART1_SetFramingErrorHandler(UART1_DefaultFraming
      +                          ErrorHandler);
  4635  0036A0  0E00               	movlw	0
  4636  0036A2  6E01               	movwf	UART1_SetFramingErrorHandler@interruptHandler^0,c
  4637  0036A4  0E00               	movlw	0
  4638  0036A6  6E02               	movwf	(UART1_SetFramingErrorHandler@interruptHandler+1)^0,c
  4639  0036A8  0E00               	movlw	0
  4640  0036AA  6E03               	movwf	(UART1_SetFramingErrorHandler@interruptHandler+2)^0,c
  4641  0036AC  EC23  F01D         	call	_UART1_SetFramingErrorHandler	;wreg free
  4642  0036B0                     
  4643                           ;mcc_generated_files/uart1.c: 119:     UART1_SetOverrunErrorHandler(UART1_DefaultOverrun
      +                          ErrorHandler);
  4644  0036B0  0E00               	movlw	0
  4645  0036B2  6E01               	movwf	UART1_SetOverrunErrorHandler@interruptHandler^0,c
  4646  0036B4  0E00               	movlw	0
  4647  0036B6  6E02               	movwf	(UART1_SetOverrunErrorHandler@interruptHandler+1)^0,c
  4648  0036B8  0E00               	movlw	0
  4649  0036BA  6E03               	movwf	(UART1_SetOverrunErrorHandler@interruptHandler+2)^0,c
  4650  0036BC  EC1C  F01D         	call	_UART1_SetOverrunErrorHandler	;wreg free
  4651  0036C0                     
  4652                           ;mcc_generated_files/uart1.c: 120:     UART1_SetErrorHandler(UART1_DefaultErrorHandler);
  4653  0036C0  0E00               	movlw	0
  4654  0036C2  6E01               	movwf	UART1_SetErrorHandler@interruptHandler^0,c
  4655  0036C4  0E00               	movlw	0
  4656  0036C6  6E02               	movwf	(UART1_SetErrorHandler@interruptHandler+1)^0,c
  4657  0036C8  0E00               	movlw	0
  4658  0036CA  6E03               	movwf	(UART1_SetErrorHandler@interruptHandler+2)^0,c
  4659  0036CC  EC2A  F01D         	call	_UART1_SetErrorHandler	;wreg free
  4660  0036D0                     
  4661                           ;mcc_generated_files/uart1.c: 122:     uart1RxLastError.status = 0;
  4662  0036D0  0E00               	movlw	0
  4663  0036D2  6E5F               	movwf	_uart1RxLastError^0,c	;volatile
  4664  0036D4  0012               	return		;funcret
  4665  0036D6                     __end_of_UART1_Initialize:
  4666                           	callstack 0
  4667                           
  4668 ;; *************** function _UART1_SetOverrunErrorHandler *****************
  4669 ;; Defined at:
  4670 ;;		line 204 in file "mcc_generated_files/uart1.c"
  4671 ;; Parameters:    Size  Location     Type
  4672 ;;  interruptHan    3    0[COMRAM] PTR FTN()void 
  4673 ;;		 -> UART1_DefaultOverrunErrorHandler(1), 
  4674 ;; Auto vars:     Size  Location     Type
  4675 ;;		None
  4676 ;; Return value:  Size  Location     Type
  4677 ;;                  1    wreg      void 
  4678 ;; Registers used:
  4679 ;;		wreg, status,2, status,0
  4680 ;; Tracked objects:
  4681 ;;		On entry : 0/0
  4682 ;;		On exit  : 0/0
  4683 ;;		Unchanged: 0/0
  4684 ;; Data sizes:     COMRAM   BANK0   BANK1   BANK2   BANK3   BANK4   BANK5   BANK6   BANK7   BANK8   BANK9  BANK10  BANK1
      +1  BANK12  BANK13  BANK14  BANK15  BANK16  BANK17  BANK18  BANK19  BANK20  BANK21  BANK22  BANK23  BANK24  BANK25  BANK2
      +6  BANK27  BANK28  BANK29  BANK30  BANK31
  4685 ;;      Params:         3       0       0       0       0       0       0       0       0       0       0       0       
      +0       0       0       0       0       0       0       0       0       0       0       0       0       0       0       
      +0       0       0       0       0       0
  4686 ;;      Locals:         0       0       0       0       0       0       0       0       0       0       0       0       
      +0       0       0       0       0       0       0       0       0       0       0       0       0       0       0       
      +0       0       0       0       0       0
  4687 ;;      Temps:          0       0       0       0       0       0       0       0       0       0       0       0       
      +0       0       0       0       0       0       0       0       0       0       0       0       0       0       0       
      +0       0       0       0       0       0
  4688 ;;      Totals:         3       0       0       0       0       0       0       0       0       0       0       0       
      +0       0       0       0       0       0       0       0       0       0       0       0       0       0       0       
      +0       0       0       0       0       0
  4689 ;;Total ram usage:        3 bytes
  4690 ;; Hardware stack levels used: 1
  4691 ;; Hardware stack levels required when called: 4
  4692 ;; This function calls:
  4693 ;;		Nothing
  4694 ;; This function is called by:
  4695 ;;		_UART1_Initialize
  4696 ;; This function uses a non-reentrant model
  4697 ;;
  4698                           
  4699                           	psect	text19
  4700  003A38                     __ptext19:
  4701                           	callstack 0
  4702  003A38                     _UART1_SetOverrunErrorHandler:
  4703                           	callstack 24
  4704  003A38                     
  4705                           ;mcc_generated_files/uart1.c: 205:     UART1_OverrunErrorHandler = interruptHandler;
  4706  003A38  C001  F0B2         	movff	UART1_SetOverrunErrorHandler@interruptHandler,_UART1_OverrunErrorHandler
  4707  003A3C  C002  F0B3         	movff	UART1_SetOverrunErrorHandler@interruptHandler+1,_UART1_OverrunErrorHandler+1
  4708  003A40  C003  F0B4         	movff	UART1_SetOverrunErrorHandler@interruptHandler+2,_UART1_OverrunErrorHandler+2
  4709  003A44  0012               	return		;funcret
  4710  003A46                     __end_of_UART1_SetOverrunErrorHandler:
  4711                           	callstack 0
  4712                           
  4713 ;; *************** function _UART1_SetFramingErrorHandler *****************
  4714 ;; Defined at:
  4715 ;;		line 200 in file "mcc_generated_files/uart1.c"
  4716 ;; Parameters:    Size  Location     Type
  4717 ;;  interruptHan    3    0[COMRAM] PTR FTN()void 
  4718 ;;		 -> UART1_DefaultFramingErrorHandler(1), 
  4719 ;; Auto vars:     Size  Location     Type
  4720 ;;		None
  4721 ;; Return value:  Size  Location     Type
  4722 ;;                  1    wreg      void 
  4723 ;; Registers used:
  4724 ;;		wreg, status,2, status,0
  4725 ;; Tracked objects:
  4726 ;;		On entry : 0/0
  4727 ;;		On exit  : 0/0
  4728 ;;		Unchanged: 0/0
  4729 ;; Data sizes:     COMRAM   BANK0   BANK1   BANK2   BANK3   BANK4   BANK5   BANK6   BANK7   BANK8   BANK9  BANK10  BANK1
      +1  BANK12  BANK13  BANK14  BANK15  BANK16  BANK17  BANK18  BANK19  BANK20  BANK21  BANK22  BANK23  BANK24  BANK25  BANK2
      +6  BANK27  BANK28  BANK29  BANK30  BANK31
  4730 ;;      Params:         3       0       0       0       0       0       0       0       0       0       0       0       
      +0       0       0       0       0       0       0       0       0       0       0       0       0       0       0       
      +0       0       0       0       0       0
  4731 ;;      Locals:         0       0       0       0       0       0       0       0       0       0       0       0       
      +0       0       0       0       0       0       0       0       0       0       0       0       0       0       0       
      +0       0       0       0       0       0
  4732 ;;      Temps:          0       0       0       0       0       0       0       0       0       0       0       0       
      +0       0       0       0       0       0       0       0       0       0       0       0       0       0       0       
      +0       0       0       0       0       0
  4733 ;;      Totals:         3       0       0       0       0       0       0       0       0       0       0       0       
      +0       0       0       0       0       0       0       0       0       0       0       0       0       0       0       
      +0       0       0       0       0       0
  4734 ;;Total ram usage:        3 bytes
  4735 ;; Hardware stack levels used: 1
  4736 ;; Hardware stack levels required when called: 4
  4737 ;; This function calls:
  4738 ;;		Nothing
  4739 ;; This function is called by:
  4740 ;;		_UART1_Initialize
  4741 ;; This function uses a non-reentrant model
  4742 ;;
  4743                           
  4744                           	psect	text20
  4745  003A46                     __ptext20:
  4746                           	callstack 0
  4747  003A46                     _UART1_SetFramingErrorHandler:
  4748                           	callstack 24
  4749  003A46                     
  4750                           ;mcc_generated_files/uart1.c: 201:     UART1_FramingErrorHandler = interruptHandler;
  4751  003A46  C001  F0B5         	movff	UART1_SetFramingErrorHandler@interruptHandler,_UART1_FramingErrorHandler
  4752  003A4A  C002  F0B6         	movff	UART1_SetFramingErrorHandler@interruptHandler+1,_UART1_FramingErrorHandler+1
  4753  003A4E  C003  F0B7         	movff	UART1_SetFramingErrorHandler@interruptHandler+2,_UART1_FramingErrorHandler+2
  4754  003A52  0012               	return		;funcret
  4755  003A54                     __end_of_UART1_SetFramingErrorHandler:
  4756                           	callstack 0
  4757                           
  4758 ;; *************** function _UART1_SetErrorHandler *****************
  4759 ;; Defined at:
  4760 ;;		line 208 in file "mcc_generated_files/uart1.c"
  4761 ;; Parameters:    Size  Location     Type
  4762 ;;  interruptHan    3    0[COMRAM] PTR FTN()void 
  4763 ;;		 -> UART1_DefaultErrorHandler(1), 
  4764 ;; Auto vars:     Size  Location     Type
  4765 ;;		None
  4766 ;; Return value:  Size  Location     Type
  4767 ;;                  1    wreg      void 
  4768 ;; Registers used:
  4769 ;;		wreg, status,2, status,0
  4770 ;; Tracked objects:
  4771 ;;		On entry : 0/0
  4772 ;;		On exit  : 0/0
  4773 ;;		Unchanged: 0/0
  4774 ;; Data sizes:     COMRAM   BANK0   BANK1   BANK2   BANK3   BANK4   BANK5   BANK6   BANK7   BANK8   BANK9  BANK10  BANK1
      +1  BANK12  BANK13  BANK14  BANK15  BANK16  BANK17  BANK18  BANK19  BANK20  BANK21  BANK22  BANK23  BANK24  BANK25  BANK2
      +6  BANK27  BANK28  BANK29  BANK30  BANK31
  4775 ;;      Params:         3       0       0       0       0       0       0       0       0       0       0       0       
      +0       0       0       0       0       0       0       0       0       0       0       0       0       0       0       
      +0       0       0       0       0       0
  4776 ;;      Locals:         0       0       0       0       0       0       0       0       0       0       0       0       
      +0       0       0       0       0       0       0       0       0       0       0       0       0       0       0       
      +0       0       0       0       0       0
  4777 ;;      Temps:          0       0       0       0       0       0       0       0       0       0       0       0       
      +0       0       0       0       0       0       0       0       0       0       0       0       0       0       0       
      +0       0       0       0       0       0
  4778 ;;      Totals:         3       0       0       0       0       0       0       0       0       0       0       0       
      +0       0       0       0       0       0       0       0       0       0       0       0       0       0       0       
      +0       0       0       0       0       0
  4779 ;;Total ram usage:        3 bytes
  4780 ;; Hardware stack levels used: 1
  4781 ;; Hardware stack levels required when called: 4
  4782 ;; This function calls:
  4783 ;;		Nothing
  4784 ;; This function is called by:
  4785 ;;		_UART1_Initialize
  4786 ;; This function uses a non-reentrant model
  4787 ;;
  4788                           
  4789                           	psect	text21
  4790  003A54                     __ptext21:
  4791                           	callstack 0
  4792  003A54                     _UART1_SetErrorHandler:
  4793                           	callstack 24
  4794  003A54                     
  4795                           ;mcc_generated_files/uart1.c: 209:     UART1_ErrorHandler = interruptHandler;
  4796  003A54  C001  F0AF         	movff	UART1_SetErrorHandler@interruptHandler,_UART1_ErrorHandler
  4797  003A58  C002  F0B0         	movff	UART1_SetErrorHandler@interruptHandler+1,_UART1_ErrorHandler+1
  4798  003A5C  C003  F0B1         	movff	UART1_SetErrorHandler@interruptHandler+2,_UART1_ErrorHandler+2
  4799  003A60  0012               	return		;funcret
  4800  003A62                     __end_of_UART1_SetErrorHandler:
  4801                           	callstack 0
  4802                           
  4803 ;; *************** function _TMR4_Initialize *****************
  4804 ;; Defined at:
  4805 ;;		line 62 in file "mcc_generated_files/tmr4.c"
  4806 ;; Parameters:    Size  Location     Type
  4807 ;;		None
  4808 ;; Auto vars:     Size  Location     Type
  4809 ;;		None
  4810 ;; Return value:  Size  Location     Type
  4811 ;;                  1    wreg      void 
  4812 ;; Registers used:
  4813 ;;		wreg, status,2
  4814 ;; Tracked objects:
  4815 ;;		On entry : 0/0
  4816 ;;		On exit  : 0/0
  4817 ;;		Unchanged: 0/0
  4818 ;; Data sizes:     COMRAM   BANK0   BANK1   BANK2   BANK3   BANK4   BANK5   BANK6   BANK7   BANK8   BANK9  BANK10  BANK1
      +1  BANK12  BANK13  BANK14  BANK15  BANK16  BANK17  BANK18  BANK19  BANK20  BANK21  BANK22  BANK23  BANK24  BANK25  BANK2
      +6  BANK27  BANK28  BANK29  BANK30  BANK31
  4819 ;;      Params:         0       0       0       0       0       0       0       0       0       0       0       0       
      +0       0       0       0       0       0       0       0       0       0       0       0       0       0       0       
      +0       0       0       0       0       0
  4820 ;;      Locals:         0       0       0       0       0       0       0       0       0       0       0       0       
      +0       0       0       0       0       0       0       0       0       0       0       0       0       0       0       
      +0       0       0       0       0       0
  4821 ;;      Temps:          0       0       0       0       0       0       0       0       0       0       0       0       
      +0       0       0       0       0       0       0       0       0       0       0       0       0       0       0       
      +0       0       0       0       0       0
  4822 ;;      Totals:         0       0       0       0       0       0       0       0       0       0       0       0       
      +0       0       0       0       0       0       0       0       0       0       0       0       0       0       0       
      +0       0       0       0       0       0
  4823 ;;Total ram usage:        0 bytes
  4824 ;; Hardware stack levels used: 1
  4825 ;; Hardware stack levels required when called: 4
  4826 ;; This function calls:
  4827 ;;		Nothing
  4828 ;; This function is called by:
  4829 ;;		_SYSTEM_Initialize
  4830 ;; This function uses a non-reentrant model
  4831 ;;
  4832                           
  4833                           	psect	text22
  4834  0039CE                     __ptext22:
  4835                           	callstack 0
  4836  0039CE                     _TMR4_Initialize:
  4837                           	callstack 25
  4838  0039CE                     
  4839                           ;mcc_generated_files/tmr4.c: 67:     T4CLKCON = 0x01;
  4840  0039CE  0E01               	movlw	1
  4841  0039D0  6EA2               	movwf	162,c	;volatile
  4842                           
  4843                           ;mcc_generated_files/tmr4.c: 70:     T4HLT = 0x00;
  4844  0039D2  0E00               	movlw	0
  4845  0039D4  6EA1               	movwf	161,c	;volatile
  4846                           
  4847                           ;mcc_generated_files/tmr4.c: 73:     T4RST = 0x00;
  4848  0039D6  0E00               	movlw	0
  4849  0039D8  6EA3               	movwf	163,c	;volatile
  4850  0039DA                     
  4851                           ;mcc_generated_files/tmr4.c: 76:     T4PR = 0xFF;
  4852  0039DA  689F               	setf	159,c	;volatile
  4853                           
  4854                           ;mcc_generated_files/tmr4.c: 79:     T4TMR = 0x00;
  4855  0039DC  0E00               	movlw	0
  4856  0039DE  6E9E               	movwf	158,c	;volatile
  4857  0039E0                     
  4858                           ;mcc_generated_files/tmr4.c: 82:     PIR7bits.TMR4IF = 0;
  4859  0039E0  0139               	movlb	57	; () banked
  4860  0039E2  91A7               	bcf	167,0,b	;volatile
  4861                           
  4862                           ;mcc_generated_files/tmr4.c: 85:     T4CON = 0xB0;
  4863  0039E4  0EB0               	movlw	176
  4864  0039E6  6EA0               	movwf	160,c	;volatile
  4865  0039E8                     
  4866                           ; BSR set to: 57
  4867  0039E8  0012               	return		;funcret
  4868  0039EA                     __end_of_TMR4_Initialize:
  4869                           	callstack 0
  4870                           
  4871 ;; *************** function _TMR2_Initialize *****************
  4872 ;; Defined at:
  4873 ;;		line 62 in file "mcc_generated_files/tmr2.c"
  4874 ;; Parameters:    Size  Location     Type
  4875 ;;		None
  4876 ;; Auto vars:     Size  Location     Type
  4877 ;;		None
  4878 ;; Return value:  Size  Location     Type
  4879 ;;                  1    wreg      void 
  4880 ;; Registers used:
  4881 ;;		wreg, status,2
  4882 ;; Tracked objects:
  4883 ;;		On entry : 0/0
  4884 ;;		On exit  : 0/0
  4885 ;;		Unchanged: 0/0
  4886 ;; Data sizes:     COMRAM   BANK0   BANK1   BANK2   BANK3   BANK4   BANK5   BANK6   BANK7   BANK8   BANK9  BANK10  BANK1
      +1  BANK12  BANK13  BANK14  BANK15  BANK16  BANK17  BANK18  BANK19  BANK20  BANK21  BANK22  BANK23  BANK24  BANK25  BANK2
      +6  BANK27  BANK28  BANK29  BANK30  BANK31
  4887 ;;      Params:         0       0       0       0       0       0       0       0       0       0       0       0       
      +0       0       0       0       0       0       0       0       0       0       0       0       0       0       0       
      +0       0       0       0       0       0
  4888 ;;      Locals:         0       0       0       0       0       0       0       0       0       0       0       0       
      +0       0       0       0       0       0       0       0       0       0       0       0       0       0       0       
      +0       0       0       0       0       0
  4889 ;;      Temps:          0       0       0       0       0       0       0       0       0       0       0       0       
      +0       0       0       0       0       0       0       0       0       0       0       0       0       0       0       
      +0       0       0       0       0       0
  4890 ;;      Totals:         0       0       0       0       0       0       0       0       0       0       0       0       
      +0       0       0       0       0       0       0       0       0       0       0       0       0       0       0       
      +0       0       0       0       0       0
  4891 ;;Total ram usage:        0 bytes
  4892 ;; Hardware stack levels used: 1
  4893 ;; Hardware stack levels required when called: 4
  4894 ;; This function calls:
  4895 ;;		Nothing
  4896 ;; This function is called by:
  4897 ;;		_SYSTEM_Initialize
  4898 ;; This function uses a non-reentrant model
  4899 ;;
  4900                           
  4901                           	psect	text23
  4902  0039B0                     __ptext23:
  4903                           	callstack 0
  4904  0039B0                     _TMR2_Initialize:
  4905                           	callstack 25
  4906  0039B0                     
  4907                           ;mcc_generated_files/tmr2.c: 67:     T2CLKCON = 0x01;
  4908  0039B0  0E01               	movlw	1
  4909  0039B2  6EAE               	movwf	174,c	;volatile
  4910                           
  4911                           ;mcc_generated_files/tmr2.c: 70:     T2HLT = 0x00;
  4912  0039B4  0E00               	movlw	0
  4913  0039B6  6EAD               	movwf	173,c	;volatile
  4914                           
  4915                           ;mcc_generated_files/tmr2.c: 73:     T2RST = 0x00;
  4916  0039B8  0E00               	movlw	0
  4917  0039BA  6EAF               	movwf	175,c	;volatile
  4918                           
  4919                           ;mcc_generated_files/tmr2.c: 76:     T2PR = 0x00;
  4920  0039BC  0E00               	movlw	0
  4921  0039BE  6EAB               	movwf	171,c	;volatile
  4922                           
  4923                           ;mcc_generated_files/tmr2.c: 79:     T2TMR = 0x00;
  4924  0039C0  0E00               	movlw	0
  4925  0039C2  6EAA               	movwf	170,c	;volatile
  4926  0039C4                     
  4927                           ;mcc_generated_files/tmr2.c: 82:     PIR4bits.TMR2IF = 0;
  4928  0039C4  0139               	movlb	57	; () banked
  4929  0039C6  95A4               	bcf	164,2,b	;volatile
  4930                           
  4931                           ;mcc_generated_files/tmr2.c: 85:     T2CON = 0xF3;
  4932  0039C8  0EF3               	movlw	243
  4933  0039CA  6EAC               	movwf	172,c	;volatile
  4934  0039CC                     
  4935                           ; BSR set to: 57
  4936  0039CC  0012               	return		;funcret
  4937  0039CE                     __end_of_TMR2_Initialize:
  4938                           	callstack 0
  4939                           
  4940 ;; *************** function _SMT1_Initialize *****************
  4941 ;; Defined at:
  4942 ;;		line 59 in file "mcc_generated_files/smt1.c"
  4943 ;; Parameters:    Size  Location     Type
  4944 ;;		None
  4945 ;; Auto vars:     Size  Location     Type
  4946 ;;		None
  4947 ;; Return value:  Size  Location     Type
  4948 ;;                  1    wreg      void 
  4949 ;; Registers used:
  4950 ;;		wreg, status,2
  4951 ;; Tracked objects:
  4952 ;;		On entry : 0/0
  4953 ;;		On exit  : 0/0
  4954 ;;		Unchanged: 0/0
  4955 ;; Data sizes:     COMRAM   BANK0   BANK1   BANK2   BANK3   BANK4   BANK5   BANK6   BANK7   BANK8   BANK9  BANK10  BANK1
      +1  BANK12  BANK13  BANK14  BANK15  BANK16  BANK17  BANK18  BANK19  BANK20  BANK21  BANK22  BANK23  BANK24  BANK25  BANK2
      +6  BANK27  BANK28  BANK29  BANK30  BANK31
  4956 ;;      Params:         0       0       0       0       0       0       0       0       0       0       0       0       
      +0       0       0       0       0       0       0       0       0       0       0       0       0       0       0       
      +0       0       0       0       0       0
  4957 ;;      Locals:         0       0       0       0       0       0       0       0       0       0       0       0       
      +0       0       0       0       0       0       0       0       0       0       0       0       0       0       0       
      +0       0       0       0       0       0
  4958 ;;      Temps:          0       0       0       0       0       0       0       0       0       0       0       0       
      +0       0       0       0       0       0       0       0       0       0       0       0       0       0       0       
      +0       0       0       0       0       0
  4959 ;;      Totals:         0       0       0       0       0       0       0       0       0       0       0       0       
      +0       0       0       0       0       0       0       0       0       0       0       0       0       0       0       
      +0       0       0       0       0       0
  4960 ;;Total ram usage:        0 bytes
  4961 ;; Hardware stack levels used: 1
  4962 ;; Hardware stack levels required when called: 4
  4963 ;; This function calls:
  4964 ;;		Nothing
  4965 ;; This function is called by:
  4966 ;;		_SYSTEM_Initialize
  4967 ;; This function uses a non-reentrant model
  4968 ;;
  4969                           
  4970                           	psect	text24
  4971  0038B0                     __ptext24:
  4972                           	callstack 0
  4973  0038B0                     _SMT1_Initialize:
  4974                           	callstack 25
  4975  0038B0                     
  4976                           ;mcc_generated_files/smt1.c: 62:     SMT1CON0 = 0x80;
  4977  0038B0  0E80               	movlw	128
  4978  0038B2  013F               	movlb	63	; () banked
  4979  0038B4  6F1E               	movwf	30,b	;volatile
  4980                           
  4981                           ;mcc_generated_files/smt1.c: 65:     SMT1CON1 = 0x42;
  4982  0038B6  0E42               	movlw	66
  4983  0038B8  6F1F               	movwf	31,b	;volatile
  4984                           
  4985                           ;mcc_generated_files/smt1.c: 68:     SMT1STAT = 0x00;
  4986  0038BA  0E00               	movlw	0
  4987  0038BC  6F20               	movwf	32,b	;volatile
  4988                           
  4989                           ;mcc_generated_files/smt1.c: 71:     SMT1CLK = 0x00;
  4990  0038BE  0E00               	movlw	0
  4991  0038C0  6F21               	movwf	33,b	;volatile
  4992                           
  4993                           ;mcc_generated_files/smt1.c: 74:     SMT1WIN = 0x00;
  4994  0038C2  0E00               	movlw	0
  4995  0038C4  6F23               	movwf	35,b	;volatile
  4996                           
  4997                           ;mcc_generated_files/smt1.c: 77:     SMT1SIG = 0x00;
  4998  0038C6  0E00               	movlw	0
  4999  0038C8  6F22               	movwf	34,b	;volatile
  5000                           
  5001                           ;mcc_generated_files/smt1.c: 80:     SMT1PRU = 0x00;
  5002  0038CA  0E00               	movlw	0
  5003  0038CC  6F1D               	movwf	29,b	;volatile
  5004                           
  5005                           ;mcc_generated_files/smt1.c: 83:     SMT1PRH = 0x00;
  5006  0038CE  0E00               	movlw	0
  5007  0038D0  6F1C               	movwf	28,b	;volatile
  5008                           
  5009                           ;mcc_generated_files/smt1.c: 86:     SMT1PRL = 0x00;
  5010  0038D2  0E00               	movlw	0
  5011  0038D4  6F1B               	movwf	27,b	;volatile
  5012  0038D6                     
  5013                           ; BSR set to: 63
  5014                           ;mcc_generated_files/smt1.c: 89:     PIE1bits.SMT1PWAIE = 1;
  5015  0038D6  0139               	movlb	57	; () banked
  5016  0038D8  8F91               	bsf	145,7,b	;volatile
  5017  0038DA                     
  5018                           ; BSR set to: 57
  5019                           ;mcc_generated_files/smt1.c: 92:     PIE1bits.SMT1PRAIE = 1;
  5020  0038DA  8D91               	bsf	145,6,b	;volatile
  5021  0038DC                     
  5022                           ; BSR set to: 57
  5023                           ;mcc_generated_files/smt1.c: 95:     SMT1CON1bits.SMT1GO = 1;
  5024  0038DC  013F               	movlb	63	; () banked
  5025  0038DE  8F1F               	bsf	31,7,b	;volatile
  5026  0038E0                     
  5027                           ; BSR set to: 63
  5028  0038E0  0012               	return		;funcret
  5029  0038E2                     __end_of_SMT1_Initialize:
  5030                           	callstack 0
  5031                           
  5032 ;; *************** function _PMD_Initialize *****************
  5033 ;; Defined at:
  5034 ;;		line 77 in file "mcc_generated_files/mcc.c"
  5035 ;; Parameters:    Size  Location     Type
  5036 ;;		None
  5037 ;; Auto vars:     Size  Location     Type
  5038 ;;		None
  5039 ;; Return value:  Size  Location     Type
  5040 ;;                  1    wreg      void 
  5041 ;; Registers used:
  5042 ;;		wreg, status,2
  5043 ;; Tracked objects:
  5044 ;;		On entry : 0/0
  5045 ;;		On exit  : 0/0
  5046 ;;		Unchanged: 0/0
  5047 ;; Data sizes:     COMRAM   BANK0   BANK1   BANK2   BANK3   BANK4   BANK5   BANK6   BANK7   BANK8   BANK9  BANK10  BANK1
      +1  BANK12  BANK13  BANK14  BANK15  BANK16  BANK17  BANK18  BANK19  BANK20  BANK21  BANK22  BANK23  BANK24  BANK25  BANK2
      +6  BANK27  BANK28  BANK29  BANK30  BANK31
  5048 ;;      Params:         0       0       0       0       0       0       0       0       0       0       0       0       
      +0       0       0       0       0       0       0       0       0       0       0       0       0       0       0       
      +0       0       0       0       0       0
  5049 ;;      Locals:         0       0       0       0       0       0       0       0       0       0       0       0       
      +0       0       0       0       0       0       0       0       0       0       0       0       0       0       0       
      +0       0       0       0       0       0
  5050 ;;      Temps:          0       0       0       0       0       0       0       0       0       0       0       0       
      +0       0       0       0       0       0       0       0       0       0       0       0       0       0       0       
      +0       0       0       0       0       0
  5051 ;;      Totals:         0       0       0       0       0       0       0       0       0       0       0       0       
      +0       0       0       0       0       0       0       0       0       0       0       0       0       0       0       
      +0       0       0       0       0       0
  5052 ;;Total ram usage:        0 bytes
  5053 ;; Hardware stack levels used: 1
  5054 ;; Hardware stack levels required when called: 4
  5055 ;; This function calls:
  5056 ;;		Nothing
  5057 ;; This function is called by:
  5058 ;;		_SYSTEM_Initialize
  5059 ;; This function uses a non-reentrant model
  5060 ;;
  5061                           
  5062                           	psect	text25
  5063  00398C                     __ptext25:
  5064                           	callstack 0
  5065  00398C                     _PMD_Initialize:
  5066                           	callstack 25
  5067  00398C                     
  5068                           ;mcc_generated_files/mcc.c: 80:     PMD0 = 0x00;
  5069  00398C  0E00               	movlw	0
  5070  00398E  0139               	movlb	57	; () banked
  5071  003990  6FC0               	movwf	192,b	;volatile
  5072                           
  5073                           ;mcc_generated_files/mcc.c: 82:     PMD1 = 0x00;
  5074  003992  0E00               	movlw	0
  5075  003994  6FC1               	movwf	193,b	;volatile
  5076                           
  5077                           ;mcc_generated_files/mcc.c: 84:     PMD2 = 0x00;
  5078  003996  0E00               	movlw	0
  5079  003998  6FC2               	movwf	194,b	;volatile
  5080                           
  5081                           ;mcc_generated_files/mcc.c: 86:     PMD3 = 0x00;
  5082  00399A  0E00               	movlw	0
  5083  00399C  6FC3               	movwf	195,b	;volatile
  5084                           
  5085                           ;mcc_generated_files/mcc.c: 88:     PMD4 = 0x00;
  5086  00399E  0E00               	movlw	0
  5087  0039A0  6FC4               	movwf	196,b	;volatile
  5088                           
  5089                           ;mcc_generated_files/mcc.c: 90:     PMD5 = 0x00;
  5090  0039A2  0E00               	movlw	0
  5091  0039A4  6FC5               	movwf	197,b	;volatile
  5092                           
  5093                           ;mcc_generated_files/mcc.c: 92:     PMD6 = 0x00;
  5094  0039A6  0E00               	movlw	0
  5095  0039A8  6FC6               	movwf	198,b	;volatile
  5096                           
  5097                           ;mcc_generated_files/mcc.c: 94:     PMD7 = 0x00;
  5098  0039AA  0E00               	movlw	0
  5099  0039AC  6FC7               	movwf	199,b	;volatile
  5100  0039AE                     
  5101                           ; BSR set to: 57
  5102  0039AE  0012               	return		;funcret
  5103  0039B0                     __end_of_PMD_Initialize:
  5104                           	callstack 0
  5105                           
  5106 ;; *************** function _PIN_MANAGER_Initialize *****************
  5107 ;; Defined at:
  5108 ;;		line 55 in file "mcc_generated_files/pin_manager.c"
  5109 ;; Parameters:    Size  Location     Type
  5110 ;;		None
  5111 ;; Auto vars:     Size  Location     Type
  5112 ;;		None
  5113 ;; Return value:  Size  Location     Type
  5114 ;;                  1    wreg      void 
  5115 ;; Registers used:
  5116 ;;		wreg, status,2
  5117 ;; Tracked objects:
  5118 ;;		On entry : 0/0
  5119 ;;		On exit  : 0/0
  5120 ;;		Unchanged: 0/0
  5121 ;; Data sizes:     COMRAM   BANK0   BANK1   BANK2   BANK3   BANK4   BANK5   BANK6   BANK7   BANK8   BANK9  BANK10  BANK1
      +1  BANK12  BANK13  BANK14  BANK15  BANK16  BANK17  BANK18  BANK19  BANK20  BANK21  BANK22  BANK23  BANK24  BANK25  BANK2
      +6  BANK27  BANK28  BANK29  BANK30  BANK31
  5122 ;;      Params:         0       0       0       0       0       0       0       0       0       0       0       0       
      +0       0       0       0       0       0       0       0       0       0       0       0       0       0       0       
      +0       0       0       0       0       0
  5123 ;;      Locals:         0       0       0       0       0       0       0       0       0       0       0       0       
      +0       0       0       0       0       0       0       0       0       0       0       0       0       0       0       
      +0       0       0       0       0       0
  5124 ;;      Temps:          0       0       0       0       0       0       0       0       0       0       0       0       
      +0       0       0       0       0       0       0       0       0       0       0       0       0       0       0       
      +0       0       0       0       0       0
  5125 ;;      Totals:         0       0       0       0       0       0       0       0       0       0       0       0       
      +0       0       0       0       0       0       0       0       0       0       0       0       0       0       0       
      +0       0       0       0       0       0
  5126 ;;Total ram usage:        0 bytes
  5127 ;; Hardware stack levels used: 1
  5128 ;; Hardware stack levels required when called: 4
  5129 ;; This function calls:
  5130 ;;		Nothing
  5131 ;; This function is called by:
  5132 ;;		_SYSTEM_Initialize
  5133 ;; This function uses a non-reentrant model
  5134 ;;
  5135                           
  5136                           	psect	text26
  5137  003526                     __ptext26:
  5138                           	callstack 0
  5139  003526                     _PIN_MANAGER_Initialize:
  5140                           	callstack 25
  5141  003526                     
  5142                           ;mcc_generated_files/pin_manager.c: 60:     LATE = 0x04;
  5143  003526  0E04               	movlw	4
  5144  003528  6EBE               	movwf	190,c	;volatile
  5145                           
  5146                           ;mcc_generated_files/pin_manager.c: 61:     LATD = 0x00;
  5147  00352A  0E00               	movlw	0
  5148  00352C  6EBD               	movwf	189,c	;volatile
  5149                           
  5150                           ;mcc_generated_files/pin_manager.c: 62:     LATA = 0x07;
  5151  00352E  0E07               	movlw	7
  5152  003530  6EBA               	movwf	186,c	;volatile
  5153                           
  5154                           ;mcc_generated_files/pin_manager.c: 63:     LATB = 0x00;
  5155  003532  0E00               	movlw	0
  5156  003534  6EBB               	movwf	187,c	;volatile
  5157                           
  5158                           ;mcc_generated_files/pin_manager.c: 64:     LATC = 0x00;
  5159  003536  0E00               	movlw	0
  5160  003538  6EBC               	movwf	188,c	;volatile
  5161                           
  5162                           ;mcc_generated_files/pin_manager.c: 69:     TRISE = 0x03;
  5163  00353A  0E03               	movlw	3
  5164  00353C  6EC6               	movwf	198,c	;volatile
  5165                           
  5166                           ;mcc_generated_files/pin_manager.c: 70:     TRISA = 0xF8;
  5167  00353E  0EF8               	movlw	248
  5168  003540  6EC2               	movwf	194,c	;volatile
  5169                           
  5170                           ;mcc_generated_files/pin_manager.c: 71:     TRISB = 0xFB;
  5171  003542  0EFB               	movlw	251
  5172  003544  6EC3               	movwf	195,c	;volatile
  5173  003546                     
  5174                           ;mcc_generated_files/pin_manager.c: 72:     TRISC = 0xFF;
  5175  003546  68C4               	setf	196,c	;volatile
  5176  003548                     
  5177                           ;mcc_generated_files/pin_manager.c: 73:     TRISD = 0xFF;
  5178  003548  68C5               	setf	197,c	;volatile
  5179  00354A                     
  5180                           ;mcc_generated_files/pin_manager.c: 78:     ANSELD = 0xFF;
  5181  00354A  013A               	movlb	58	; () banked
  5182  00354C  6970               	setf	112,b	;volatile
  5183                           
  5184                           ;mcc_generated_files/pin_manager.c: 79:     ANSELC = 0xFC;
  5185  00354E  0EFC               	movlw	252
  5186  003550  6F60               	movwf	96,b	;volatile
  5187                           
  5188                           ;mcc_generated_files/pin_manager.c: 80:     ANSELB = 0xF2;
  5189  003552  0EF2               	movlw	242
  5190  003554  6F50               	movwf	80,b	;volatile
  5191                           
  5192                           ;mcc_generated_files/pin_manager.c: 81:     ANSELE = 0x03;
  5193  003556  0E03               	movlw	3
  5194  003558  6F80               	movwf	128,b	;volatile
  5195                           
  5196                           ;mcc_generated_files/pin_manager.c: 82:     ANSELA = 0xF8;
  5197  00355A  0EF8               	movlw	248
  5198  00355C  6F40               	movwf	64,b	;volatile
  5199                           
  5200                           ;mcc_generated_files/pin_manager.c: 87:     WPUD = 0x00;
  5201  00355E  0E00               	movlw	0
  5202  003560  6F71               	movwf	113,b	;volatile
  5203                           
  5204                           ;mcc_generated_files/pin_manager.c: 88:     WPUE = 0x00;
  5205  003562  0E00               	movlw	0
  5206  003564  6F81               	movwf	129,b	;volatile
  5207                           
  5208                           ;mcc_generated_files/pin_manager.c: 89:     WPUB = 0x00;
  5209  003566  0E00               	movlw	0
  5210  003568  6F51               	movwf	81,b	;volatile
  5211                           
  5212                           ;mcc_generated_files/pin_manager.c: 90:     WPUA = 0x00;
  5213  00356A  0E00               	movlw	0
  5214  00356C  6F41               	movwf	65,b	;volatile
  5215                           
  5216                           ;mcc_generated_files/pin_manager.c: 91:     WPUC = 0x00;
  5217  00356E  0E00               	movlw	0
  5218  003570  6F61               	movwf	97,b	;volatile
  5219                           
  5220                           ;mcc_generated_files/pin_manager.c: 96:     RB1I2C = 0x00;
  5221  003572  0E00               	movlw	0
  5222  003574  6F5A               	movwf	90,b	;volatile
  5223                           
  5224                           ;mcc_generated_files/pin_manager.c: 97:     RB2I2C = 0x00;
  5225  003576  0E00               	movlw	0
  5226  003578  6F5B               	movwf	91,b	;volatile
  5227                           
  5228                           ;mcc_generated_files/pin_manager.c: 98:     RC3I2C = 0x00;
  5229  00357A  0E00               	movlw	0
  5230  00357C  6F6A               	movwf	106,b	;volatile
  5231                           
  5232                           ;mcc_generated_files/pin_manager.c: 99:     RC4I2C = 0x00;
  5233  00357E  0E00               	movlw	0
  5234  003580  6F6B               	movwf	107,b	;volatile
  5235                           
  5236                           ;mcc_generated_files/pin_manager.c: 100:     RD0I2C = 0x00;
  5237  003582  0E00               	movlw	0
  5238  003584  6F7A               	movwf	122,b	;volatile
  5239                           
  5240                           ;mcc_generated_files/pin_manager.c: 101:     RD1I2C = 0x00;
  5241  003586  0E00               	movlw	0
  5242  003588  6F7B               	movwf	123,b	;volatile
  5243                           
  5244                           ;mcc_generated_files/pin_manager.c: 106:     ODCONE = 0x00;
  5245  00358A  0E00               	movlw	0
  5246  00358C  6F82               	movwf	130,b	;volatile
  5247                           
  5248                           ;mcc_generated_files/pin_manager.c: 107:     ODCONA = 0x00;
  5249  00358E  0E00               	movlw	0
  5250  003590  6F42               	movwf	66,b	;volatile
  5251                           
  5252                           ;mcc_generated_files/pin_manager.c: 108:     ODCONB = 0x00;
  5253  003592  0E00               	movlw	0
  5254  003594  6F52               	movwf	82,b	;volatile
  5255                           
  5256                           ;mcc_generated_files/pin_manager.c: 109:     ODCONC = 0x00;
  5257  003596  0E00               	movlw	0
  5258  003598  6F62               	movwf	98,b	;volatile
  5259                           
  5260                           ;mcc_generated_files/pin_manager.c: 110:     ODCOND = 0x00;
  5261  00359A  0E00               	movlw	0
  5262  00359C  6F72               	movwf	114,b	;volatile
  5263  00359E                     
  5264                           ; BSR set to: 58
  5265                           ;mcc_generated_files/pin_manager.c: 115:     SLRCONA = 0xFF;
  5266  00359E  6943               	setf	67,b	;volatile
  5267  0035A0                     
  5268                           ; BSR set to: 58
  5269                           ;mcc_generated_files/pin_manager.c: 116:     SLRCONB = 0xFF;
  5270  0035A0  6953               	setf	83,b	;volatile
  5271  0035A2                     
  5272                           ; BSR set to: 58
  5273                           ;mcc_generated_files/pin_manager.c: 117:     SLRCONC = 0xFF;
  5274  0035A2  6963               	setf	99,b	;volatile
  5275  0035A4                     
  5276                           ; BSR set to: 58
  5277                           ;mcc_generated_files/pin_manager.c: 118:     SLRCOND = 0xFF;
  5278  0035A4  6973               	setf	115,b	;volatile
  5279                           
  5280                           ;mcc_generated_files/pin_manager.c: 119:     SLRCONE = 0x07;
  5281  0035A6  0E07               	movlw	7
  5282  0035A8  6F83               	movwf	131,b	;volatile
  5283  0035AA                     
  5284                           ; BSR set to: 58
  5285                           ;mcc_generated_files/pin_manager.c: 124:     INLVLA = 0xFF;
  5286  0035AA  6944               	setf	68,b	;volatile
  5287  0035AC                     
  5288                           ; BSR set to: 58
  5289                           ;mcc_generated_files/pin_manager.c: 125:     INLVLB = 0xFF;
  5290  0035AC  6954               	setf	84,b	;volatile
  5291  0035AE                     
  5292                           ; BSR set to: 58
  5293                           ;mcc_generated_files/pin_manager.c: 126:     INLVLC = 0xFF;
  5294  0035AE  6964               	setf	100,b	;volatile
  5295  0035B0                     
  5296                           ; BSR set to: 58
  5297                           ;mcc_generated_files/pin_manager.c: 127:     INLVLD = 0xFF;
  5298  0035B0  6974               	setf	116,b	;volatile
  5299                           
  5300                           ;mcc_generated_files/pin_manager.c: 128:     INLVLE = 0x0F;
  5301  0035B2  0E0F               	movlw	15
  5302  0035B4  6F84               	movwf	132,b	;volatile
  5303                           
  5304                           ;mcc_generated_files/pin_manager.c: 137:     INT0PPS = 0x08;
  5305  0035B6  0E08               	movlw	8
  5306  0035B8  6FC0               	movwf	192,b	;volatile
  5307                           
  5308                           ;mcc_generated_files/pin_manager.c: 138:     SMT1WINPPS = 0x10;
  5309  0035BA  0E10               	movlw	16
  5310  0035BC  6FD1               	movwf	209,b	;volatile
  5311                           
  5312                           ;mcc_generated_files/pin_manager.c: 139:     RB2PPS = 0x13;
  5313  0035BE  0E13               	movlw	19
  5314  0035C0  6F0A               	movwf	10,b	;volatile
  5315                           
  5316                           ;mcc_generated_files/pin_manager.c: 140:     SMT1SIGPPS = 0x11;
  5317  0035C2  0E11               	movlw	17
  5318  0035C4  6FD2               	movwf	210,b	;volatile
  5319                           
  5320                           ;mcc_generated_files/pin_manager.c: 141:     U1RXPPS = 0x0B;
  5321  0035C6  0E0B               	movlw	11
  5322  0035C8  6FE5               	movwf	229,b	;volatile
  5323  0035CA                     
  5324                           ; BSR set to: 58
  5325  0035CA  0012               	return		;funcret
  5326  0035CC                     __end_of_PIN_MANAGER_Initialize:
  5327                           	callstack 0
  5328                           
  5329 ;; *************** function _OSCILLATOR_Initialize *****************
  5330 ;; Defined at:
  5331 ;;		line 63 in file "mcc_generated_files/mcc.c"
  5332 ;; Parameters:    Size  Location     Type
  5333 ;;		None
  5334 ;; Auto vars:     Size  Location     Type
  5335 ;;		None
  5336 ;; Return value:  Size  Location     Type
  5337 ;;                  1    wreg      void 
  5338 ;; Registers used:
  5339 ;;		wreg, status,2
  5340 ;; Tracked objects:
  5341 ;;		On entry : 0/0
  5342 ;;		On exit  : 0/0
  5343 ;;		Unchanged: 0/0
  5344 ;; Data sizes:     COMRAM   BANK0   BANK1   BANK2   BANK3   BANK4   BANK5   BANK6   BANK7   BANK8   BANK9  BANK10  BANK1
      +1  BANK12  BANK13  BANK14  BANK15  BANK16  BANK17  BANK18  BANK19  BANK20  BANK21  BANK22  BANK23  BANK24  BANK25  BANK2
      +6  BANK27  BANK28  BANK29  BANK30  BANK31
  5345 ;;      Params:         0       0       0       0       0       0       0       0       0       0       0       0       
      +0       0       0       0       0       0       0       0       0       0       0       0       0       0       0       
      +0       0       0       0       0       0
  5346 ;;      Locals:         0       0       0       0       0       0       0       0       0       0       0       0       
      +0       0       0       0       0       0       0       0       0       0       0       0       0       0       0       
      +0       0       0       0       0       0
  5347 ;;      Temps:          0       0       0       0       0       0       0       0       0       0       0       0       
      +0       0       0       0       0       0       0       0       0       0       0       0       0       0       0       
      +0       0       0       0       0       0
  5348 ;;      Totals:         0       0       0       0       0       0       0       0       0       0       0       0       
      +0       0       0       0       0       0       0       0       0       0       0       0       0       0       0       
      +0       0       0       0       0       0
  5349 ;;Total ram usage:        0 bytes
  5350 ;; Hardware stack levels used: 1
  5351 ;; Hardware stack levels required when called: 4
  5352 ;; This function calls:
  5353 ;;		Nothing
  5354 ;; This function is called by:
  5355 ;;		_SYSTEM_Initialize
  5356 ;; This function uses a non-reentrant model
  5357 ;;
  5358                           
  5359                           	psect	text27
  5360  003A20                     __ptext27:
  5361                           	callstack 0
  5362  003A20                     _OSCILLATOR_Initialize:
  5363                           	callstack 25
  5364  003A20                     
  5365                           ;mcc_generated_files/mcc.c: 66:     OSCCON1 = 0x64;
  5366  003A20  0E64               	movlw	100
  5367  003A22  0139               	movlb	57	; () banked
  5368  003A24  6FD9               	movwf	217,b	;volatile
  5369                           
  5370                           ;mcc_generated_files/mcc.c: 68:     OSCCON3 = 0x00;
  5371  003A26  0E00               	movlw	0
  5372  003A28  6FDB               	movwf	219,b	;volatile
  5373                           
  5374                           ;mcc_generated_files/mcc.c: 70:     OSCEN = 0x00;
  5375  003A2A  0E00               	movlw	0
  5376  003A2C  6FDD               	movwf	221,b	;volatile
  5377                           
  5378                           ;mcc_generated_files/mcc.c: 72:     OSCFRQ = 0x03;
  5379  003A2E  0E03               	movlw	3
  5380  003A30  6FDF               	movwf	223,b	;volatile
  5381                           
  5382                           ;mcc_generated_files/mcc.c: 74:     OSCTUNE = 0x00;
  5383  003A32  0E00               	movlw	0
  5384  003A34  6FDE               	movwf	222,b	;volatile
  5385  003A36                     
  5386                           ; BSR set to: 57
  5387  003A36  0012               	return		;funcret
  5388  003A38                     __end_of_OSCILLATOR_Initialize:
  5389                           	callstack 0
  5390                           
  5391 ;; *************** function _INTERRUPT_Initialize *****************
  5392 ;; Defined at:
  5393 ;;		line 52 in file "mcc_generated_files/interrupt_manager.c"
  5394 ;; Parameters:    Size  Location     Type
  5395 ;;		None
  5396 ;; Auto vars:     Size  Location     Type
  5397 ;;		None
  5398 ;; Return value:  Size  Location     Type
  5399 ;;                  1    wreg      void 
  5400 ;; Registers used:
  5401 ;;		None
  5402 ;; Tracked objects:
  5403 ;;		On entry : 0/0
  5404 ;;		On exit  : 0/0
  5405 ;;		Unchanged: 0/0
  5406 ;; Data sizes:     COMRAM   BANK0   BANK1   BANK2   BANK3   BANK4   BANK5   BANK6   BANK7   BANK8   BANK9  BANK10  BANK1
      +1  BANK12  BANK13  BANK14  BANK15  BANK16  BANK17  BANK18  BANK19  BANK20  BANK21  BANK22  BANK23  BANK24  BANK25  BANK2
      +6  BANK27  BANK28  BANK29  BANK30  BANK31
  5407 ;;      Params:         0       0       0       0       0       0       0       0       0       0       0       0       
      +0       0       0       0       0       0       0       0       0       0       0       0       0       0       0       
      +0       0       0       0       0       0
  5408 ;;      Locals:         0       0       0       0       0       0       0       0       0       0       0       0       
      +0       0       0       0       0       0       0       0       0       0       0       0       0       0       0       
      +0       0       0       0       0       0
  5409 ;;      Temps:          0       0       0       0       0       0       0       0       0       0       0       0       
      +0       0       0       0       0       0       0       0       0       0       0       0       0       0       0       
      +0       0       0       0       0       0
  5410 ;;      Totals:         0       0       0       0       0       0       0       0       0       0       0       0       
      +0       0       0       0       0       0       0       0       0       0       0       0       0       0       0       
      +0       0       0       0       0       0
  5411 ;;Total ram usage:        0 bytes
  5412 ;; Hardware stack levels used: 1
  5413 ;; Hardware stack levels required when called: 4
  5414 ;; This function calls:
  5415 ;;		Nothing
  5416 ;; This function is called by:
  5417 ;;		_SYSTEM_Initialize
  5418 ;; This function uses a non-reentrant model
  5419 ;;
  5420                           
  5421                           	psect	text28
  5422  003A98                     __ptext28:
  5423                           	callstack 0
  5424  003A98                     _INTERRUPT_Initialize:
  5425                           	callstack 25
  5426  003A98                     
  5427                           ;mcc_generated_files/interrupt_manager.c: 55:     INTCON0bits.IPEN = 0;
  5428  003A98  9AD2               	bcf	210,5,c	;volatile
  5429  003A9A  0012               	return		;funcret
  5430  003A9C                     __end_of_INTERRUPT_Initialize:
  5431                           	callstack 0
  5432                           
  5433 ;; *************** function _EXT_INT_Initialize *****************
  5434 ;; Defined at:
  5435 ;;		line 59 in file "mcc_generated_files/ext_int.c"
  5436 ;; Parameters:    Size  Location     Type
  5437 ;;		None
  5438 ;; Auto vars:     Size  Location     Type
  5439 ;;		None
  5440 ;; Return value:  Size  Location     Type
  5441 ;;                  1    wreg      void 
  5442 ;; Registers used:
  5443 ;;		wreg, status,2, status,0, cstack
  5444 ;; Tracked objects:
  5445 ;;		On entry : 0/0
  5446 ;;		On exit  : 0/0
  5447 ;;		Unchanged: 0/0
  5448 ;; Data sizes:     COMRAM   BANK0   BANK1   BANK2   BANK3   BANK4   BANK5   BANK6   BANK7   BANK8   BANK9  BANK10  BANK1
      +1  BANK12  BANK13  BANK14  BANK15  BANK16  BANK17  BANK18  BANK19  BANK20  BANK21  BANK22  BANK23  BANK24  BANK25  BANK2
      +6  BANK27  BANK28  BANK29  BANK30  BANK31
  5449 ;;      Params:         0       0       0       0       0       0       0       0       0       0       0       0       
      +0       0       0       0       0       0       0       0       0       0       0       0       0       0       0       
      +0       0       0       0       0       0
  5450 ;;      Locals:         0       0       0       0       0       0       0       0       0       0       0       0       
      +0       0       0       0       0       0       0       0       0       0       0       0       0       0       0       
      +0       0       0       0       0       0
  5451 ;;      Temps:          0       0       0       0       0       0       0       0       0       0       0       0       
      +0       0       0       0       0       0       0       0       0       0       0       0       0       0       0       
      +0       0       0       0       0       0
  5452 ;;      Totals:         0       0       0       0       0       0       0       0       0       0       0       0       
      +0       0       0       0       0       0       0       0       0       0       0       0       0       0       0       
      +0       0       0       0       0       0
  5453 ;;Total ram usage:        0 bytes
  5454 ;; Hardware stack levels used: 1
  5455 ;; Hardware stack levels required when called: 5
  5456 ;; This function calls:
  5457 ;;		_INT0_SetInterruptHandler
  5458 ;; This function is called by:
  5459 ;;		_SYSTEM_Initialize
  5460 ;; This function uses a non-reentrant model
  5461 ;;
  5462                           
  5463                           	psect	text29
  5464  0039EA                     __ptext29:
  5465                           	callstack 0
  5466  0039EA                     _EXT_INT_Initialize:
  5467                           	callstack 24
  5468  0039EA                     
  5469                           ;mcc_generated_files/ext_int.c: 64:     (PIR1bits.INT0IF = 0);
  5470  0039EA  0139               	movlb	57	; () banked
  5471  0039EC  91A1               	bcf	161,0,b	;volatile
  5472                           
  5473                           ;mcc_generated_files/ext_int.c: 65:     (INTCON0bits.INT0EDG = 1);
  5474  0039EE  80D2               	bsf	210,0,c	;volatile
  5475  0039F0                     
  5476                           ; BSR set to: 57
  5477                           ;mcc_generated_files/ext_int.c: 67:     INT0_SetInterruptHandler(INT0_DefaultInterruptHa
      +                          ndler);
  5478  0039F0  0E9C               	movlw	low _INT0_DefaultInterruptHandler
  5479  0039F2  6E01               	movwf	INT0_SetInterruptHandler@InterruptHandler^0,c
  5480  0039F4  0E3A               	movlw	high _INT0_DefaultInterruptHandler
  5481  0039F6  6E02               	movwf	(INT0_SetInterruptHandler@InterruptHandler+1)^0,c
  5482  0039F8  0E00               	movlw	low (_INT0_DefaultInterruptHandler shr (0+16))
  5483  0039FA  6E03               	movwf	(INT0_SetInterruptHandler@InterruptHandler+2)^0,c
  5484  0039FC  EC31  F01D         	call	_INT0_SetInterruptHandler	;wreg free
  5485  003A00                     
  5486                           ;mcc_generated_files/ext_int.c: 68:     (PIE1bits.INT0IE = 1);
  5487  003A00  0139               	movlb	57	; () banked
  5488  003A02  8191               	bsf	145,0,b	;volatile
  5489  003A04                     
  5490                           ; BSR set to: 57
  5491  003A04  0012               	return		;funcret
  5492  003A06                     __end_of_EXT_INT_Initialize:
  5493                           	callstack 0
  5494                           
  5495 ;; *************** function _INT0_SetInterruptHandler *****************
  5496 ;; Defined at:
  5497 ;;		line 50 in file "mcc_generated_files/ext_int.c"
  5498 ;; Parameters:    Size  Location     Type
  5499 ;;  InterruptHan    3    0[COMRAM] PTR FTN()void 
  5500 ;;		 -> counterHall_callback(1), INT0_DefaultInterruptHandler(1), 
  5501 ;; Auto vars:     Size  Location     Type
  5502 ;;		None
  5503 ;; Return value:  Size  Location     Type
  5504 ;;                  1    wreg      void 
  5505 ;; Registers used:
  5506 ;;		wreg, status,2, status,0
  5507 ;; Tracked objects:
  5508 ;;		On entry : 0/0
  5509 ;;		On exit  : 0/0
  5510 ;;		Unchanged: 0/0
  5511 ;; Data sizes:     COMRAM   BANK0   BANK1   BANK2   BANK3   BANK4   BANK5   BANK6   BANK7   BANK8   BANK9  BANK10  BANK1
      +1  BANK12  BANK13  BANK14  BANK15  BANK16  BANK17  BANK18  BANK19  BANK20  BANK21  BANK22  BANK23  BANK24  BANK25  BANK2
      +6  BANK27  BANK28  BANK29  BANK30  BANK31
  5512 ;;      Params:         3       0       0       0       0       0       0       0       0       0       0       0       
      +0       0       0       0       0       0       0       0       0       0       0       0       0       0       0       
      +0       0       0       0       0       0
  5513 ;;      Locals:         0       0       0       0       0       0       0       0       0       0       0       0       
      +0       0       0       0       0       0       0       0       0       0       0       0       0       0       0       
      +0       0       0       0       0       0
  5514 ;;      Temps:          0       0       0       0       0       0       0       0       0       0       0       0       
      +0       0       0       0       0       0       0       0       0       0       0       0       0       0       0       
      +0       0       0       0       0       0
  5515 ;;      Totals:         3       0       0       0       0       0       0       0       0       0       0       0       
      +0       0       0       0       0       0       0       0       0       0       0       0       0       0       0       
      +0       0       0       0       0       0
  5516 ;;Total ram usage:        3 bytes
  5517 ;; Hardware stack levels used: 1
  5518 ;; Hardware stack levels required when called: 4
  5519 ;; This function calls:
  5520 ;;		Nothing
  5521 ;; This function is called by:
  5522 ;;		_EXT_INT_Initialize
  5523 ;;		_main
  5524 ;; This function uses a non-reentrant model
  5525 ;;
  5526                           
  5527                           	psect	text30
  5528  003A62                     __ptext30:
  5529                           	callstack 0
  5530  003A62                     _INT0_SetInterruptHandler:
  5531                           	callstack 24
  5532  003A62                     
  5533                           ;mcc_generated_files/ext_int.c: 51:     INT0_InterruptHandler = InterruptHandler;
  5534  003A62  C001  F0AC         	movff	INT0_SetInterruptHandler@InterruptHandler,_INT0_InterruptHandler
  5535  003A66  C002  F0AD         	movff	INT0_SetInterruptHandler@InterruptHandler+1,_INT0_InterruptHandler+1
  5536  003A6A  C003  F0AE         	movff	INT0_SetInterruptHandler@InterruptHandler+2,_INT0_InterruptHandler+2
  5537  003A6E  0012               	return		;funcret
  5538  003A70                     __end_of_INT0_SetInterruptHandler:
  5539                           	callstack 0
  5540                           
  5541 ;; *************** function _INTERRUPT_InterruptManager *****************
  5542 ;; Defined at:
  5543 ;;		line 58 in file "mcc_generated_files/interrupt_manager.c"
  5544 ;; Parameters:    Size  Location     Type
  5545 ;;		None
  5546 ;; Auto vars:     Size  Location     Type
  5547 ;;		None
  5548 ;; Return value:  Size  Location     Type
  5549 ;;                  1    wreg      void 
  5550 ;; Registers used:
  5551 ;;		wreg, status,2, status,0, pclath, tosl, cstack
  5552 ;; Tracked objects:
  5553 ;;		On entry : 0/0
  5554 ;;		On exit  : 0/0
  5555 ;;		Unchanged: 0/0
  5556 ;; Data sizes:     COMRAM   BANK0   BANK1   BANK2   BANK3   BANK4   BANK5   BANK6   BANK7   BANK8   BANK9  BANK10  BANK1
      +1  BANK12  BANK13  BANK14  BANK15  BANK16  BANK17  BANK18  BANK19  BANK20  BANK21  BANK22  BANK23  BANK24  BANK25  BANK2
      +6  BANK27  BANK28  BANK29  BANK30  BANK31
  5557 ;;      Params:         0       0       0       0       0       0       0       0       0       0       0       0       
      +0       0       0       0       0       0       0       0       0       0       0       0       0       0       0       
      +0       0       0       0       0       0
  5558 ;;      Locals:         0       0       0       0       0       0       0       0       0       0       0       0       
      +0       0       0       0       0       0       0       0       0       0       0       0       0       0       0       
      +0       0       0       0       0       0
  5559 ;;      Temps:          0       0       0       0       0       0       0       0       0       0       0       0       
      +0       0       0       0       0       0       0       0       0       0       0       0       0       0       0       
      +0       0       0       0       0       0
  5560 ;;      Totals:         0       0       0       0       0       0       0       0       0       0       0       0       
      +0       0       0       0       0       0       0       0       0       0       0       0       0       0       0       
      +0       0       0       0       0       0
  5561 ;;Total ram usage:        0 bytes
  5562 ;; Hardware stack levels used: 1
  5563 ;; Hardware stack levels required when called: 3
  5564 ;; This function calls:
  5565 ;;		_INT0_ISR
  5566 ;;		_SMT1_PR_ACQ_ISR
  5567 ;;		_SMT1_PW_ACQ_ISR
  5568 ;; This function is called by:
  5569 ;;		Interrupt level 2
  5570 ;; This function uses a non-reentrant model
  5571 ;;
  5572                           
  5573                           	psect	text31
  5574  0036D6                     __ptext31:
  5575                           	callstack 0
  5576  0036D6                     _INTERRUPT_InterruptManager:
  5577                           	callstack 18
  5578  0036D6                     
  5579                           ;mcc_generated_files/interrupt_manager.c: 61:     if(PIE1bits.SMT1PWAIE == 1 && PIR1bits
      +                          .SMT1PWAIF == 1)
  5580  0036D6  0139               	movlb	57	; () banked
  5581  0036D8  AF91               	btfss	145,7,b	;volatile
  5582  0036DA  EF71  F01B         	goto	i2u202_41
  5583  0036DE  EF73  F01B         	goto	i2u202_40
  5584  0036E2                     i2u202_41:
  5585  0036E2  EF7E  F01B         	goto	i2l380
  5586  0036E6                     i2u202_40:
  5587  0036E6                     
  5588                           ; BSR set to: 57
  5589  0036E6  AFA1               	btfss	161,7,b	;volatile
  5590  0036E8  EF78  F01B         	goto	i2u203_41
  5591  0036EC  EF7A  F01B         	goto	i2u203_40
  5592  0036F0                     i2u203_41:
  5593  0036F0  EF7E  F01B         	goto	i2l380
  5594  0036F4                     i2u203_40:
  5595  0036F4                     
  5596                           ; BSR set to: 57
  5597                           ;mcc_generated_files/interrupt_manager.c: 62:     {;mcc_generated_files/interrupt_manage
      +                          r.c: 63:         SMT1_PW_ACQ_ISR();
  5598  0036F4  EC46  F01D         	call	_SMT1_PW_ACQ_ISR	;wreg free
  5599                           
  5600                           ;mcc_generated_files/interrupt_manager.c: 64:     }
  5601  0036F8  EFA2  F01B         	goto	i2l386
  5602  0036FC                     i2l380:
  5603                           
  5604                           ; BSR set to: 57
  5605  0036FC  AD91               	btfss	145,6,b	;volatile
  5606  0036FE  EF83  F01B         	goto	i2u204_41
  5607  003702  EF85  F01B         	goto	i2u204_40
  5608  003706                     i2u204_41:
  5609  003706  EF90  F01B         	goto	i2l382
  5610  00370A                     i2u204_40:
  5611  00370A                     
  5612                           ; BSR set to: 57
  5613  00370A  ADA1               	btfss	161,6,b	;volatile
  5614  00370C  EF8A  F01B         	goto	i2u205_41
  5615  003710  EF8C  F01B         	goto	i2u205_40
  5616  003714                     i2u205_41:
  5617  003714  EF90  F01B         	goto	i2l382
  5618  003718                     i2u205_40:
  5619  003718                     
  5620                           ; BSR set to: 57
  5621                           ;mcc_generated_files/interrupt_manager.c: 66:     {;mcc_generated_files/interrupt_manage
      +                          r.c: 67:         SMT1_PR_ACQ_ISR();
  5622  003718  EC49  F01D         	call	_SMT1_PR_ACQ_ISR	;wreg free
  5623                           
  5624                           ;mcc_generated_files/interrupt_manager.c: 68:     }
  5625  00371C  EFA2  F01B         	goto	i2l386
  5626  003720                     i2l382:
  5627                           
  5628                           ; BSR set to: 57
  5629  003720  A191               	btfss	145,0,b	;volatile
  5630  003722  EF95  F01B         	goto	i2u206_41
  5631  003726  EF97  F01B         	goto	i2u206_40
  5632  00372A                     i2u206_41:
  5633  00372A  EFA2  F01B         	goto	i2l383
  5634  00372E                     i2u206_40:
  5635  00372E                     
  5636                           ; BSR set to: 57
  5637  00372E  A1A1               	btfss	161,0,b	;volatile
  5638  003730  EF9C  F01B         	goto	i2u207_41
  5639  003734  EF9E  F01B         	goto	i2u207_40
  5640  003738                     i2u207_41:
  5641  003738  EFA2  F01B         	goto	i2l383
  5642  00373C                     i2u207_40:
  5643  00373C                     
  5644                           ; BSR set to: 57
  5645                           ;mcc_generated_files/interrupt_manager.c: 70:     {;mcc_generated_files/interrupt_manage
      +                          r.c: 71:         INT0_ISR();
  5646  00373C  EC3D  F01D         	call	_INT0_ISR	;wreg free
  5647                           
  5648                           ;mcc_generated_files/interrupt_manager.c: 72:     }
  5649  003740  EFA2  F01B         	goto	i2l386
  5650  003744                     i2l383:
  5651  003744                     i2l386:
  5652  003744  0011               	retfie		f
  5653  003746                     __end_of_INTERRUPT_InterruptManager:
  5654                           	callstack 0
  5655                           
  5656 ;; *************** function _SMT1_PW_ACQ_ISR *****************
  5657 ;; Defined at:
  5658 ;;		line 191 in file "mcc_generated_files/smt1.c"
  5659 ;; Parameters:    Size  Location     Type
  5660 ;;		None
  5661 ;; Auto vars:     Size  Location     Type
  5662 ;;		None
  5663 ;; Return value:  Size  Location     Type
  5664 ;;                  1    wreg      void 
  5665 ;; Registers used:
  5666 ;;		None
  5667 ;; Tracked objects:
  5668 ;;		On entry : 0/0
  5669 ;;		On exit  : 0/0
  5670 ;;		Unchanged: 0/0
  5671 ;; Data sizes:     COMRAM   BANK0   BANK1   BANK2   BANK3   BANK4   BANK5   BANK6   BANK7   BANK8   BANK9  BANK10  BANK1
      +1  BANK12  BANK13  BANK14  BANK15  BANK16  BANK17  BANK18  BANK19  BANK20  BANK21  BANK22  BANK23  BANK24  BANK25  BANK2
      +6  BANK27  BANK28  BANK29  BANK30  BANK31
  5672 ;;      Params:         0       0       0       0       0       0       0       0       0       0       0       0       
      +0       0       0       0       0       0       0       0       0       0       0       0       0       0       0       
      +0       0       0       0       0       0
  5673 ;;      Locals:         0       0       0       0       0       0       0       0       0       0       0       0       
      +0       0       0       0       0       0       0       0       0       0       0       0       0       0       0       
      +0       0       0       0       0       0
  5674 ;;      Temps:          0       0       0       0       0       0       0       0       0       0       0       0       
      +0       0       0       0       0       0       0       0       0       0       0       0       0       0       0       
      +0       0       0       0       0       0
  5675 ;;      Totals:         0       0       0       0       0       0       0       0       0       0       0       0       
      +0       0       0       0       0       0       0       0       0       0       0       0       0       0       0       
      +0       0       0       0       0       0
  5676 ;;Total ram usage:        0 bytes
  5677 ;; Hardware stack levels used: 1
  5678 ;; This function calls:
  5679 ;;		Nothing
  5680 ;; This function is called by:
  5681 ;;		_INTERRUPT_InterruptManager
  5682 ;; This function uses a non-reentrant model
  5683 ;;
  5684                           
  5685                           	psect	text32
  5686  003A8C                     __ptext32:
  5687                           	callstack 0
  5688  003A8C                     _SMT1_PW_ACQ_ISR:
  5689                           	callstack 20
  5690  003A8C                     
  5691                           ;mcc_generated_files/smt1.c: 195:     PIR1bits.SMT1PWAIF = 0;
  5692  003A8C  0139               	movlb	57	; () banked
  5693  003A8E  9FA1               	bcf	161,7,b	;volatile
  5694  003A90                     
  5695                           ; BSR set to: 57
  5696  003A90  0012               	return		;funcret
  5697  003A92                     __end_of_SMT1_PW_ACQ_ISR:
  5698                           	callstack 0
  5699                           
  5700 ;; *************** function _SMT1_PR_ACQ_ISR *****************
  5701 ;; Defined at:
  5702 ;;		line 184 in file "mcc_generated_files/smt1.c"
  5703 ;; Parameters:    Size  Location     Type
  5704 ;;		None
  5705 ;; Auto vars:     Size  Location     Type
  5706 ;;		None
  5707 ;; Return value:  Size  Location     Type
  5708 ;;                  1    wreg      void 
  5709 ;; Registers used:
  5710 ;;		None
  5711 ;; Tracked objects:
  5712 ;;		On entry : 0/0
  5713 ;;		On exit  : 0/0
  5714 ;;		Unchanged: 0/0
  5715 ;; Data sizes:     COMRAM   BANK0   BANK1   BANK2   BANK3   BANK4   BANK5   BANK6   BANK7   BANK8   BANK9  BANK10  BANK1
      +1  BANK12  BANK13  BANK14  BANK15  BANK16  BANK17  BANK18  BANK19  BANK20  BANK21  BANK22  BANK23  BANK24  BANK25  BANK2
      +6  BANK27  BANK28  BANK29  BANK30  BANK31
  5716 ;;      Params:         0       0       0       0       0       0       0       0       0       0       0       0       
      +0       0       0       0       0       0       0       0       0       0       0       0       0       0       0       
      +0       0       0       0       0       0
  5717 ;;      Locals:         0       0       0       0       0       0       0       0       0       0       0       0       
      +0       0       0       0       0       0       0       0       0       0       0       0       0       0       0       
      +0       0       0       0       0       0
  5718 ;;      Temps:          0       0       0       0       0       0       0       0       0       0       0       0       
      +0       0       0       0       0       0       0       0       0       0       0       0       0       0       0       
      +0       0       0       0       0       0
  5719 ;;      Totals:         0       0       0       0       0       0       0       0       0       0       0       0       
      +0       0       0       0       0       0       0       0       0       0       0       0       0       0       0       
      +0       0       0       0       0       0
  5720 ;;Total ram usage:        0 bytes
  5721 ;; Hardware stack levels used: 1
  5722 ;; This function calls:
  5723 ;;		Nothing
  5724 ;; This function is called by:
  5725 ;;		_INTERRUPT_InterruptManager
  5726 ;; This function uses a non-reentrant model
  5727 ;;
  5728                           
  5729                           	psect	text33
  5730  003A92                     __ptext33:
  5731                           	callstack 0
  5732  003A92                     _SMT1_PR_ACQ_ISR:
  5733                           	callstack 20
  5734  003A92                     
  5735                           ;mcc_generated_files/smt1.c: 188:     PIR1bits.SMT1PRAIF = 0;
  5736  003A92  0139               	movlb	57	; () banked
  5737  003A94  9DA1               	bcf	161,6,b	;volatile
  5738  003A96                     
  5739                           ; BSR set to: 57
  5740  003A96  0012               	return		;funcret
  5741  003A98                     __end_of_SMT1_PR_ACQ_ISR:
  5742                           	callstack 0
  5743                           
  5744 ;; *************** function _INT0_ISR *****************
  5745 ;; Defined at:
  5746 ;;		line 32 in file "mcc_generated_files/ext_int.c"
  5747 ;; Parameters:    Size  Location     Type
  5748 ;;		None
  5749 ;; Auto vars:     Size  Location     Type
  5750 ;;		None
  5751 ;; Return value:  Size  Location     Type
  5752 ;;                  1    wreg      void 
  5753 ;; Registers used:
  5754 ;;		wreg, status,2, status,0, pclath, tosl, cstack
  5755 ;; Tracked objects:
  5756 ;;		On entry : 0/0
  5757 ;;		On exit  : 0/0
  5758 ;;		Unchanged: 0/0
  5759 ;; Data sizes:     COMRAM   BANK0   BANK1   BANK2   BANK3   BANK4   BANK5   BANK6   BANK7   BANK8   BANK9  BANK10  BANK1
      +1  BANK12  BANK13  BANK14  BANK15  BANK16  BANK17  BANK18  BANK19  BANK20  BANK21  BANK22  BANK23  BANK24  BANK25  BANK2
      +6  BANK27  BANK28  BANK29  BANK30  BANK31
  5760 ;;      Params:         0       0       0       0       0       0       0       0       0       0       0       0       
      +0       0       0       0       0       0       0       0       0       0       0       0       0       0       0       
      +0       0       0       0       0       0
  5761 ;;      Locals:         0       0       0       0       0       0       0       0       0       0       0       0       
      +0       0       0       0       0       0       0       0       0       0       0       0       0       0       0       
      +0       0       0       0       0       0
  5762 ;;      Temps:          0       0       0       0       0       0       0       0       0       0       0       0       
      +0       0       0       0       0       0       0       0       0       0       0       0       0       0       0       
      +0       0       0       0       0       0
  5763 ;;      Totals:         0       0       0       0       0       0       0       0       0       0       0       0       
      +0       0       0       0       0       0       0       0       0       0       0       0       0       0       0       
      +0       0       0       0       0       0
  5764 ;;Total ram usage:        0 bytes
  5765 ;; Hardware stack levels used: 1
  5766 ;; Hardware stack levels required when called: 2
  5767 ;; This function calls:
  5768 ;;		_INT0_CallBack
  5769 ;; This function is called by:
  5770 ;;		_INTERRUPT_InterruptManager
  5771 ;; This function uses a non-reentrant model
  5772 ;;
  5773                           
  5774                           	psect	text34
  5775  003A7A                     __ptext34:
  5776                           	callstack 0
  5777  003A7A                     _INT0_ISR:
  5778                           	callstack 18
  5779  003A7A                     
  5780                           ;mcc_generated_files/ext_int.c: 34:     (PIR1bits.INT0IF = 0);
  5781  003A7A  0139               	movlb	57	; () banked
  5782  003A7C  91A1               	bcf	161,0,b	;volatile
  5783  003A7E                     
  5784                           ; BSR set to: 57
  5785                           ;mcc_generated_files/ext_int.c: 37:     INT0_CallBack();
  5786  003A7E  EC71  F01C         	call	_INT0_CallBack	;wreg free
  5787  003A82  0012               	return		;funcret
  5788  003A84                     __end_of_INT0_ISR:
  5789                           	callstack 0
  5790                           
  5791 ;; *************** function _INT0_CallBack *****************
  5792 ;; Defined at:
  5793 ;;		line 41 in file "mcc_generated_files/ext_int.c"
  5794 ;; Parameters:    Size  Location     Type
  5795 ;;		None
  5796 ;; Auto vars:     Size  Location     Type
  5797 ;;		None
  5798 ;; Return value:  Size  Location     Type
  5799 ;;                  1    wreg      void 
  5800 ;; Registers used:
  5801 ;;		wreg, status,2, status,0, pclath, tosl, cstack
  5802 ;; Tracked objects:
  5803 ;;		On entry : 0/0
  5804 ;;		On exit  : 0/0
  5805 ;;		Unchanged: 0/0
  5806 ;; Data sizes:     COMRAM   BANK0   BANK1   BANK2   BANK3   BANK4   BANK5   BANK6   BANK7   BANK8   BANK9  BANK10  BANK1
      +1  BANK12  BANK13  BANK14  BANK15  BANK16  BANK17  BANK18  BANK19  BANK20  BANK21  BANK22  BANK23  BANK24  BANK25  BANK2
      +6  BANK27  BANK28  BANK29  BANK30  BANK31
  5807 ;;      Params:         0       0       0       0       0       0       0       0       0       0       0       0       
      +0       0       0       0       0       0       0       0       0       0       0       0       0       0       0       
      +0       0       0       0       0       0
  5808 ;;      Locals:         0       0       0       0       0       0       0       0       0       0       0       0       
      +0       0       0       0       0       0       0       0       0       0       0       0       0       0       0       
      +0       0       0       0       0       0
  5809 ;;      Temps:          0       0       0       0       0       0       0       0       0       0       0       0       
      +0       0       0       0       0       0       0       0       0       0       0       0       0       0       0       
      +0       0       0       0       0       0
  5810 ;;      Totals:         0       0       0       0       0       0       0       0       0       0       0       0       
      +0       0       0       0       0       0       0       0       0       0       0       0       0       0       0       
      +0       0       0       0       0       0
  5811 ;;Total ram usage:        0 bytes
  5812 ;; Hardware stack levels used: 1
  5813 ;; Hardware stack levels required when called: 1
  5814 ;; This function calls:
  5815 ;;		Absolute function
  5816 ;;		_INT0_DefaultInterruptHandler
  5817 ;;		_counterHall_callback
  5818 ;; This function is called by:
  5819 ;;		_INT0_ISR
  5820 ;; This function uses a non-reentrant model
  5821 ;;
  5822                           
  5823                           	psect	text35
  5824  0038E2                     __ptext35:
  5825                           	callstack 0
  5826  0038E2                     _INT0_CallBack:
  5827                           	callstack 18
  5828  0038E2                     
  5829                           ;mcc_generated_files/ext_int.c: 44:     if(INT0_InterruptHandler)
  5830  0038E2  0100               	movlb	0	; () banked
  5831  0038E4  51AC               	movf	_INT0_InterruptHandler& (0+255),w,b
  5832  0038E6  11AD               	iorwf	(_INT0_InterruptHandler+1)& (0+255),w,b
  5833  0038E8  11AE               	iorwf	(_INT0_InterruptHandler+2)& (0+255),w,b
  5834  0038EA  B4D8               	btfsc	status,2,c
  5835  0038EC  EF7A  F01C         	goto	i2u156_41
  5836  0038F0  EF7C  F01C         	goto	i2u156_40
  5837  0038F4                     i2u156_41:
  5838  0038F4  EF89  F01C         	goto	i2l470
  5839  0038F8                     i2u156_40:
  5840  0038F8                     
  5841                           ; BSR set to: 0
  5842                           ;mcc_generated_files/ext_int.c: 45:     {;mcc_generated_files/ext_int.c: 46:         INT
      +                          0_InterruptHandler();
  5843  0038F8  D802               	call	i2u157_48
  5844  0038FA  EF89  F01C         	goto	i2u157_49
  5845  0038FE                     i2u157_48:
  5846  0038FE  0005               	push	
  5847  003900  6EFA               	movwf	pclath,c
  5848  003902  51AC               	movf	_INT0_InterruptHandler& (0+255),w,b
  5849  003904  6EFD               	movwf	tosl,c
  5850  003906  51AD               	movf	(_INT0_InterruptHandler+1)& (0+255),w,b
  5851  003908  6EFE               	movwf	tosh,c
  5852  00390A  51AE               	movf	(_INT0_InterruptHandler+2)& (0+255),w,b
  5853  00390C  6EFF               	movwf	tosu,c
  5854  00390E  50FA               	movf	pclath,w,c
  5855  003910  0012               	return		;indir
  5856  003912                     i2u157_49:
  5857  003912                     i2l470:
  5858  003912  0012               	return		;funcret
  5859  003914                     __end_of_INT0_CallBack:
  5860                           	callstack 0
  5861                           
  5862 ;; *************** function _INT0_DefaultInterruptHandler *****************
  5863 ;; Defined at:
  5864 ;;		line 54 in file "mcc_generated_files/ext_int.c"
  5865 ;; Parameters:    Size  Location     Type
  5866 ;;		None
  5867 ;; Auto vars:     Size  Location     Type
  5868 ;;		None
  5869 ;; Return value:  Size  Location     Type
  5870 ;;                  1    wreg      void 
  5871 ;; Registers used:
  5872 ;;		None
  5873 ;; Tracked objects:
  5874 ;;		On entry : 0/0
  5875 ;;		On exit  : 0/0
  5876 ;;		Unchanged: 0/0
  5877 ;; Data sizes:     COMRAM   BANK0   BANK1   BANK2   BANK3   BANK4   BANK5   BANK6   BANK7   BANK8   BANK9  BANK10  BANK1
      +1  BANK12  BANK13  BANK14  BANK15  BANK16  BANK17  BANK18  BANK19  BANK20  BANK21  BANK22  BANK23  BANK24  BANK25  BANK2
      +6  BANK27  BANK28  BANK29  BANK30  BANK31
  5878 ;;      Params:         0       0       0       0       0       0       0       0       0       0       0       0       
      +0       0       0       0       0       0       0       0       0       0       0       0       0       0       0       
      +0       0       0       0       0       0
  5879 ;;      Locals:         0       0       0       0       0       0       0       0       0       0       0       0       
      +0       0       0       0       0       0       0       0       0       0       0       0       0       0       0       
      +0       0       0       0       0       0
  5880 ;;      Temps:          0       0       0       0       0       0       0       0       0       0       0       0       
      +0       0       0       0       0       0       0       0       0       0       0       0       0       0       0       
      +0       0       0       0       0       0
  5881 ;;      Totals:         0       0       0       0       0       0       0       0       0       0       0       0       
      +0       0       0       0       0       0       0       0       0       0       0       0       0       0       0       
      +0       0       0       0       0       0
  5882 ;;Total ram usage:        0 bytes
  5883 ;; Hardware stack levels used: 1
  5884 ;; This function calls:
  5885 ;;		Nothing
  5886 ;; This function is called by:
  5887 ;;		_EXT_INT_Initialize
  5888 ;;		_INT0_CallBack
  5889 ;; This function uses a non-reentrant model
  5890 ;;
  5891                           
  5892                           	psect	text36
  5893  003A9C                     __ptext36:
  5894                           	callstack 0
  5895  003A9C                     _INT0_DefaultInterruptHandler:
  5896                           	callstack 18
  5897  003A9C  0012               	return		;funcret
  5898  003A9E                     __end_of_INT0_DefaultInterruptHandler:
  5899                           	callstack 0
  5900                           
  5901 ;; *************** function _counterHall_callback *****************
  5902 ;; Defined at:
  5903 ;;		line 108 in file "main.c"
  5904 ;; Parameters:    Size  Location     Type
  5905 ;;		None
  5906 ;; Auto vars:     Size  Location     Type
  5907 ;;		None
  5908 ;; Return value:  Size  Location     Type
  5909 ;;                  1    wreg      void 
  5910 ;; Registers used:
  5911 ;;		wreg, status,2, status,0
  5912 ;; Tracked objects:
  5913 ;;		On entry : 0/0
  5914 ;;		On exit  : 0/0
  5915 ;;		Unchanged: 0/0
  5916 ;; Data sizes:     COMRAM   BANK0   BANK1   BANK2   BANK3   BANK4   BANK5   BANK6   BANK7   BANK8   BANK9  BANK10  BANK1
      +1  BANK12  BANK13  BANK14  BANK15  BANK16  BANK17  BANK18  BANK19  BANK20  BANK21  BANK22  BANK23  BANK24  BANK25  BANK2
      +6  BANK27  BANK28  BANK29  BANK30  BANK31
  5917 ;;      Params:         0       0       0       0       0       0       0       0       0       0       0       0       
      +0       0       0       0       0       0       0       0       0       0       0       0       0       0       0       
      +0       0       0       0       0       0
  5918 ;;      Locals:         0       0       0       0       0       0       0       0       0       0       0       0       
      +0       0       0       0       0       0       0       0       0       0       0       0       0       0       0       
      +0       0       0       0       0       0
  5919 ;;      Temps:          0       0       0       0       0       0       0       0       0       0       0       0       
      +0       0       0       0       0       0       0       0       0       0       0       0       0       0       0       
      +0       0       0       0       0       0
  5920 ;;      Totals:         0       0       0       0       0       0       0       0       0       0       0       0       
      +0       0       0       0       0       0       0       0       0       0       0       0       0       0       0       
      +0       0       0       0       0       0
  5921 ;;Total ram usage:        0 bytes
  5922 ;; Hardware stack levels used: 1
  5923 ;; This function calls:
  5924 ;;		Nothing
  5925 ;; This function is called by:
  5926 ;;		_main
  5927 ;;		_INT0_CallBack
  5928 ;; This function uses a non-reentrant model
  5929 ;;
  5930                           
  5931                           	psect	text37
  5932  003914                     __ptext37:
  5933                           	callstack 0
  5934  003914                     _counterHall_callback:
  5935                           	callstack 18
  5936  003914                     
  5937                           ;main.c: 110:     if (reverse > 0) {
  5938  003914  0100               	movlb	0	; () banked
  5939  003916  BFBF               	btfsc	(_reverse+1)& (0+255),7,b
  5940  003918  EF96  F01C         	goto	i2u151_41
  5941  00391C  51BF               	movf	(_reverse+1)& (0+255),w,b
  5942  00391E  E108               	bnz	i2u151_40
  5943  003920  05BE               	decf	_reverse& (0+255),w,b
  5944  003922  A0D8               	btfss	status,0,c
  5945  003924  EF96  F01C         	goto	i2u151_41
  5946  003928  EF98  F01C         	goto	i2u151_40
  5947  00392C                     i2u151_41:
  5948  00392C  EF9C  F01C         	goto	i2l2811
  5949  003930                     i2u151_40:
  5950  003930                     
  5951                           ; BSR set to: 0
  5952                           ;main.c: 111:         ++count;
  5953  003930  4B74               	infsnz	_count& (0+255),f,b
  5954  003932  2B75               	incf	(_count+1)& (0+255),f,b
  5955                           
  5956                           ;main.c: 112:     } else {
  5957  003934  EF9F  F01C         	goto	i2l593
  5958  003938                     i2l2811:
  5959                           
  5960                           ; BSR set to: 0
  5961                           ;main.c: 113:         --count;
  5962  003938  0774               	decf	_count& (0+255),f,b
  5963  00393A  A0D8               	btfss	status,0,c
  5964  00393C  0775               	decf	(_count+1)& (0+255),f,b
  5965  00393E                     i2l593:
  5966                           
  5967                           ; BSR set to: 0
  5968  00393E  0012               	return		;funcret
  5969  003940                     __end_of_counterHall_callback:
  5970                           	callstack 0
  5971                           
  5972                           ;
  5973                           ; Interrupt Vector Table @ 0x8
  5974                           ;
  5975                           
  5976                           	psect	ivt0x8
  5977  000008                     __pivt0x8:
  5978                           	callstack 0
  5979  000008                     ivt0x8_base:
  5980                           	callstack 0
  5981                           
  5982                           ; high-priority vector
  5983  000008  EF6B  F01B         	goto	_INTERRUPT_InterruptManager
  5984  000018                     	org	16
  5985                           
  5986                           ; low-priority vector
  5987  000018  00FF               	reset	
  5988                           
  5989                           	psect	text38
  5990  000000                     __ptext38:
  5991                           	callstack 0
  5992  000000                     
  5993                           	psect	rparam
  5994  0000                     
  5995                           	psect	idloc
  5996                           
  5997                           ;Config register IDLOC0 @ 0x200000
  5998                           ;	unspecified, using default values
  5999  200000                     	org	2097152
  6000  200000  0FFF               	dw	4095
  6001                           
  6002                           ;Config register IDLOC1 @ 0x200002
  6003                           ;	unspecified, using default values
  6004  200002                     	org	2097154
  6005  200002  0FFF               	dw	4095
  6006                           
  6007                           ;Config register IDLOC2 @ 0x200004
  6008                           ;	unspecified, using default values
  6009  200004                     	org	2097156
  6010  200004  0FFF               	dw	4095
  6011                           
  6012                           ;Config register IDLOC3 @ 0x200006
  6013                           ;	unspecified, using default values
  6014  200006                     	org	2097158
  6015  200006  0FFF               	dw	4095
  6016                           
  6017                           ;Config register IDLOC4 @ 0x200008
  6018                           ;	unspecified, using default values
  6019  200008                     	org	2097160
  6020  200008  0FFF               	dw	4095
  6021                           
  6022                           ;Config register IDLOC5 @ 0x20000A
  6023                           ;	unspecified, using default values
  6024  20000A                     	org	2097162
  6025  20000A  0FFF               	dw	4095
  6026                           
  6027                           ;Config register IDLOC6 @ 0x20000C
  6028                           ;	unspecified, using default values
  6029  20000C                     	org	2097164
  6030  20000C  0FFF               	dw	4095
  6031                           
  6032                           ;Config register IDLOC7 @ 0x20000E
  6033                           ;	unspecified, using default values
  6034  20000E                     	org	2097166
  6035  20000E  0FFF               	dw	4095
  6036                           
  6037                           	psect	config
  6038                           
  6039                           ;Config register CONFIG1L @ 0x300000
  6040                           ;	External Oscillator Selection
  6041                           ;	FEXTOSC = OFF, Oscillator not enabled
  6042                           ;	Reset Oscillator Selection
  6043                           ;	RSTOSC = HFINTOSC_1MHZ, HFINTOSC with HFFRQ = 4 MHz and CDIV = 4:1
  6044  300000                     	org	3145728
  6045  300000  EC                 	db	236
  6046                           
  6047                           ;Config register CONFIG1H @ 0x300001
  6048                           ;	Clock out Enable bit
  6049                           ;	CLKOUTEN = OFF, CLKOUT function is disabled
  6050                           ;	PRLOCKED One-Way Set Enable bit
  6051                           ;	PR1WAY = ON, PRLOCK bit can be cleared and set only once
  6052                           ;	Clock Switch Enable bit
  6053                           ;	CSWEN = ON, Writing to NOSC and NDIV is allowed
  6054                           ;	Fail-Safe Clock Monitor Enable bit
  6055                           ;	FCMEN = ON, Fail-Safe Clock Monitor enabled
  6056  300001                     	org	3145729
  6057  300001  FF                 	db	255
  6058                           
  6059                           ;Config register CONFIG2L @ 0x300002
  6060                           ;	MCLR Enable bit
  6061                           ;	MCLRE = EXTMCLR, If LVP = 0, MCLR pin is MCLR; If LVP = 1, RE3 pin function is MCLR
  6062                           ;	Power-up timer selection bits
  6063                           ;	PWRTS = PWRT_OFF, PWRT is disabled
  6064                           ;	Multi-vector enable bit
  6065                           ;	MVECEN = OFF, Interrupt contoller does not use vector table to prioritze interrupts
  6066                           ;	IVTLOCK bit One-way set enable bit
  6067                           ;	IVT1WAY = ON, IVTLOCK bit can be cleared and set only once
  6068                           ;	Low Power BOR Enable bit
  6069                           ;	LPBOREN = OFF, ULPBOR disabled
  6070                           ;	Brown-out Reset Enable bits
  6071                           ;	BOREN = SBORDIS, Brown-out Reset enabled , SBOREN bit is ignored
  6072  300002                     	org	3145730
  6073  300002  F7                 	db	247
  6074                           
  6075                           ;Config register CONFIG2H @ 0x300003
  6076                           ;	Brown-out Reset Voltage Selection bits
  6077                           ;	BORV = VBOR_2P45, Brown-out Reset Voltage (VBOR) set to 2.45V
  6078                           ;	ZCD Disable bit
  6079                           ;	ZCD = OFF, ZCD disabled. ZCD can be enabled by setting the ZCDSEN bit of ZCDCON
  6080                           ;	PPSLOCK bit One-Way Set Enable bit
  6081                           ;	PPS1WAY = ON, PPSLOCK bit can be cleared and set only once; PPS registers remain locke
      +                          d after one clear/set cycle
  6082                           ;	Stack Full/Underflow Reset Enable bit
  6083                           ;	STVREN = ON, Stack full/underflow will cause Reset
  6084                           ;	Debugger Enable bit
  6085                           ;	DEBUG = OFF, Background debugger disabled
  6086                           ;	Extended Instruction Set Enable bit
  6087                           ;	XINST = OFF, Extended Instruction Set and Indexed Addressing Mode disabled
  6088  300003                     	org	3145731
  6089  300003  FF                 	db	255
  6090                           
  6091                           ;Config register CONFIG3L @ 0x300004
  6092                           ;	WDT Period selection bits
  6093                           ;	WDTCPS = WDTCPS_31, Divider ratio 1:65536; software control of WDTPS
  6094                           ;	WDT operating mode
  6095                           ;	WDTE = OFF, WDT Disabled; SWDTEN is ignored
  6096  300004                     	org	3145732
  6097  300004  9F                 	db	159
  6098                           
  6099                           ;Config register CONFIG3H @ 0x300005
  6100                           ;	WDT Window Select bits
  6101                           ;	WDTCWS = WDTCWS_7, window always open (100%); software control; keyed access not requi
      +                          red
  6102                           ;	WDT input clock selector
  6103                           ;	WDTCCS = SC, Software Control
  6104  300005                     	org	3145733
  6105  300005  FF                 	db	255
  6106                           
  6107                           ;Config register CONFIG4L @ 0x300006
  6108                           ;	Boot Block Size selection bits
  6109                           ;	BBSIZE = BBSIZE_512, Boot Block size is 512 words
  6110                           ;	Boot Block enable bit
  6111                           ;	BBEN = OFF, Boot block disabled
  6112                           ;	Storage Area Flash enable bit
  6113                           ;	SAFEN = OFF, SAF disabled
  6114                           ;	Application Block write protection bit
  6115                           ;	WRTAPP = OFF, Application Block not write protected
  6116  300006                     	org	3145734
  6117  300006  FF                 	db	255
  6118                           
  6119                           ;Config register CONFIG4H @ 0x300007
  6120                           ;	Configuration Register Write Protection bit
  6121                           ;	WRTB = OFF, Configuration registers (300000-30000Bh) not write-protected
  6122                           ;	Boot Block Write Protection bit
  6123                           ;	WRTC = OFF, Boot Block (000000-0007FFh) not write-protected
  6124                           ;	Data EEPROM Write Protection bit
  6125                           ;	WRTD = OFF, Data EEPROM not write-protected
  6126                           ;	SAF Write protection bit
  6127                           ;	WRTSAF = OFF, SAF not Write Protected
  6128                           ;	Low Voltage Programming Enable bit
  6129                           ;	LVP = ON, Low voltage programming enabled. MCLR/VPP pin function is MCLR. MCLRE config
      +                          uration bit is ignored
  6130  300007                     	org	3145735
  6131  300007  FF                 	db	255
  6132                           
  6133                           ;Config register CONFIG5L @ 0x300008
  6134                           ;	PFM and Data EEPROM Code Protection bit
  6135                           ;	CP = OFF, PFM and Data EEPROM code protection disabled
  6136  300008                     	org	3145736
  6137  300008  FF                 	db	255
  6138                           
  6139                           ;Config register CONFIG5H @ 0x300009
  6140                           ;	unspecified, using default values
  6141  300009                     	org	3145737
  6142  300009  FF                 	db	255
  6143                           tosu	equ	0x3FFF
  6144                           tosh	equ	0x3FFE
  6145                           tosl	equ	0x3FFD
  6146                           stkptr	equ	0x3FFC
  6147                           pclatu	equ	0x3FFB
  6148                           pclath	equ	0x3FFA
  6149                           pcl	equ	0x3FF9
  6150                           tblptru	equ	0x3FF8
  6151                           tblptrh	equ	0x3FF7
  6152                           tblptrl	equ	0x3FF6
  6153                           tablat	equ	0x3FF5
  6154                           prodh	equ	0x3FF4
  6155                           prodl	equ	0x3FF3
  6156                           indf0	equ	0x3FEF
  6157                           postinc0	equ	0x3FEE
  6158                           postdec0	equ	0x3FED
  6159                           preinc0	equ	0x3FEC
  6160                           plusw0	equ	0x3FEB
  6161                           fsr0h	equ	0x3FEA
  6162                           fsr0l	equ	0x3FE9
  6163                           wreg	equ	0x3FE8
  6164                           indf1	equ	0x3FE7
  6165                           postinc1	equ	0x3FE6
  6166                           postdec1	equ	0x3FE5
  6167                           preinc1	equ	0x3FE4
  6168                           plusw1	equ	0x3FE3
  6169                           fsr1h	equ	0x3FE2
  6170                           fsr1l	equ	0x3FE1
  6171                           bsr	equ	0x3FE0
  6172                           indf2	equ	0x3FDF
  6173                           postinc2	equ	0x3FDE
  6174                           postdec2	equ	0x3FDD
  6175                           preinc2	equ	0x3FDC
  6176                           plusw2	equ	0x3FDB
  6177                           fsr2h	equ	0x3FDA
  6178                           fsr2l	equ	0x3FD9
  6179                           status	equ	0x3FD8

Data Sizes:
    Strings     183
    Constant    0
    Data        8
    BSS         63
    Persistent  12
    Stack       0

Auto Spaces:
    Space          Size  Autos    Used
    COMRAM           95     94      95
    BANK0           160     14      96
    BANK1           256      0       0
    BANK2           256      0       0
    BANK3           256      0       0
    BANK4           256      0       0
    BANK5           256      0       0
    BANK6           256      0       0
    BANK7           256      0       0
    BANK8           256      0       0
    BANK9           256      0       0
    BANK10          256      0       0
    BANK11          256      0       0
    BANK12          256      0       0
    BANK13          256      0       0
    BANK14          256      0       0
    BANK15          256      0       0
    BANK16          256      0       0
    BANK17          256      0       0
    BANK18          256      0       0
    BANK19          256      0       0
    BANK20          256      0       0
    BANK21          256      0       0
    BANK22          256      0       0
    BANK23          256      0       0
    BANK24          256      0       0
    BANK25          256      0       0
    BANK26          256      0       0
    BANK27          256      0       0
    BANK28          256      0       0
    BANK29          256      0       0
    BANK30          256      0       0
    BANK31          256      0       0

Pointer List with Targets:

    strlen@s	PTR const unsigned char  size(2) Largest target is 32
		 -> dbuf(BANK0[32]), 

    strlen@a	PTR const unsigned char  size(2) Largest target is 32
		 -> dbuf(BANK0[32]), 

    fputs@s	PTR const unsigned char  size(2) Largest target is 32
		 -> dbuf(BANK0[32]), 

    fputs@fp	PTR struct _IO_FILE size(2) Largest target is 0
		 -> NULL(NULL[0]), 

    S1920_IO_FILE$buffer	PTR unsigned char  size(2) Largest target is 0

    fputc@fp.buffer	PTR unsigned char  size(2) Largest target is 0

    fputc@fp	PTR struct _IO_FILE size(2) Largest target is 0
		 -> NULL(NULL[0]), 

    vfprintf@ap	PTR PTR void  size(2) Largest target is 2
		 -> printf@ap(COMRAM[2]), 

    vfprintf@fp	PTR struct _IO_FILE size(2) Largest target is 0
		 -> NULL(NULL[0]), 

    vfprintf@fmt	PTR const unsigned char  size(2) Largest target is 70
		 -> STR_4(CODE[70]), STR_3(CODE[51]), STR_2(CODE[62]), STR_1(CODE[4]), 

    vfprintf@cfmt	PTR unsigned char  size(2) Largest target is 70
		 -> STR_4(CODE[70]), STR_3(CODE[51]), STR_2(CODE[62]), STR_1(CODE[4]), 

    vfpfcnvrt@fp	PTR struct _IO_FILE size(2) Largest target is 0
		 -> NULL(NULL[0]), 

    vfpfcnvrt@ap	PTR PTR void  size(2) Largest target is 2
		 -> printf@ap(COMRAM[2]), 

    vfpfcnvrt@fmt	PTR PTR unsigned char  size(2) Largest target is 2
		 -> vfprintf@cfmt(COMRAM[2]), 

    dtoa@fp	PTR struct _IO_FILE size(2) Largest target is 0
		 -> NULL(NULL[0]), 

    pad@fp	PTR struct _IO_FILE size(2) Largest target is 0
		 -> NULL(NULL[0]), 

    pad@buf	PTR unsigned char  size(2) Largest target is 32
		 -> dbuf(BANK0[32]), 

    printf@fmt	PTR const unsigned char  size(2) Largest target is 70
		 -> STR_4(CODE[70]), STR_3(CODE[51]), STR_2(CODE[62]), STR_1(CODE[4]), 

    printf@ap	PTR void [1] size(2) Largest target is 2
		 -> ?_printf(BANK0[2]), 

    INT0_SetInterruptHandler@InterruptHandler	PTR FTN()void  size(3) Largest target is 1
		 -> counterHall_callback(), INT0_DefaultInterruptHandler(), 

    INT0_InterruptHandler	PTR FTN()void  size(3) Largest target is 1
		 -> counterHall_callback(), INT0_DefaultInterruptHandler(), Absolute function(), 

    UART1_SetErrorHandler@interruptHandler	PTR FTN()void  size(3) Largest target is 1
		 -> UART1_DefaultErrorHandler(), 

    UART1_SetOverrunErrorHandler@interruptHandler	PTR FTN()void  size(3) Largest target is 1
		 -> UART1_DefaultOverrunErrorHandler(), 

    UART1_SetFramingErrorHandler@interruptHandler	PTR FTN()void  size(3) Largest target is 1
		 -> UART1_DefaultFramingErrorHandler(), 

    UART1_ErrorHandler	PTR FTN()void  size(3) Largest target is 1
		 -> Absolute function(), UART1_DefaultErrorHandler(), 

    UART1_OverrunErrorHandler	PTR FTN()void  size(3) Largest target is 1
		 -> Absolute function(), UART1_DefaultOverrunErrorHandler(), 

    UART1_FramingErrorHandler	PTR FTN()void  size(3) Largest target is 1
		 -> Absolute function(), UART1_DefaultFramingErrorHandler(), 


Critical Paths under _main in COMRAM

    _main->_printf
    _printf->_vfprintf
    _vfprintf->_vfpfcnvrt
    _vfpfcnvrt->_dtoa
    _dtoa->_pad
    _pad->_fputs
    _fputs->_fputc
    _fputc->_putch
    _putch->_UART1_Write
    _abs->___aomod
    ___fltol->___flmul
    ___flmul->___xxtofl
    _UART1_Initialize->_UART1_SetErrorHandler
    _UART1_Initialize->_UART1_SetFramingErrorHandler
    _UART1_Initialize->_UART1_SetOverrunErrorHandler
    _EXT_INT_Initialize->_INT0_SetInterruptHandler

Critical Paths under _INTERRUPT_InterruptManager in COMRAM

    None.

Critical Paths under _main in BANK0

    _main->_printf

Critical Paths under _INTERRUPT_InterruptManager in BANK0

    None.

Critical Paths under _main in BANK1

    None.

Critical Paths under _INTERRUPT_InterruptManager in BANK1

    None.

Critical Paths under _main in BANK2

    None.

Critical Paths under _INTERRUPT_InterruptManager in BANK2

    None.

Critical Paths under _main in BANK3

    None.

Critical Paths under _INTERRUPT_InterruptManager in BANK3

    None.

Critical Paths under _main in BANK4

    None.

Critical Paths under _INTERRUPT_InterruptManager in BANK4

    None.

Critical Paths under _main in BANK5

    None.

Critical Paths under _INTERRUPT_InterruptManager in BANK5

    None.

Critical Paths under _main in BANK6

    None.

Critical Paths under _INTERRUPT_InterruptManager in BANK6

    None.

Critical Paths under _main in BANK7

    None.

Critical Paths under _INTERRUPT_InterruptManager in BANK7

    None.

Critical Paths under _main in BANK8

    None.

Critical Paths under _INTERRUPT_InterruptManager in BANK8

    None.

Critical Paths under _main in BANK9

    None.

Critical Paths under _INTERRUPT_InterruptManager in BANK9

    None.

Critical Paths under _main in BANK10

    None.

Critical Paths under _INTERRUPT_InterruptManager in BANK10

    None.

Critical Paths under _main in BANK11

    None.

Critical Paths under _INTERRUPT_InterruptManager in BANK11

    None.

Critical Paths under _main in BANK12

    None.

Critical Paths under _INTERRUPT_InterruptManager in BANK12

    None.

Critical Paths under _main in BANK13

    None.

Critical Paths under _INTERRUPT_InterruptManager in BANK13

    None.

Critical Paths under _main in BANK14

    None.

Critical Paths under _INTERRUPT_InterruptManager in BANK14

    None.

Critical Paths under _main in BANK15

    None.

Critical Paths under _INTERRUPT_InterruptManager in BANK15

    None.

Critical Paths under _main in BANK16

    None.

Critical Paths under _INTERRUPT_InterruptManager in BANK16

    None.

Critical Paths under _main in BANK17

    None.

Critical Paths under _INTERRUPT_InterruptManager in BANK17

    None.

Critical Paths under _main in BANK18

    None.

Critical Paths under _INTERRUPT_InterruptManager in BANK18

    None.

Critical Paths under _main in BANK19

    None.

Critical Paths under _INTERRUPT_InterruptManager in BANK19

    None.

Critical Paths under _main in BANK20

    None.

Critical Paths under _INTERRUPT_InterruptManager in BANK20

    None.

Critical Paths under _main in BANK21

    None.

Critical Paths under _INTERRUPT_InterruptManager in BANK21

    None.

Critical Paths under _main in BANK22

    None.

Critical Paths under _INTERRUPT_InterruptManager in BANK22

    None.

Critical Paths under _main in BANK23

    None.

Critical Paths under _INTERRUPT_InterruptManager in BANK23

    None.

Critical Paths under _main in BANK24

    None.

Critical Paths under _INTERRUPT_InterruptManager in BANK24

    None.

Critical Paths under _main in BANK25

    None.

Critical Paths under _INTERRUPT_InterruptManager in BANK25

    None.

Critical Paths under _main in BANK26

    None.

Critical Paths under _INTERRUPT_InterruptManager in BANK26

    None.

Critical Paths under _main in BANK27

    None.

Critical Paths under _INTERRUPT_InterruptManager in BANK27

    None.

Critical Paths under _main in BANK28

    None.

Critical Paths under _INTERRUPT_InterruptManager in BANK28

    None.

Critical Paths under _main in BANK29

    None.

Critical Paths under _INTERRUPT_InterruptManager in BANK29

    None.

Critical Paths under _main in BANK30

    None.

Critical Paths under _INTERRUPT_InterruptManager in BANK30

    None.

Critical Paths under _main in BANK31

    None.

Critical Paths under _INTERRUPT_InterruptManager in BANK31

    None.

Call Graph Tables:

 ---------------------------------------------------------------------------------
 (Depth) Function   	        Calls       Base Space   Used Autos Params    Refs
 ---------------------------------------------------------------------------------
 (0) _main                                                 7     7      0    9882
                                             91 COMRAM     3     3      0
                                             10 BANK0      4     4      0
           _INT0_SetInterruptHandler
                  _SYSTEM_Initialize
                            ___flmul
                            ___fltol
                           ___xxtofl
                             _printf
 ---------------------------------------------------------------------------------
 (1) _printf                                              14     4     10    6397
                                             89 COMRAM     2     2      0
                                              0 BANK0     10     0     10
                           _vfprintf
 ---------------------------------------------------------------------------------
 (2) _vfprintf                                             8     2      6    6039
                                             81 COMRAM     8     2      6
                          _vfpfcnvrt
 ---------------------------------------------------------------------------------
 (3) _vfpfcnvrt                                           42    36      6    5685
                                             65 COMRAM    16    10      6
                               _dtoa
                              _fputc
 ---------------------------------------------------------------------------------
 (4) _dtoa                                                36    26     10    4314
                                             29 COMRAM    36    26     10
                            ___aodiv
                            ___aomod
                                _abs
                                _pad
 ---------------------------------------------------------------------------------
 (5) _pad                                                 11     5      6    2665
                                             18 COMRAM    11     5      6
                              _fputc
                              _fputs
                             _strlen
 ---------------------------------------------------------------------------------
 (6) _strlen                                               4     2      2     166
                                              0 COMRAM     4     2      2
 ---------------------------------------------------------------------------------
 (6) _fputs                                                7     3      4    1213
                                             11 COMRAM     7     3      4
                              _fputc
 ---------------------------------------------------------------------------------
 (4) _fputc                                                9     5      4     812
                                              2 COMRAM     9     5      4
                              _putch
 ---------------------------------------------------------------------------------
 (5) _putch                                                1     1      0      44
                                              1 COMRAM     1     1      0
                        _UART1_Write
 ---------------------------------------------------------------------------------
 (6) _UART1_Write                                          1     1      0      22
                                              0 COMRAM     1     1      0
 ---------------------------------------------------------------------------------
 (5) _abs                                                  4     2      2     142
                                             18 COMRAM     4     2      2
                            ___aomod (ARG)
 ---------------------------------------------------------------------------------
 (5) ___aomod                                             18     2     16     448
                                              0 COMRAM    18     2     16
 ---------------------------------------------------------------------------------
 (5) ___aodiv                                             26    10     16     452
                                              0 COMRAM    26    10     16
 ---------------------------------------------------------------------------------
 (1) ___xxtofl                                            14    10      4     474
                                              0 COMRAM    14    10      4
 ---------------------------------------------------------------------------------
 (1) ___fltol                                             10     6      4     381
                                             39 COMRAM    10     6      4
                            ___flmul (ARG)
                           ___xxtofl (ARG)
 ---------------------------------------------------------------------------------
 (1) ___flmul                                             25    17      8    1896
                                             14 COMRAM    25    17      8
                           ___xxtofl (ARG)
 ---------------------------------------------------------------------------------
 (1) _SYSTEM_Initialize                                    0     0      0     468
                 _EXT_INT_Initialize
               _INTERRUPT_Initialize
              _OSCILLATOR_Initialize
             _PIN_MANAGER_Initialize
                     _PMD_Initialize
                    _SMT1_Initialize
                    _TMR2_Initialize
                    _TMR4_Initialize
                   _UART1_Initialize
 ---------------------------------------------------------------------------------
 (2) _UART1_Initialize                                     0     0      0     294
              _UART1_SetErrorHandler
       _UART1_SetFramingErrorHandler
       _UART1_SetOverrunErrorHandler
 ---------------------------------------------------------------------------------
 (3) _UART1_SetOverrunErrorHandler                         3     0      3      98
                                              0 COMRAM     3     0      3
 ---------------------------------------------------------------------------------
 (3) _UART1_SetFramingErrorHandler                         3     0      3      98
                                              0 COMRAM     3     0      3
 ---------------------------------------------------------------------------------
 (3) _UART1_SetErrorHandler                                3     0      3      98
                                              0 COMRAM     3     0      3
 ---------------------------------------------------------------------------------
 (2) _TMR4_Initialize                                      0     0      0       0
 ---------------------------------------------------------------------------------
 (2) _TMR2_Initialize                                      0     0      0       0
 ---------------------------------------------------------------------------------
 (2) _SMT1_Initialize                                      0     0      0       0
 ---------------------------------------------------------------------------------
 (2) _PMD_Initialize                                       0     0      0       0
 ---------------------------------------------------------------------------------
 (2) _PIN_MANAGER_Initialize                               0     0      0       0
 ---------------------------------------------------------------------------------
 (2) _OSCILLATOR_Initialize                                0     0      0       0
 ---------------------------------------------------------------------------------
 (2) _INTERRUPT_Initialize                                 0     0      0       0
 ---------------------------------------------------------------------------------
 (2) _EXT_INT_Initialize                                   0     0      0     174
           _INT0_SetInterruptHandler
 ---------------------------------------------------------------------------------
 (3) _INT0_SetInterruptHandler                             3     0      3     174
                                              0 COMRAM     3     0      3
 ---------------------------------------------------------------------------------
 Estimated maximum stack depth 6
 ---------------------------------------------------------------------------------
 (Depth) Function   	        Calls       Base Space   Used Autos Params    Refs
 ---------------------------------------------------------------------------------
 (10) _INTERRUPT_InterruptManager                          0     0      0       0
                           _INT0_ISR
                    _SMT1_PR_ACQ_ISR
                    _SMT1_PW_ACQ_ISR
 ---------------------------------------------------------------------------------
 (11) _SMT1_PW_ACQ_ISR                                     0     0      0       0
 ---------------------------------------------------------------------------------
 (11) _SMT1_PR_ACQ_ISR                                     0     0      0       0
 ---------------------------------------------------------------------------------
 (11) _INT0_ISR                                            0     0      0       0
                      _INT0_CallBack
 ---------------------------------------------------------------------------------
 (12) _INT0_CallBack                                       0     0      0       0
                   Absolute function *
       _INT0_DefaultInterruptHandler *
               _counterHall_callback *
 ---------------------------------------------------------------------------------
 (13) _counterHall_callback                                0     0      0       0
 ---------------------------------------------------------------------------------
 (13) _INT0_DefaultInterruptHandler                        0     0      0       0
 ---------------------------------------------------------------------------------
 (13) Absolute function(Fake)                              0     0      0       0
 ---------------------------------------------------------------------------------
 Estimated maximum stack depth 13
 ---------------------------------------------------------------------------------

 Call Graph Graphs:

 _main (ROOT)
   _INT0_SetInterruptHandler
   _SYSTEM_Initialize
     _EXT_INT_Initialize
       _INT0_SetInterruptHandler
     _INTERRUPT_Initialize
     _OSCILLATOR_Initialize
     _PIN_MANAGER_Initialize
     _PMD_Initialize
     _SMT1_Initialize
     _TMR2_Initialize
     _TMR4_Initialize
     _UART1_Initialize
       _UART1_SetErrorHandler
       _UART1_SetFramingErrorHandler
       _UART1_SetOverrunErrorHandler
   ___flmul
     ___xxtofl (ARG)
   ___fltol
     ___flmul (ARG)
     ___xxtofl (ARG)
   ___xxtofl
   _printf
     _vfprintf
       _vfpfcnvrt
         _dtoa
           ___aodiv
           ___aomod
           _abs
             ___aomod (ARG)
           _pad
             _fputc
               _putch
                 _UART1_Write
             _fputs
               _fputc
             _strlen
         _fputc

 _INTERRUPT_InterruptManager (ROOT)
   _INT0_ISR
     _INT0_CallBack
       Absolute function(Fake) *
       _INT0_DefaultInterruptHandler *
       _counterHall_callback *
   _SMT1_PR_ACQ_ISR
   _SMT1_PW_ACQ_ISR

 Address spaces:
Name               Size   Autos  Total    Cost      Usage
BIGRAM            1FFF      0       0      69        0.0%
EEDATA             400      0       0       0        0.0%
BITBANK31          100      0       0      67        0.0%
BANK31             100      0       0      68        0.0%
BITBANK30          100      0       0      65        0.0%
BANK30             100      0       0      66        0.0%
BITBANK29          100      0       0      63        0.0%
BANK29             100      0       0      64        0.0%
BITBANK28          100      0       0      61        0.0%
BANK28             100      0       0      62        0.0%
BITBANK27          100      0       0      59        0.0%
BANK27             100      0       0      60        0.0%
BITBANK26          100      0       0      56        0.0%
BANK26             100      0       0      57        0.0%
BITBANK25          100      0       0      54        0.0%
BANK25             100      0       0      55        0.0%
BITBANK24          100      0       0      52        0.0%
BANK24             100      0       0      53        0.0%
BITBANK23          100      0       0      50        0.0%
BANK23             100      0       0      51        0.0%
BITBANK22          100      0       0      48        0.0%
BANK22             100      0       0      49        0.0%
BITBANK21          100      0       0      46        0.0%
BANK21             100      0       0      47        0.0%
BITBANK20          100      0       0      44        0.0%
BANK20             100      0       0      45        0.0%
BITBANK19          100      0       0      42        0.0%
BANK19             100      0       0      43        0.0%
BITBANK18          100      0       0      40        0.0%
BANK18             100      0       0      41        0.0%
BITBANK17          100      0       0      38        0.0%
BANK17             100      0       0      39        0.0%
BITBANK16          100      0       0      36        0.0%
BANK16             100      0       0      37        0.0%
BITBANK15          100      0       0      34        0.0%
BANK15             100      0       0      35        0.0%
BITBANK14          100      0       0      32        0.0%
BANK14             100      0       0      33        0.0%
BITBANK13          100      0       0      30        0.0%
BANK13             100      0       0      31        0.0%
BITBANK12          100      0       0      28        0.0%
BANK12             100      0       0      29        0.0%
BITBANK11          100      0       0      26        0.0%
BANK11             100      0       0      27        0.0%
BITBANK10          100      0       0      24        0.0%
BANK10             100      0       0      25        0.0%
BITBANK9           100      0       0      22        0.0%
BANK9              100      0       0      23        0.0%
BITBANK8           100      0       0      20        0.0%
BANK8              100      0       0      21        0.0%
BITBANK7           100      0       0      18        0.0%
BANK7              100      0       0      19        0.0%
BITBANK6           100      0       0      16        0.0%
BANK6              100      0       0      17        0.0%
BITBANK5           100      0       0      14        0.0%
BANK5              100      0       0      15        0.0%
BITBANK4           100      0       0      12        0.0%
BANK4              100      0       0      13        0.0%
BITBANK3           100      0       0      10        0.0%
BANK3              100      0       0      11        0.0%
BITBANK2           100      0       0       8        0.0%
BANK2              100      0       0       9        0.0%
BITBANK1           100      0       0       6        0.0%
BANK1              100      0       0       7        0.0%
BITBANK0            A0      0       0       4        0.0%
BANK0               A0      E      60       5       60.0%
BITCOMRAM           5F      0       0       0        0.0%
COMRAM              5F     5E      5F       1      100.0%
BITSFR_8             0      0       0     200        0.0%
SFR_8                0      0       0     200        0.0%
BITSFR_7             0      0       0     200        0.0%
SFR_7                0      0       0     200        0.0%
BITSFR_6             0      0       0     200        0.0%
SFR_6                0      0       0     200        0.0%
BITSFR_5             0      0       0     200        0.0%
SFR_5                0      0       0     200        0.0%
BITSFR_4             0      0       0     200        0.0%
SFR_4                0      0       0     200        0.0%
BITSFR_3             0      0       0     200        0.0%
SFR_3                0      0       0     200        0.0%
BITSFR_2             0      0       0     200        0.0%
SFR_2                0      0       0     200        0.0%
BITSFR_1             0      0       0     200        0.0%
SFR_1                0      0       0     200        0.0%
BITSFR               0      0       0     200        0.0%
SFR                  0      0       0     200        0.0%
STACK                0      0       0       2        0.0%
NULL                 0      0       0       0        0.0%
ABS                  0      0      BF      58        0.0%
DATA                 0      0      BF       3        0.0%
CODE                 0      0       0       0        0.0%


Microchip Technology PIC18 Macro Assembler V2.32 build 20210201212658 
Symbol Table                                                                                   Thu Sep 23 09:10:20 2021

                                          l95 35CA                                           l241 3A36  
                                         l137 38E0                                           l307 36D4  
                                         l244 39AE                                           l413 39CC  
                                         l333 3A08                                           l238 398A  
                                         l342 3A78                                           l360 3A60  
                                         l336 3A1E                                           l506 39E8  
                                         l354 3A52                                           l357 3A44  
                                         l630 2524                                           l375 3A9A  
                                         l473 3A6E                                           l750 31F4  
                                         l479 3A04                                           l763 3358  
                                         l933 345E                                           _PR2 003FAB  
                                         _PR4 003F9F                    ??_INT0_SetInterruptHandler 0004  
                                         _abs 3836                                           _pad 3460  
                     __size_of_PMD_Initialize 0024                               _TMR2_Initialize 39B0  
                                         tosl 003FFD                                           wreg 003FE8  
                               _INT0_CallBack 38E2                                  ___flmul@aexp 0020  
                                ___flmul@bexp 0021                                  ___flmul@sign 001B  
                                ___flmul@temp 0026                                  ___flmul@prod 0022  
                                ___fltol@exp1 0031                                          ?_abs 0013  
                                        l3001 25DC                                          l1305 3004  
                                        l1250 2638                                          l1314 3964  
                                        l3011 2612                                          l3003 25E2  
                                        l1260 28B8                                          l3101 2996  
                                        l3013 2622                                          l3005 25F0  
                                        l1405 3660                                          l1413 37F2  
                                        l1341 34A6                                          l1254 29C0  
                                        l3103 29A4                                          l3031 26AC  
                                        l3023 266C                                          l3015 2628  
                                        l3007 25F2                                          l1344 34E8  
                                        l1352 2A62                                          l3105 29A6  
                                        l1257 2852                                          l3041 26FE  
                                        l3033 26C8                                          l3025 267C  
                                        l3017 2648                                          l3009 2602  
                                        l3121 33AE                                          l3113 335A  
                                        l1346 3524                                          l1354 2A6A  
                                        l1267 2982                                          l3107 29AC  
                                        l1259 28CA                                          l3051 275C  
                                        l3043 270E                                          l3035 26D4  
                                        l3027 2686                                          l3019 2658  
                                        l3123 33B0                                          l3115 3370  
                                        l1291 2F10                                          l1419 38AE  
                                        l1372 2CA4                                          l3109 29B0  
                                        l3061 280C                                          l3053 277C  
                                        l3045 271E                                          l3037 26E0  
                                        l3029 26A0                                          l3125 33C0  
                                        l3301 23DC                                          l3221 20BA  
                                        l1294 306C                                          l1390 386C  
                                        l3071 2862                                          l3063 281A  
                                        l3055 278C                                          l3047 272E  
                                        l3039 26EE                                          l3151 343E  
                                        l3135 33EA                                          l3127 33C4  
                                        l3119 3384                                          l3311 243A  
                                        l3231 20E2                                          l3223 20CE  
                                        l3073 2870                                          l3065 2838  
                                        l3057 27AC                                          l3049 274C  
                                        l3153 344E                                          l3145 3412  
                                        l3137 33F4                                          l3129 33D2  
                                        l3161 2EDA                                          l1393 3874  
                                        l2601 35DE                                          l1385 37A6  
                                        l3321 249E                                          l3305 23EA  
                                        l3241 2114                                          l3233 20E4  
                                        l3225 20D0                                          l1298 2FA8  
                                        l1386 37AE                                          l3083 28DA  
                                        l3091 2922                                          l3075 2874  
                                        l3067 2842                                          l3059 27D6  
                                        l3147 341E                                          l3139 33FE  
                                        l3171 2F52                                          l3163 2F20  
                                        l2603 35F0                                          l1379 2EB8  
                                        l3331 2500                                          l3323 24A6  
                                        l3307 241E                                          l3315 2448  
                                        l3251 2140                                          l3235 20E6  
                                        l3227 20DE                                          l3093 293C  
                                        l3085 28E6                                          l3077 2882  
                                        l3069 2850                                          l3149 342E  
                                        l3181 2FDA                                          l3173 2F5E  
                                        l3165 2F36                                          l3157 2EBC  
                                        l2701 3302                                          l2605 35FA  
                                        l2613 37B0                                          l2621 3876  
                                        l3333 251A                                          l3325 24C4  
                                        l3309 242C                                          l3317 247C  
                                        l3253 2142                                          l3237 20F4  
                                        l3229 20E0                                          l3095 2950  
                                        l3087 28F4                                          l3079 28B0  
                                        l3191 3018                                          l3183 2FE6  
                                        l3175 2F90                                          l3159 2ECC  
                                        l2631 306E                                          l2703 3308  
                                        l2607 3618                                          l2615 37BC  
                                        l2623 3882                                          l2711 3460  
                                        l3335 252E                                          l3327 24F2  
                                        l3319 2498                                          l3271 21D0  
                                        l3263 2186                                          l3255 2164  
                                        l3247 211E                                          l3239 2102  
                                        l2801 3A38                                          l3097 296A  
                                        l3089 291E                                          l3193 303C  
                                        l3185 2FF4                                          l3177 2F92  
                                        l3169 2F4A                                          l2641 30B2  
                                        l2633 3072                                          l2705 3318  
                                        l2609 364E                                          l2617 37CE  
                                        l2625 3886                                          l2721 34B2  
                                        l2713 3470                                          l3337 255C  
                                        l3329 24F8                                          l3281 2224  
                                        l3265 2196                                          l3257 217C  
                                        l3249 212E                                          l2803 3A54  
                                        l3099 2986                                          l3195 304C  
                                        l3187 3012                                          l3179 2F9E  
                                        l2651 3108                                          l2643 30D2  
                                        l2635 3080                                          l2707 3338  
                                        l2619 37D2                                          l2627 38A2  
                                        l2723 34C6                                          l2715 3484  
                                        l3291 22C6                                          l3283 2232  
                                        l3267 21A8                                          l2805 3A62  
                                        l2901 39C4                                          l3197 305A  
                                        l3189 3014                                          l2661 318A  
                                        l2653 311C                                          l2645 30D6  
                                        l2637 30A0                                          l2733 3836  
                                        l2725 34CA                                          l2717 3492  
                                        l2741 2A0A                                          l2821 2CFE  
                                        l2813 2CA6                                          l3293 22E4  
                                        l3461 2256                                          l3269 21AA  
                                        l3277 21E2                                          l2903 39EA  
                                        l2911 36A0                                          l3199 305C  
                                        l2671 31D4                                          l2663 318C  
                                        l2655 312A                                          l2647 30E2  
                                        l2639 30A4                                          l2735 3850  
                                        l2727 34F8                                          l2719 349E  
                                        l2751 2A72                                          l2743 2A2A  
                                        l2831 2DF2                                          l2823 2D2E  
                                        l2815 2CD6                                          l3463 23BE  
                                        l3295 2346                                          l3279 2216  
                                        l3287 2240                                          l2905 39F0  
                                        l2913 36B0                                          l2665 319E  
                                        l2657 313C                                          l2649 3100  
                                        l2681 3228                                          l2593 3A08  
                                        l2729 350C                                          l2761 2AA8  
                                        l2753 2A84                                          l2745 2A3A  
                                        l2737 29C2                                          l2833 2E22  
                                        l2841 2E54                                          l2825 2D5E  
                                        l2817 2CE8                                          l3465 2400  
                                        l3289 2274                                          l2907 3A00  
                                        l2915 36C0                                          l2931 3966  
                                        l2659 316A                                          l2667 31A4  
                                        l2691 3280                                          l2683 322C  
                                        l2675 31F6                                          l2595 3A18  
                                        l2763 2AAE                                          l2771 2BA0  
                                        l2755 2A92                                          l2747 2A3C  
                                        l2739 29E2                                          l2843 2E66  
                                        l2835 2E34                                          l2827 2DBA  
                                        l2819 2CFA                                          l2923 3746  
                                        l3467 245E                                          l3299 23A8  
                                        l3459 21F8                                          l2861 354A  
                                        l2917 36D0                                          l2909 3662  
                                        l2941 397A                                          l2933 396A  
                                        l2669 31B4                                          l2693 3294  
                                        l2685 323A                                          l2677 31FA  
                                        l2597 3A72                                          l2773 2BBA  
                                        l2781 2C1C                                          l2765 2B30  
                                        l2757 2A98                                          l2749 2A56  
                                        l2837 2E48                                          l2925 374E  
                                        ?_pad 0013                                          l2871 35AA  
                                        l2863 359E                                          l2855 3526  
                                        l2943 397E                                          l2935 396E  
                                        l2695 32A2                                          l2687 325A  
                                        l2679 3208                                          l2599 35CC  
                                        l2791 2C62                                          l2783 2C2E  
                                        l2775 2BD8                                          l2767 2B36  
                                        l2759 2AA0                                          l2847 2E72  
                                        l2927 375C                                          l2873 35AC  
                                        l2865 35A0                                          l2857 3546  
                                        l2881 38D6                                          l2945 3982  
                                        l2937 3972                                          l2697 32D0  
                                        l2689 3278                                          l2793 2C6A  
                                        l2785 2C3E                                          l2777 2BF2  
                                        l2769 2B3C                                          l2849 2EA2  
                                        l2929 3782                                          l2891 3A20  
                                        l2875 35AE                                          l2867 35A2  
                                        l2859 3548                                          l2883 38DA  
                                        l2947 3986                                          l2939 3976  
                                        l2699 32F0                                          l2787 2C44  
                                        l2795 2C7C                                          l2779 2C0C  
                                        l2877 35B0                                          l2869 35A4  
                                        l2885 38DC                                          l2893 39CE  
                                        l2789 2C56                                          l2887 3A98  
                                        l2879 38B0                                          l2895 39DA  
                                        l2799 3A46                                          l2991 25A0  
                                        l2983 2574                                          l2889 398C  
                                        l2897 39E0                                          l2993 25B0  
                                        l2985 2580                                          l2977 3940  
                                        l2899 39B0                                          l2995 25C0  
                                        l2987 258E                                          l2979 3948  
                                        l2997 25C6                                          l2989 2590  
                                        l2999 25D6                                          STR_1 20B4  
                                        STR_2 2047                                          STR_3 2085  
                                        STR_4 2001                                          u1110 3A18  
                                        u1111 3A14                                          u2000 304C  
                                        u1120 35DE                                          u2001 3048  
                                        u1201 30DC                                          u1121 35DA  
                                        u2010 305A                                          u1210 3100  
                                        u1130 35F0                                          u2011 3056  
                                        u1211 30FC                                          u1131 35EC  
                                        u1220 312A                                          u1300 3318  
                                        u1140 3618                                          u2100 2498  
                                        u1221 3126                                          u1301 3314  
                                        u1141 3614                                          u2101 2494  
                                        u1230 316A                                          u1150 364E  
                                        u1310 3470                                          u2110 24C4  
                                        u1231 3166                                          u1151 364A  
                                        u1311 346C                                          u2111 24C0  
                                        u1240 31B4                                          u1160 37F2  
                                        u1320 3492                                          u1400 2A56  
                                        u2120 24F2                                          u1241 31B0  
                                        u1161 37EE                                          u1321 348E  
                                        u1401 2A52                                          u2121 24EE  
                                        u1250 3208                                          u1170 38A2  
                                        u1330 34E8                                          u1410 2A84  
                                        u2130 251A                                          u1251 3204  
                                        u1171 389E                                          u1331 34E4  
                                        u1411 2A80                                          u2131 2516  
                                        u1180 3080                                          u1260 323A  
                                        u1340 34F8                                          u1500 2C56  
                                        u1420 2A92                                          u1181 307C  
                                        u1261 3236                                          u1341 34F4  
                                        u1501 2C52                                          u1421 2A8E  
                                        _LATA 003FBA                                          u1190 30B2  
                                        u1270 3278                                          u1350 3850  
                                        u1430 2BBA                                          _LATB 003FBB  
                                        u1191 30AE                                          u1271 3274  
                                        u1351 384C                                          u1431 2BB6  
                                        u2207 219E                                          _LATC 003FBC  
                                        u1280 32A2                                          u1440 2BD8  
                                        u1360 29F2                                          u1520 2CD6  
                                        u2080 2164                                          _LATD 003FBD  
                                        u1281 329E                                          u1441 2BD4  
                                        u1361 29EC                                          u1521 2CD2  
                                        u2145 252C                                          u2217 21D6  
                                        u2081 2160                                          _LATE 003FBE  
                                        u1290 32D0                                          u1450 2BF2  
                                        u1370 29F4                                          u1530 2D2E  
                                        u2146 252E                                          u2090 21CC  
                                        u1291 32CC                                          u1451 2BEE  
                                        u1531 2D2A                                          u2227 2562  
                                        u2091 21C8                                          u1700 2602  
                                        u1460 2C0C                                          u1380 2A0A  
                                        u1540 2D5E                                          u1701 25FE  
                                        u1461 2C08                                          u1381 2A06  
                                        u1541 2D5A                                          u2157 20D6  
                                        u1710 2612                                          u1470 2C1C  
                                        u1390 2A3A                                          u1550 2E22  
                                        u1711 260E                                          u1471 2C18  
                                        u1391 2A36                                          u1551 2E1E  
                                        u2167 2124                                          u1800 28DA  
                                        u1720 2648                                          u1480 2C2E  
                                        u1801 28D6                                          u1721 2644  
                                        u1481 2C2A                                          u2177 2136  
                                        u1810 28F4                                          u1730 2658  
                                        u1490 2C3E                                          _T2PR 003FAB  
                                        u1811 28F0                                          u1731 2654  
                                        u1491 2C3A                                          u2187 216E  
                                        u1820 293C                                          u1740 27F6  
                                        u1660 258E                                          u1900 342E  
                                        u1580 37A6                                          u1821 2938  
                                        u1661 258A                                          u1901 342A  
                                        u1581 37A2                                          u2197 218C  
                                        u1830 296A                                          u1750 2850  
                                        u1670 25A0                                          u1910 343E  
                                        u1831 2966                                          u1751 284C  
                                        u1671 259C                                          u1911 343A  
                                        u1840 29A4                                          u1760 2870  
                                        u1680 25B0                                          u1920 2ECC  
                                        u1841 29A0                                          u1761 286C  
                                        u1745 27EC                                          u1681 25AC  
                                        u1921 2EC8                                          u1770 2882  
                                        u1690 25F0                                          u1850 3370  
                                        u1930 2EDA                                          _T4PR 003F9F  
                                        u1771 287E                                          u1691 25EC  
                                        u1851 336C                                          u1931 2ED6  
                                        u1780 28B0                                          u1860 33A4  
                                        u1940 2F36                                          u1781 28AC  
                                        u1941 2F32                                          u1790 28C6  
                                        u1870 33D2                                          u1950 2F8C  
                                        u1791 28C2                                          u1871 33CE  
                                        u1951 2F88                                          u1880 33E6  
                                        u1960 2FD6                                          u1881 33E2  
                                        u1865 339A                                          u1961 2FD2  
                                        u1890 340E                                          u1970 2FF4  
                                        u1891 340A                                          u1971 2FF0  
                                        u1980 3004                                          _PMD0 0039C0  
                                        u1981 3000                                          _PMD1 0039C1  
                                        u1990 3012                                          _PMD2 0039C2  
                                        u1991 300E                                          _PMD3 0039C3  
                                        _PMD4 0039C4                                          _PMD5 0039C5  
                                        _PMD6 0039C6                                          _PMD7 0039C7  
                                        _TMR2 003FAA                                          _TMR4 003F9E  
                                        _WPUA 003A41                                          _WPUB 003A51  
                                        _WPUC 003A61                                          _WPUD 003A71  
                                        _WPUE 003A81                                          _band 007A  
                                        abs@a 0013                                          _dbuf 007E  
                                        _main 20BA                                          _dtoa 29C2  
                                        _mody 007C                                          _prec 0070  
                                        _nout 006C                                          pad@i 001A  
                                        pad@p 0017                                          fsr1h 003FE2  
                                        fsr2h 003FDA                                          indf2 003FDF  
                                        fsr1l 003FE1                                          pad@w 001C  
                                        fsr2l 003FD9                                          prodh 003FF4  
                                        prodl 003FF3                                          start 001A  
                                ___param_bank 000000                                         ??_abs 0015  
                                       ??_pad 0019                              __end_of_INT0_ISR 3A84  
              __size_of_OSCILLATOR_Initialize 0018                 __end_of_OSCILLATOR_Initialize 3A38  
                               ___fltol@sign1 0030                               __end_of___aodiv 31F6  
                                       ?_main 0001                                         ?_dtoa 001E  
                             __end_of___aomod 335A                               __end_of___flmul 29C2  
                             __end_of___fltol 3460                                         _U1P1H 003DED  
                                       _U1P2H 003DEF                                         _U1P1L 003DEC  
                                       _U1P3H 003DF1                                         _T2CON 003FAC  
                                       _U1P2L 003DEE                                         _U1P3L 003DF0  
                                       _T4CON 003FA0                                         _T2HLT 003FAD  
                                       _T4HLT 003FA1                                         _T2TMR 003FAA  
                                       _U1UIR 003DF8                                         _T2RST 003FAF  
                                       _U1RXB 003DE8                                         _U1TXB 003DEA  
                                       _T4TMR 003F9E                                         _T4RST 003FA3  
                                       i2l191 3A90                                         i2l188 3A96  
                                       i2l380 36FC                                         i2l470 3912  
                                       i2l382 3720                                         i2l383 3744  
                                       i2l466 3A82                                         i2l386 3744  
                                       i2l476 3A9C                                         i2l593 393E  
                                       _OSCEN 0039DD                                  vfpfcnvrt@fmt 0044  
                                       _TRISA 003FC2                                         _TRISB 003FC3  
                              ?_INT0_CallBack 0001                                         _TRISC 003FC4  
                                       _TRISD 003FC5                                         _TRISE 003FC6  
                             _TMR4_Initialize 39CE                                         _Timer 0060  
                                       _Width 00B8                                         _flags 0072  
                                       _count 0074                                         _fputc 35CC  
                                       _fputs 37B0                                         pad@fp 0013  
                                       _width 006E                                         _putch 3A70  
                                       main@j 00A8                                         dtoa@d 0020  
                                       dtoa@i 0040                                         dtoa@n 0038  
                                       dtoa@p 0032                                         dtoa@s 0036  
                                       dtoa@w 0034                              ?_SMT1_Initialize 0001  
                                       pclath 003FFA                                         tablat 003FF5  
                                       status 003FD8              _UART1_DefaultFramingErrorHandler 000000  
                             __initialization 37F4                                  __end_of_main 2574  
                                __end_of_dtoa 2CA6                       __end_of_TMR2_Initialize 39CE  
                 ?_INTERRUPT_InterruptManager 0001                                  ?_UART1_Write 0001  
                                      ??_main 005C                                        ??_dtoa 0028  
                               __activetblptr 000003                              _UART1_Initialize 3662  
                                      ?_fputc 0003                                        ?_fputs 000C  
                                      _ANSELA 003A40                                        ?_putch 0001  
                                      _ANSELB 003A50                                        _ANSELC 003A60  
                                      _ANSELD 003A70                                        _ANSELE 003A80  
                                      _RB1I2C 003A5A                                        _RB2I2C 003A5B  
                                      _RD0I2C 003A7A                                        _U1CON0 003DF2  
                                      _U1CON1 003DF3                                        _U1CON2 003DF4  
                                      _RC3I2C 003A6A                                        _RD1I2C 003A7B  
                                      _RC4I2C 003A6B                                        _U1BRGH 003DF6  
                                      _U1FIFO 003DF7                                        _U1BRGL 003DF5  
                                      _RB2PPS 003A0A                                        _ODCONA 003A42  
                                      _ODCONB 003A52                                        _ODCONC 003A62  
                                      _ODCOND 003A72                                        _ODCONE 003A82  
                                      i2l3211 36F4                                        i2l3213 370A  
                                      i2l3215 3718                                        i2l3207 36D6  
                                      i2l3217 372E                                        i2l3209 36E6  
                                      i2l3219 373C                                        i2l1761 3A8C  
                                      i2l2811 3938                                        i2l2807 3914  
                                      i2l1759 3A92                                        i2l2809 3930  
                                      i2l2921 38F8                                        i2l2919 38E2  
                                      _INLVLA 003A44                                        _INLVLB 003A54  
                                      _INLVLC 003A64                                        _INLVLD 003A74  
                                      i2l2973 3A7A                                        _INLVLE 003A84  
                                      i2l2975 3A7E                                        _OSCFRQ 0039DF  
                                      _SMT1PR 003F1B                         _UART1_SetErrorHandler 3A54  
                            __end_of___xxtofl 306E                       fp__counterHall_callback 0000  
                                      _Period 0064                                  vfprintf@cfmt 0058  
                                   ??___aodiv 0011                                     ??___aomod 0011  
                                   ??___flmul 0017                                     ??___fltol 002C  
                                      _analog 0068                                        _errsig 0076  
                     __end_of_TMR4_Initialize 39EA                                        clear_0 381C  
                                      isa$std 000001                                        _printf 3940  
                                      pad@buf 0015                               ??_INT0_CallBack 0001  
                                      dtoa@fp 001E                                        _strlen 3876  
                                      fputc@c 0003                                _PMD_Initialize 398C  
                                      fputs@c 0010                                        fputs@i 0011  
                                      fputs@s 000C                                  __mediumconst 0000  
                                      tblptrh 003FF7                                        tblptrl 003FF6  
                                      tblptru 003FF8                              __end_of_vfprintf 37B0  
    INT0_SetInterruptHandler@InterruptHandler 0001          __end_of_UART1_SetOverrunErrorHandler 3A46  
       __size_of_UART1_SetOverrunErrorHandler 000E                  _UART1_SetOverrunErrorHandler 3A38  
                   _UART1_DefaultErrorHandler 000000                 __size_of_INTERRUPT_Initialize 0004  
                                ___xxtofl@arg 000B                                  ___xxtofl@exp 000A  
                           _SYSTEM_Initialize 3966                                  ___xxtofl@val 0001  
                                  __accesstop 0060                       __end_of__initialization 3830  
                                   ?_INT0_ISR 0001                            ?_SYSTEM_Initialize 0001  
                               ___rparam_used 000001                                    ___fltol@f1 0028  
                              __pcstackCOMRAM 0001                                  __pidataBANK0 3A84  
                         ??_SYSTEM_Initialize 0004                                 __end_of_fputc 3662  
                               __end_of_fputs 37F4                                 __end_of_putch 3A7A  
                            ?_TMR2_Initialize 0001                        __end_of_PMD_Initialize 39B0  
                 __size_of_EXT_INT_Initialize 001C                     _UART1_FramingErrorHandler 00B5  
                    __size_of_SMT1_PR_ACQ_ISR 0006                                _failsafe_count 00BC  
                                     ??_fputc 0007                     __end_of_SYSTEM_Initialize 398C  
                                     ??_fputs 0010                                       ??_putch 0002  
                                  __pbssBANK0 0060                 ?_UART1_SetOverrunErrorHandler 0001  
                      ?_UART1_SetErrorHandler 0001                         _INT0_InterruptHandler 00AC  
                                  ??_INT0_ISR 0001                 __size_of_counterHall_callback 002C  
                    __size_of_SMT1_PW_ACQ_ISR 0006                                       IVTBASEH 003FD6  
                                     IVTBASEL 003FD5                                       IVTBASEU 003FD7  
                            ?_TMR4_Initialize 0001                                       ?_printf 009E  
                             ?_PMD_Initialize 0001                                       ?_strlen 0001  
                                     _U1ERRIE 003DFA                                       _U1ERRIR 003DF9  
                                     _INT0PPS 003AC0                          __size_of_UART1_Write 001A  
                                     _U1RXPPS 003AE5                                     ?___xxtofl 0001  
                                     _OSCCON1 0039D9                                       _OSCCON3 0039DB  
                          __size_of_vfpfcnvrt 0214                                       _SMT1CLK 003F21  
                                     _OSCTUNE 0039DE                                       _SMT1CPR 003F15  
                                     _SMT1CPW 003F18                                       _SMT1SIG 003F22  
                                     _SMT1PRH 003F1C                                       _SMT1PRL 003F1B  
                                     _SMT1PRU 003F1D                                       _SMT1WIN 003F23  
                                     _SMT1TMR 003F12                                       _SLRCONA 003A43  
                                     _SLRCONB 003A53                                       _SLRCONC 003A63  
                                     _SLRCOND 003A73                                       _SLRCONE 003A83  
           __size_of_INT0_SetInterruptHandler 000E                     ?_INT0_SetInterruptHandler 0001  
                                     __Hparam 0000                                       __Lparam 0000  
                    __end_of_UART1_Initialize 36D6                                       ___aodiv 306E  
                                     ___aomod 31F6                                       ___flmul 2574  
                                     ___fltol 335A                                     ?_vfprintf 0052  
                                __psmallconst 2000                                       __pcinit 37F4  
                                     __ramtop 2000                                       __ptext0 20BA  
                                     __ptext1 3940                                       __ptext2 3746  
                                     __ptext3 2CA6                                       __ptext4 29C2  
                                     __ptext5 3460                                       __ptext6 3876  
                                     __ptext7 37B0                                       __ptext8 35CC  
                                     __ptext9 3A70                               __size_of_printf 0026  
                             __size_of_strlen 003A                         _OSCILLATOR_Initialize 3A20  
                                   _T2CONbits 003FAC                                  __size_of_abs 0040  
                                __size_of_pad 00C6                                    ??___xxtofl 0005  
                                   _T4CONbits 003FA0                      ??_PIN_MANAGER_Initialize 0001  
                                   _T2HLTbits 003FAD                                       _reverse 00BE  
                                   _T4HLTbits 003FA1                    __size_of_SYSTEM_Initialize 0026  
                        end_of_initialization 3830                                     _T2RSTbits 003FAF  
                                   _T4RSTbits 003FA3                                       fputc@fp 0005  
                           ??_SMT1_PR_ACQ_ISR 0001                                       fputs@fp 000E  
              ??_UART1_SetOverrunErrorHandler 0004                      __size_of_SMT1_Initialize 0032  
                           __end_of_vfpfcnvrt 2EBA                                       postdec1 003FE5  
                                     postdec2 003FDD                             ??_SMT1_PW_ACQ_ISR 0001  
                                     postinc0 003FEE                                       postinc1 003FE6  
                                     postinc2 003FDE                                    ??_vfprintf 0058  
                           UART1_Write@txData 0001                                       strlen@a 0003  
                                     strlen@s 0001                                 ___xxtofl@sign 0009  
                                  main@j_1477 00AA                                   ___flmul@grs 001C  
                           __size_of_INT0_ISR 000A                  __end_of_INTERRUPT_Initialize 3A9C  
        __end_of_INT0_DefaultInterruptHandler 3A9E         __size_of_INT0_DefaultInterruptHandler 0002  
                _INT0_DefaultInterruptHandler 3A9C                                   vfpfcnvrt@ap 0046  
                                 vfpfcnvrt@fp 0042                                   vfpfcnvrt@ll 004A  
                      ?_OSCILLATOR_Initialize 0001                                __end_of_printf 3966  
                       __end_of_INT0_CallBack 3914                                __end_of_strlen 38B0  
                         start_initialization 37F4               __size_of_PIN_MANAGER_Initialize 00A6  
                                 __end_of_abs 3876                                   __end_of_pad 3526  
                     ??_UART1_SetErrorHandler 0004                                   putch@txData 0002  
                                  ivt0x8_base 0008                                   vfprintf@fmt 0054  
                            ??_PMD_Initialize 0001                                   __pdataBANK0 00B8  
                  __end_of_EXT_INT_Initialize 3A06                             ??_SMT1_Initialize 0001  
                __end_of_counterHall_callback 3940               fp__INT0_DefaultInterruptHandler 0000  
               ?_INT0_DefaultInterruptHandler 0001                                      ??_printf 005A  
                                    ??_strlen 0003                                     ___flmul@a 0013  
                                   ___flmul@b 000F                                   __pbssCOMRAM 005F  
            __end_of_INT0_SetInterruptHandler 3A70                            _UART1_ErrorHandler 00AF  
                               __pcstackBANK0 009E                              ___aodiv@dividend 0001  
                    __size_of_TMR2_Initialize 001E                             __size_of___xxtofl 01B4  
                                   __pnvBANK0 00AC                        _PIN_MANAGER_Initialize 3526  
                                   _dtoa$1984 0030                             ?_UART1_Initialize 0001  
        __end_of_UART1_SetFramingErrorHandler 3A54         __size_of_UART1_SetFramingErrorHandler 000E  
                _UART1_SetFramingErrorHandler 3A46                                      ?___aodiv 0001  
                                    ?___aomod 0001                              ___aodiv@quotient 0013  
                                    ?___flmul 000F                                      ?___fltol 0028  
                          ??_UART1_Initialize 0004                              _uart1RxLastError 005F  
                               ??_UART1_Write 0001                  ??_INTERRUPT_InterruptManager 0001  
                           __size_of_vfprintf 006A                                   __smallconst 2000  
            _UART1_DefaultOverrunErrorHandler 000000                               _SMT1_PR_ACQ_ISR 3A92  
                    __size_of_TMR4_Initialize 001C                                __size_of_fputc 0096  
                                    _T2CLKCON 003FAE                                __size_of_fputs 0044  
                                 _U1ERRIRbits 003DF9                                      _T4CLKCON 003FA2  
                              __size_of_putch 000A                          _INTERRUPT_Initialize 3A98  
                             _SMT1_PW_ACQ_ISR 3A8C                                      _INT0_ISR 3A7A  
                                    _LATAbits 003FBA         UART1_SetErrorHandler@interruptHandler 0001  
                                    _LATEbits 003FBE                                      _PIE1bits 003991  
                                    i2u202_40 36E6                                      i2u202_41 36E2  
                                    i2u203_40 36F4                                      i2u203_41 36F0  
                                    i2u204_40 370A                                      i2u204_41 3706  
                                    i2u205_40 3718                                      i2u205_41 3714  
                                    i2u206_40 372E                                      i2u206_41 372A  
                                    i2u151_40 3930                                      i2u207_40 373C  
                                    i2u151_41 392C                                      i2u207_41 3738  
         __size_of_INTERRUPT_InterruptManager 0070                                      i2u156_40 38F8  
                                    i2u156_41 38F4                                      i2u157_48 38FE  
                                    i2u157_49 3912                                      _PIR1bits 0039A1  
                                    _PIR3bits 0039A3                                      _PIR4bits 0039A4  
                                    _PIR7bits 0039A7                                      _SMT1CON0 003F1E  
                                    _SMT1CON1 003F1F                                      _SMT1STAT 003F20  
               ?_UART1_SetFramingErrorHandler 0001                                     _vfpfcnvrt 2CA6  
              ??_INT0_DefaultInterruptHandler 0001                           __end_of_UART1_Write 3A20  
                                _SMT1CON0bits 003F1E                                  _SMT1CON1bits 003F1F  
                                 _INTCON0bits 003FD2                                     copy_data0 3808  
                       ?_INTERRUPT_Initialize 0001                      _INT0_SetInterruptHandler 3A62  
                           ??_TMR2_Initialize 0001                          _counterHall_callback 3914  
                                    __Hrparam 0000                                    vfprintf@ap 0056  
                                    __Lrparam 0000                                    vfprintf@fp 0052  
                     ??_OSCILLATOR_Initialize 0001                              __size_of___aodiv 0188  
                            __size_of___aomod 0164                              __size_of___flmul 044E  
                            __size_of___fltol 0106                                  _SMT1STATbits 003F20  
                     __end_of_SMT1_PR_ACQ_ISR 3A98                                    ?_vfpfcnvrt 0042  
                             ___aodiv@divisor 0009                               ___aodiv@counter 0011  
                                    ___xxtofl 2EBA                                      __pivt0x8 0008  
                     __end_of_SMT1_PW_ACQ_ISR 3A92                                      __ptext10 3A06  
                                    __ptext11 3836                                      __ptext20 3A46  
                                    __ptext12 31F6                                      __ptext21 3A54  
                                    __ptext13 306E                                      __ptext30 3A62  
                                    __ptext22 39CE                                      __ptext14 2EBA  
                                    __ptext31 36D6                                      __ptext23 39B0  
                                    __ptext15 335A                                      __ptext32 3A8C  
                                    __ptext24 38B0                                      __ptext16 2574  
                                    __ptext33 3A92                                      __ptext25 398C  
                                    __ptext17 3966                                      __ptext34 3A7A  
                                    __ptext26 3526                                      __ptext18 3662  
                                    __ptext35 38E2                                      __ptext27 3A20  
                                    __ptext19 3A38                                      __ptext36 3A9C  
                                    __ptext28 3A98                                      __ptext37 3914  
                                    __ptext29 39EA                                      __ptext38 0000  
                                  _U1CON0bits 003DF2                __size_of_UART1_SetErrorHandler 000E  
               __end_of_UART1_SetErrorHandler 3A62                         ?_counterHall_callback 0001  
                                    _ip_pulse 0078                             ??_TMR4_Initialize 0001  
                               __size_of_main 04BA                                 __size_of_dtoa 02E4  
                             _SMT1_Initialize 38B0                     _UART1_OverrunErrorHandler 00B2  
UART1_SetOverrunErrorHandler@interruptHandler 0001                                      isa$xinst 000000  
                                    _vfprintf 3746            __end_of_INTERRUPT_InterruptManager 3746  
                  _INTERRUPT_InterruptManager 36D6                                     printf@fmt 009E  
                                 _UART1_Write 3A06                              ___aomod@dividend 0001  
              ??_UART1_SetFramingErrorHandler 0004                        ??_INTERRUPT_Initialize 0001  
                          _EXT_INT_Initialize 39EA                                      intlevel2 0000  
                     ?_PIN_MANAGER_Initialize 0001                           ?_EXT_INT_Initialize 0001  
                      __size_of_INT0_CallBack 0032                                      printf@ap 005A  
UART1_SetFramingErrorHandler@interruptHandler 0001                               ___aomod@divisor 0009  
                                 ??_vfpfcnvrt 0048                               ___aomod@counter 0011  
                            ?_SMT1_PR_ACQ_ISR 0001                                    _SMT1SIGPPS 003AD2  
                                  _SMT1WINPPS 003AD1                          ??_EXT_INT_Initialize 0004  
                   __size_of_UART1_Initialize 0074                              ?_SMT1_PW_ACQ_ISR 0001  
                     __end_of_SMT1_Initialize 38E2                        ??_counterHall_callback 0001  
                                ___aodiv@sign 0012                __end_of_PIN_MANAGER_Initialize 35CC  
                                ___aomod@sign 0012  
